 n

 Timestamp is 5242ba63 (Wed Sep 25 18:26:43 2013)

 Preferred load address is 00400000

 Start         Length     Name                   Class
 0001:00000000 0005d5aeH .text                   CODE
 0001:0005d5ae 00000f39H .text$AFX_AUX           CODE
 0001:0005e4e7 00000bb4H .text$AFX_CMNCTL        CODE
 0001:0005f09b 000007deH .text$AFX_COL1          CODE
 0001:0005f879 000004c7H .text$AFX_COL2          CODE
 0001:0005fd40 00006303H .text$AFX_CORE1         CODE
 0001:00066043 0000169eH .text$AFX_CORE2         CODE
 0001:000676e1 000008edH .text$AFX_CORE3         CODE
 0001:00067fce 00000e0cH .text$AFX_CORE4         CODE
 0001:00068dda 00000000H .text$AFX_INET          CODE
 0001:00068dda 00001b4aH .text$AFX_INIT          CODE
 0001:0006a924 00000000H .text$AFX_OLE1          CODE
 0001:0006a924 00000000H .text$AFX_OLE5          CODE
 0001:0006a924 00000000H .text$AFX_PRNT          CODE
 0001:0006a924 0000015eH .text$AFX_TERM          CODE
 0001:0006aa90 0000406eH .text$x                 CODE
 0002:00000000 000006d8H .idata$5                DATA
 0002:000006e0 00008e9eH .rdata                  DATA
 0002:00009580 00001564H .rdata$r                DATA
 0002:0000aae8 00005ac8H .xdata$x                DATA
 0002:000105b0 00000104H .idata$2                DATA
 0002:000106b4 00000014H .idata$3                DATA
 0002:000106c8 000006d8H .idata$4                DATA
 0002:00010da0 00001bd8H .idata$6                DATA
 0002:00012978 00000000H .edata                  DATA
 0003:00000000 00000004H .CRT$XCA                DATA
 0003:00000004 0000002cH .CRT$XCC                DATA
 0003:00000030 00000018H .CRT$XCL                DATA
 0003:00000048 00000070H .CRT$XCU                DATA
 0003:000000b8 00000004H .CRT$XCZ                DATA
 0003:000000bc 00000004H .CRT$XIA                DATA
 0003:000000c0 0000000cH .CRT$XIC                DATA
 0003:000000cc 00000004H .CRT$XIY                DATA
 0003:000000d0 00000004H .CRT$XIZ                DATA
 0003:000000d4 00000004H .CRT$XPA                DATA
 0003:000000d8 00000008H .CRT$XPX                DATA
 0003:000000e0 00000004H .CRT$XPZ                DATA
 0003:000000e4 00000004H .CRT$XTA                DATA
 0003:000000e8 00000004H .CRT$XTB                DATA
 0003:000000ec 00000004H .CRT$XTZ                DATA
 0003:000000f0 0000e23cH .data                   DATA
 0003:0000e330 0001c41aH .bss                    DATA
 0004:00000000 00000bc4H .rsrc$01                DATA
 0004:00000bd0 00004b38H .rsrc$02                DATA

  Address         Publics by Value              Rva+Base     Lib:Object

 0001:00000000       _odbcdb_GetProcAddress     00401000 f   n.obj
 0001:00000000       _com_LoadLibrary           00401000 f   n.obj
 0001:00000000       _ocx_LoadLibrary           00401000 f   n.obj
 0001:00000000       _com_GetProcAddress        00401000 f   n.obj
 0001:00000000       _cominf_LoadLibrary        00401000 f   n.obj
 0001:00000000       _ocx_GetProcAddress        00401000 f   n.obj
 0001:00000000       _mp3_GetProcAddress        00401000 f   n.obj
 0001:00000000       _cominf_GetProcAddress     00401000 f   n.obj
 0001:00000000       _mp3_LoadLibrary           00401000 f   n.obj
 0001:00000000       _odbcdb_LoadLibrary        00401000 f   n.obj
 0001:00000002       _cominf_FreeLibrary        00401002 f   n.obj
 0001:00000002       _odbcdb_FreeLibrary        00401002 f   n.obj
 0001:00000002       _mp3_FreeLibrary           00401002 f   n.obj
 0001:00000002       _com_FreeLibrary           00401002 f   n.obj
 0001:00000002       _ocx_FreeLibrary           00401002 f   n.obj
 0001:00001518       _EStartup                  00402518 f   n.obj
 0001:000015a0       ?RunBitOper@@YAXHPAUMDATA_INF@@H0@Z 004025a0 f   krnln_static:Libfn.obj
 0001:000015f0       _krnln_fnBAnd              004025f0 f   krnln_static:Libfn.obj
 0001:00001610       _krnln_fnBOr               00402610 f   krnln_static:Libfn.obj
 0001:00001630       _krnln_fnGetHWnd           00402630 f   krnln_static:Libfn.obj
 0001:00001660       _krnln_fnLen               00402660 f   krnln_static:Libfn.obj
 0001:00001680       ??_GCFreqMem@@UAEPAXI@Z    00402680 f i krnln_static:Libfn.obj
 0001:00001680       ??_ECFreqMem@@UAEPAXI@Z    00402680 f i krnln_static:Libfn.obj
 0001:000016b0       ??_ECMyDWordArray@@UAEPAXI@Z 004026b0 f i krnln_static:Libfn.obj
 0001:000016b0       ??_GCMyDWordArray@@UAEPAXI@Z 004026b0 f i krnln_static:Libfn.obj
 0001:000016d0       ??1CFreqMem@@UAE@XZ        004026d0 f i krnln_static:Libfn.obj
 0001:000016d0       ??1CMyDWordArray@@UAE@XZ   004026d0 f i krnln_static:Libfn.obj
 0001:000016e0       _krnln_fnLeft              004026e0 f   krnln_static:Libfn.obj
 0001:00001720       _krnln_fnRight             00402720 f   krnln_static:Libfn.obj
 0001:00001770       ?SearchText@@YAXPAUMDATA_INF@@H0H@Z 00402770 f   krnln_static:Libfn.obj
 0001:000018d0       _krnln_fnInStr             004028d0 f   krnln_static:Libfn.obj
 0001:000018f0       _krnln_fnInStrRev          004028f0 f   krnln_static:Libfn.obj
 0001:00001910       _krnln_fnRpSubText         00402910 f   krnln_static:Libfn.obj
 0001:00001b00       _krnln_fnSplit             00402b00 f   krnln_static:Libfn.obj
 0001:00001c90       ?NumToStr@@YAXPAUMDATA_INF@@PAD@Z 00402c90 f   krnln_static:Libfn.obj
 0001:00001d40       _krnln_fnCurDir            00402d40 f   krnln_static:Libfn.obj
 0001:00001d80       _krnln_fnMkDir             00402d80 f   krnln_static:Libfn.obj
 0001:00001da0       _krnln_fnGetAttr           00402da0 f   krnln_static:Libfn.obj
 0001:00001dd0       _krnln_fnWriteFile         00402dd0 f   krnln_static:Libfn.obj
 0001:00001eb0       iext_??1AFX_EXCEPTION_LINK@@QAE@XZ 00402eb0 f i krnln_static:Libfn.obj
 0001:00001eb0       edroptarget_??1AFX_EXCEPTION_LINK@@QAE@XZ 00402eb0 f i krnln_static:Libfn.obj
 0001:00001eb0       ??1AFX_EXCEPTION_LINK@@QAE@XZ 00402eb0 f i krnln_static:Libfn.obj
 0001:00001ec0       _krnln_fnMsgBox            00402ec0 f   krnln_static:Libfn.obj
 0001:00001ff0       ?GetCursorDataPtr@CWinUnitIDManger@@QAEPAEPAE@Z 00402ff0 f i krnln_static:Libfn.obj
 0001:00002020       ?RunPopupMenu@@YAXPAUMDATA_INF@@H0H@Z 00403020 f   krnln_static:Libfn.obj
 0001:00002280       _krnln_fnPopupMenu         00403280 f   krnln_static:Libfn.obj
 0001:000022a0       _krnln_fnOpenDlg           004032a0 f   krnln_static:Libfn.obj
 0001:000022c0       ??_ECGdiObject@@UAEPAXI@Z  004032c0 f i krnln_static:Libfn.obj
 0001:000022c0       ??_GCGdiObject@@UAEPAXI@Z  004032c0 f i krnln_static:Libfn.obj
 0001:000022e0       ??1CGdiObject@@UAE@XZ      004032e0 f i krnln_static:Libfn.obj
 0001:00002320       ??1CBrush@@UAE@XZ          00403320 f i krnln_static:Libfn.obj
 0001:00002360       ??1CJBPic@@UAE@XZ          00403360 f i krnln_static:Libfn.obj
 0001:000023c0       ??_ECJBPic@@UAEPAXI@Z      004033c0 f i krnln_static:Libfn.obj
 0001:000023c0       ??_GCJBPic@@UAEPAXI@Z      004033c0 f i krnln_static:Libfn.obj
 0001:000023e0       _krnln_fnpbin              004033e0 f   krnln_static:Libfn.obj
 0001:00002440       ??1?$CThreadLocal@VCMDBState@@@@QAE@XZ 00403440 f i krnln_static:Libfn.obj
 0001:00002440       ??1?$CThreadLocal@VCMComState@@@@QAE@XZ 00403440 f i krnln_static:Libfn.obj
 0001:00002450       ?SetFilePath@CFile@@UAEXPBD@Z 00403450 f i krnln_static:Libfn.obj
 0001:00002460       ??_GCCryptFile@@UAEPAXI@Z  00403460 f i krnln_static:Libfn.obj
 0001:00002460       ??_ECCryptFile@@UAEPAXI@Z  00403460 f i krnln_static:Libfn.obj
 0001:00002480       ??1CCryptFile@@UAE@XZ      00403480 f i krnln_static:Libfn.obj
 0001:00002490       ??0CFreqMem@@QAE@XZ        00403490 f   krnln_static:krnl2.obj
 0001:000024b0       ?Alloc@CFreqMem@@QAEPAEH@Z 004034b0 f   krnln_static:krnl2.obj
 0001:00002580       ?Realloc@CFreqMem@@QAEPAEH@Z 00403580 f   krnln_static:krnl2.obj
 0001:00002690       ?Free@CFreqMem@@QAEXXZ     00403690 f   krnln_static:krnl2.obj
 0001:000026b0       ?_Free@CFreqMem@@IAEXPAE@Z 004036b0 f   krnln_static:krnl2.obj
 0001:00002720       ?AddBool@CFreqMem@@QAEXH@Z 00403720 f   krnln_static:krnl2.obj
 0001:00002720       ?AddDWord@CFreqMem@@QAEXK@Z 00403720 f   krnln_static:krnl2.obj
 0001:00002720       ?AddInt@CFreqMem@@QAEXH@Z  00403720 f   krnln_static:krnl2.obj
 0001:00002760       ?AddWord@CFreqMem@@QAEXG@Z 00403760 f   krnln_static:krnl2.obj
 0001:000027a0       ?AddByte@CFreqMem@@QAEXE@Z 004037a0 f   krnln_static:krnl2.obj
 0001:000027d0       ?XchgMem@CFreqMem@@QAEXAAV1@@Z 004037d0 f   krnln_static:krnl2.obj
 0001:00002810       ?Serialize@CFreqMem@@QAEXAAVCArchive@@@Z 00403810 f   krnln_static:krnl2.obj
 0001:000028c0       ?ReadFile@CFreqMem@@QAEHAAVCString@@H@Z 004038c0 f   krnln_static:krnl2.obj
 0001:00002a10       ?WriteFile@CFreqMem@@QAEHAAVCString@@HH@Z 00403a10 f   krnln_static:krnl2.obj
 0001:00002b20       ?Insert@CFreqMem@@QAEHHPAEH@Z 00403b20 f   krnln_static:krnl2.obj
 0001:00002bc0       ?Append@CFreqMem@@QAEHPAEH@Z 00403bc0 f   krnln_static:krnl2.obj
 0001:00002c20       ?Replace@CFreqMem@@QAEHHHPAEH@Z 00403c20 f   krnln_static:krnl2.obj
 0001:00002d40       ?Remove@CFreqMem@@QAEHHH@Z 00403d40 f   krnln_static:krnl2.obj
 0001:00002df0       ?FindInt@@YAHPAHHH@Z       00403df0 f   krnln_static:krnl2.obj
 0001:00002e10       ?IsEmptyStr@@YAHPAD@Z      00403e10 f   krnln_static:krnl2.obj
 0001:00002e30       ?MoveMem@@YAXPAE0K@Z       00403e30 f   krnln_static:krnl2.obj
 0001:00002e30       iext_?MoveMem@@YAXPAE0K@Z  00403e30 f   krnln_static:krnl2.obj
 0001:00002e90       iext_?tcsallbytes@@YAHPAD@Z 00403e90 f   krnln_static:krnl2.obj
 0001:00002e90       ?tcsallbytes@@YAHPAD@Z     00403e90 f   krnln_static:krnl2.obj
 0001:00002eb0       ?tcsbytes@@YAHPAD@Z        00403eb0 f   krnln_static:krnl2.obj
 0001:00002ed0       ?FindDWord@@YAHPAKHK@Z     00403ed0 f   krnln_static:krnl2.obj
 0001:00002f20       ?SaveData@CPropertyInfo@@QAEPAXPAH@Z 00403f20 f   krnln_static:krnl2.obj
 0001:00003040       ?LoadData@CPropertyInfo@@QAEHPAEH@Z 00404040 f   krnln_static:krnl2.obj
 0001:00003130       ?GetWndPtr@@YAPAVCWnd@@PAUMDATA_INF@@@Z 00404130 f   krnln_static:krnl2.obj
 0001:00003150       ?MyCreateFont@@YAHAAVCFont@@PAUtagLOGFONTA@@@Z 00404150 f   krnln_static:krnl2.obj
 0001:00003150       iext_?MyCreateFont@@YAHAAVCFont@@PAUtagLOGFONTA@@@Z 00404150 f   krnln_static:krnl2.obj
 0001:000031b0       ?SerializeCString@@YAXAAVCString@@AAVCArchive@@@Z 004041b0 f   krnln_static:krnl2.obj
 0001:00003250       ?SetStr@@YAXAAVCString@@PAD@Z 00404250 f   krnln_static:krnl2.obj
 0001:00003270       ?ChangeFontProperty@@YAXPAVCWnd@@AAVCFont@@AAVCFreqMem@@PATUNIT_PROPERTY_VALUE@@@Z 00404270 f   krnln_static:krnl2.obj
 0001:00003310       ?FindDataSource@@YAPAVCMDataSource@@KPAVCProvider@@@Z 00404310 f   krnln_static:krnl2.obj
 0001:000033b0       ?FindDataSource@@YAPAVCMDataSource@@KPADPAPAUHWND__@@@Z 004043b0 f   krnln_static:krnl2.obj
 0001:00003490       ?FindProvider@@YAPAVCProvider@@KPAD@Z 00404490 f   krnln_static:krnl2.obj
 0001:00003550       ??6CArchive@@QAEAAV0@K@Z   00404550 f i krnln_static:krnl2.obj
 0001:00003550       ??6CArchive@@QAEAAV0@J@Z   00404550 f i krnln_static:krnl2.obj
 0001:00003550       iext_??6CArchive@@QAEAAV0@J@Z 00404550 f i krnln_static:krnl2.obj
 0001:00003580       iext_?Serialize@CPropertyInfo@@UAEHAAVCArchive@@@Z 00404580 f i krnln_static:krnl2.obj
 0001:00003580       ?Serialize@CPropertyInfo@@UAEHAAVCArchive@@@Z 00404580 f i krnln_static:krnl2.obj
 0001:000035a0       ?OnDeltapos@CSpin@@IAEXPAUtagNMHDR@@PAJ@Z 004045a0 f   krnln_static:krnl2.obj
 0001:000037b0       ?CtlColor@CSpin@@IAEPAUHBRUSH__@@PAVCDC@@I@Z 004047b0 f   krnln_static:krnl2.obj
 0001:000037d0       ??_ECBrush@@UAEPAXI@Z      004047d0 f i krnln_static:krnl2.obj
 0001:000037d0       ??_GCBrush@@UAEPAXI@Z      004047d0 f i krnln_static:krnl2.obj
 0001:000037f0       ??_GCFont@@UAEPAXI@Z       004047f0 f i krnln_static:krnl2.obj
 0001:000037f0       ??_ECFont@@UAEPAXI@Z       004047f0 f i krnln_static:krnl2.obj
 0001:00003810       ??1CFont@@UAE@XZ           00404810 f i krnln_static:krnl2.obj
 0001:00003850       ??_ECEdit@@UAEPAXI@Z       00404850 f i krnln_static:krnl2.obj
 0001:00003850       ??_GCEdit@@UAEPAXI@Z       00404850 f i krnln_static:krnl2.obj
 0001:00003870       ?OnInit@CUEdit@@QAEJIJ@Z   00404870 f   krnln_static:krnl2.obj
 0001:000038d0       ?OnEraseBkgnd@CUEdit@@QAEHPAVCDC@@@Z 004048d0 f   krnln_static:krnl2.obj
 0001:00003930       ?OnMyNcPaint@CUEdit@@QAEJIJ@Z 00404930 f   krnln_static:krnl2.obj
 0001:00003a40       ?OnNcHitTest@CUEdit@@QAEIVCPoint@@@Z 00404a40 f   krnln_static:krnl2.obj
 0001:00003aa0       ?OnNcCalcSize@CUEdit@@QAEXHPAUtagNCCALCSIZE_PARAMS@@@Z 00404aa0 f   krnln_static:krnl2.obj
 0001:00003b80       ?OnDestroy@CUEdit@@QAEXXZ  00404b80 f   krnln_static:krnl2.obj
 0001:00003ba0       ?OnGetDSWnd@CUEdit@@QAEJIJ@Z 00404ba0 f   krnln_static:krnl2.obj
 0001:00003bd0       ?SetDataSourceUnit@CUEdit@@QAEXXZ 00404bd0 f   krnln_static:krnl2.obj
 0001:00003c10       ?RefrushState@CUEdit@@QAEXXZ 00404c10 f   krnln_static:krnl2.obj
 0001:00003c60       ?RefrushFromDataSource@CUEdit@@QAEXXZ 00404c60 f   krnln_static:krnl2.obj
 0001:00003d30       ?OnChange@CUEdit@@QAEXXZ   00404d30 f   krnln_static:krnl2.obj
 0001:00003d80       ?OnWindowPosChanged@CUEdit@@QAEXPAUtagWINDOWPOS@@@Z 00404d80 f   krnln_static:krnl2.obj
 0001:00003dd0       ?CtlColor@CUEdit@@QAEPAUHBRUSH__@@PAVCDC@@I@Z 00404dd0 f   krnln_static:krnl2.obj
 0001:00003e10       ?OnChar@CUEdit@@QAEXIII@Z  00404e10 f   krnln_static:krnl2.obj
 0001:00003e70       ?GetConvertContext@CUEdit@@QAEHAAVCString@@@Z 00404e70 f   krnln_static:krnl2.obj
 0001:000040f0       ?OnKillfocus@CUEdit@@QAEXXZ 004050f0 f   krnln_static:krnl2.obj
 0001:000041d0       ?OnSetfocus@CUEdit@@QAEXXZ 004051d0 f   krnln_static:krnl2.obj
 0001:00004220       ?OnShowWindow@CUEdit@@QAEXHI@Z 00405220 f   krnln_static:krnl2.obj
 0001:00004260       ?OnSize@CUEdit@@QAEXIHH@Z  00405260 f   krnln_static:krnl2.obj
 0001:00004280       ?OnMove@CUEdit@@QAEXHH@Z   00405280 f   krnln_static:krnl2.obj
 0001:000042a0       ?OnEnable@CUEdit@@QAEXH@Z  004052a0 f   krnln_static:krnl2.obj
 0001:000042d0       ?AdjustSpinPos@CUEdit@@QAEXXZ 004052d0 f   krnln_static:krnl2.obj
 0001:00004390       ?OnCtlColor@CWinFormUnit@@IAEPAUHBRUSH__@@PAVCDC@@PAVCWnd@@I@Z 00405390 f   krnln_static:krnl2.obj
 0001:00004390       ?OnCtlColor@CUTab@@IAEPAUHBRUSH__@@PAVCDC@@PAVCWnd@@I@Z 00405390 f   krnln_static:krnl2.obj
 0001:00004390       ?OnCtlColor@CUPicBox@@IAEPAUHBRUSH__@@PAVCDC@@PAVCWnd@@I@Z 00405390 f   krnln_static:krnl2.obj
 0001:00004390       ?OnCtlColor@CUGroupBox@@IAEPAUHBRUSH__@@PAVCDC@@PAVCWnd@@I@Z 00405390 f   krnln_static:krnl2.obj
 0001:00004390       ?OnCtlColor@CUDrawPanel@@IAEPAUHBRUSH__@@PAVCDC@@PAVCWnd@@I@Z 00405390 f   krnln_static:krnl2.obj
 0001:00004390       ?OnCtlColor@CUShapeBox@@IAEPAUHBRUSH__@@PAVCDC@@PAVCWnd@@I@Z 00405390 f   krnln_static:krnl2.obj
 0001:00004390       ?OnCtlColor@CUErrorControl@@IAEPAUHBRUSH__@@PAVCDC@@PAVCWnd@@I@Z 00405390 f   krnln_static:krnl2.obj
 0001:00004410       ?OnInit2@CUTab@@IAEJIJ@Z   00405410 f   krnln_static:krnl2.obj
 0001:00004420       ?OnPaint@CUTab@@IAEXXZ     00405420 f   krnln_static:krnl2.obj
 0001:00004510       ?GetCurTab@CUTab@@QAEHXZ   00405510 f   krnln_static:krnl2.obj
 0001:00004540       ?OnClick@CUTab@@IAEXPAUtagNMHDR@@PAJ@Z 00405540 f   krnln_static:krnl2.obj
 0001:00004590       ?OnSelchanging@CUTab@@IAEXPAUtagNMHDR@@PAJ@Z 00405590 f   krnln_static:krnl2.obj
 0001:00004610       ?ChkCurChildTab@CUTab@@QAEXXZ 00405610 f   krnln_static:krnl2.obj
 0001:000046c0       ?OnSelchange@CUTab@@IAEXPAUtagNMHDR@@PAJ@Z 004056c0 f   krnln_static:krnl2.obj
 0001:00004750       ?OnInit@CULabel@@IAEJIJ@Z  00405750 f   krnln_static:krnl2.obj
 0001:000047b0       ?OnDllMsg@CULabel@@IAEJIJ@Z 004057b0 f   krnln_static:krnl2.obj
 0001:00004830       ?OnGetDSWnd@CULabel@@IAEJIJ@Z 00405830 f   krnln_static:krnl2.obj
 0001:00004860       ?SetDataSourceUnit@CULabel@@QAEXXZ 00405860 f   krnln_static:krnl2.obj
 0001:00004890       ?RefrushFromDataSource@CULabel@@QAEXXZ 00405890 f   krnln_static:krnl2.obj
 0001:00004950       ?DrawUnitPic@@YAXHPAVCDC@@PAUPIC_INFO@@ABVCRect@@2PAVCRgn@@@Z 00405950 f   krnln_static:krnl2.obj
 0001:00004ca0       ??_GCRgn@@UAEPAXI@Z        00405ca0 f i krnln_static:krnl2.obj
 0001:00004ca0       ??_ECRgn@@UAEPAXI@Z        00405ca0 f i krnln_static:krnl2.obj
 0001:00004cc0       ??1CRgn@@UAE@XZ            00405cc0 f i krnln_static:krnl2.obj
 0001:00004d00       ?OnPaint@CULabel@@IAEXXZ   00405d00 f   krnln_static:krnl2.obj
 0001:00005300       ??1CPicWnd@@UAE@XZ         00406300 f i krnln_static:krnl2.obj
 0001:000053b0       ??_GCPicWnd@@UAEPAXI@Z     004063b0 f i krnln_static:krnl2.obj
 0001:000053b0       ??_ECPicWnd@@UAEPAXI@Z     004063b0 f i krnln_static:krnl2.obj
 0001:000053d0       ?OnInit@CUPicBox@@IAEJIJ@Z 004063d0 f   krnln_static:krnl2.obj
 0001:00005430       ?OnDestroy@CUPicBox@@IAEXXZ 00406430 f   krnln_static:krnl2.obj
 0001:00005450       ?OnGetDSWnd@CUPicBox@@IAEJIJ@Z 00406450 f   krnln_static:krnl2.obj
 0001:00005480       ?SetDataSourceUnit@CUPicBox@@QAEXXZ 00406480 f   krnln_static:krnl2.obj
 0001:000054b0       ?RefrushFromDataSource@CUPicBox@@QAEXXZ 004064b0 f   krnln_static:krnl2.obj
 0001:000055e0       ?OnPaint@CUShapeBox@@IAEXXZ 004065e0 f   krnln_static:krnl2.obj
 0001:00005ad0       ??_GCPen@@UAEPAXI@Z        00406ad0 f i krnln_static:krnl2.obj
 0001:00005ad0       ??_ECPen@@UAEPAXI@Z        00406ad0 f i krnln_static:krnl2.obj
 0001:00005af0       ??1CPen@@UAE@XZ            00406af0 f i krnln_static:krnl2.obj
 0001:00005b30       ??_ECButton@@UAEPAXI@Z     00406b30 f i krnln_static:krnl2.obj
 0001:00005b30       ??_GCButton@@UAEPAXI@Z     00406b30 f i krnln_static:krnl2.obj
 0001:00005b50       ?CtlColor@CUGroupBox@@IAEPAUHBRUSH__@@PAVCDC@@I@Z 00406b50 f   krnln_static:krnl2.obj
 0001:00005b90       ?OnEraseBkgnd@CUGroupBox@@IAEHPAVCDC@@@Z 00406b90 f   krnln_static:krnl2.obj
 0001:00005be0       ?init@CPIButton@@UAEXXZ    00406be0 f   krnln_static:krnl2.obj
 0001:00005c20       ?Serialize@CPIButton@@UAEHAAVCArchive@@@Z 00406c20 f   krnln_static:krnl2.obj
 0001:00005e30       ?Create_Button@@YGKPAEHKPAUHWND__@@IPAUHMENU__@@HHHHKK1H@Z 00406e30 f   krnln_static:krnl2.obj
 0001:00006090       ?NotifyPropertyChanged_Button@@YGHKHPATUNIT_PROPERTY_VALUE@@PAPAD@Z 00407090 f   krnln_static:krnl2.obj
 0001:00006240       ?GetPropertyData_Button@@YGHKHPATUNIT_PROPERTY_VALUE@@@Z 00407240 f   krnln_static:krnl2.obj
 0001:00006320       ?IsDefaultBtn_Button@@YGHK@Z 00407320 f   krnln_static:krnl2.obj
 0001:00006340       ?LangCnvButton@@YGPAXPAEPAHP6GXPADKH@ZH@Z 00407340 f   krnln_static:krnl2.obj
 0001:00006430       ??1CPIButton@@QAE@XZ       00407430 f i krnln_static:krnl2.obj
 0001:000064a0       _krnln_GetInterface_Button@4 004074a0 f   krnln_static:krnl2.obj
 0001:00006500       ??0CUButton@@QAE@XZ        00407500 f   krnln_static:krnl2.obj
 0001:00006580       ??_ECUButton@@UAEPAXI@Z    00407580 f i krnln_static:krnl2.obj
 0001:00006580       ??_GCUButton@@UAEPAXI@Z    00407580 f i krnln_static:krnl2.obj
 0001:000065a0       ??1CUButton@@UAE@XZ        004075a0 f   krnln_static:krnl2.obj
 0001:000066a0       ?GetMessageMap@CUButton@@MBEPBUAFX_MSGMAP@@XZ 004076a0 f   krnln_static:krnl2.obj
 0001:000066b0       ?OnClicked@CUButton@@IAEXXZ 004076b0 f   krnln_static:krnl2.obj
 0001:000066f0       ?PostNcDestroy@CUButton@@MAEXXZ 004076f0 f   krnln_static:krnl2.obj
 0001:00006720       ?OnKillFocus@CUButton@@IAEXPAVCWnd@@@Z 00407720 f   krnln_static:krnl2.obj
 0001:00006770       ?OnSetFocus@CUButton@@IAEXPAVCWnd@@@Z 00407770 f   krnln_static:krnl2.obj
 0001:000067c0       ?HScroll@CUHScrollBar@@IAEXII@Z 004077c0 f   krnln_static:krnl2.obj
 0001:000068c0       ?VScroll@CUVScrollBar@@IAEXII@Z 004078c0 f   krnln_static:krnl2.obj
 0001:000069c0       ?OnKillFocus@CUVScrollBar@@IAEXPAVCWnd@@@Z 004079c0 f   krnln_static:krnl2.obj
 0001:000069c0       ?OnKillFocus@CUHScrollBar@@IAEXPAVCWnd@@@Z 004079c0 f   krnln_static:krnl2.obj
 0001:00006a10       ?OnSetFocus@CUHScrollBar@@IAEXPAVCWnd@@@Z 00407a10 f   krnln_static:krnl2.obj
 0001:00006a10       ?OnSetFocus@CUVScrollBar@@IAEXPAVCWnd@@@Z 00407a10 f   krnln_static:krnl2.obj
 0001:00006a60       ?HScroll@CUSliderBar@@IAEXII@Z 00407a60 f   krnln_static:krnl2.obj
 0001:00006a60       ?VScroll@CUSliderBar@@IAEXII@Z 00407a60 f   krnln_static:krnl2.obj
 0001:00006ac0       ?OnKillFocus@CUSliderBar@@IAEXPAVCWnd@@@Z 00407ac0 f   krnln_static:krnl2.obj
 0001:00006b10       ?OnSetFocus@CUSliderBar@@IAEXPAVCWnd@@@Z 00407b10 f   krnln_static:krnl2.obj
 0001:00006b60       ?OnPaint@CUAnimate@@IAEXXZ 00407b60 f   krnln_static:krnl2.obj
 0001:00006b80       ?OnInit@CUDateTimePicker@@IAEJIJ@Z 00407b80 f   krnln_static:krnl2.obj
 0001:00006be0       ?OnDestroy@CUDateTimePicker@@IAEXXZ 00407be0 f   krnln_static:krnl2.obj
 0001:00006c00       ?OnGetDSWnd@CUDateTimePicker@@IAEJIJ@Z 00407c00 f   krnln_static:krnl2.obj
 0001:00006c30       ?SetDataSourceUnit@CUDateTimePicker@@QAEXXZ 00407c30 f   krnln_static:krnl2.obj
 0001:00006c70       ?RefrushState@CUDateTimePicker@@QAEXXZ 00407c70 f   krnln_static:krnl2.obj
 0001:00006cb0       ?RefrushFromDataSource@CUDateTimePicker@@QAEXXZ 00407cb0 f   krnln_static:krnl2.obj
 0001:00006d90       ?OnMyDateTimeChange@CUDateTimePicker@@IAEJIJ@Z 00407d90 f   krnln_static:krnl2.obj
 0001:00006e20       ?OnDatetimechange@CUDateTimePicker@@IAEXPAUtagNMHDR@@PAJ@Z 00407e20 f   krnln_static:krnl2.obj
 0001:00006e40       ?OnKillfocus@CUDateTimePicker@@IAEXPAUtagNMHDR@@PAJ@Z 00407e40 f   krnln_static:krnl2.obj
 0001:00006ea0       ?OnSetfocus@CUDateTimePicker@@IAEXPAUtagNMHDR@@PAJ@Z 00407ea0 f   krnln_static:krnl2.obj
 0001:00006f00       ?OnSelchange@CUMonthCalCtrl@@IAEXPAUtagNMHDR@@PAJ@Z 00407f00 f   krnln_static:krnl2.obj
 0001:00006f50       ??5CArchive@@QAEAAV0@AAE@Z 00407f50 f i krnln_static:krnl2.obj
 0001:00006f90       ??_ECComboBox@@UAEPAXI@Z   00407f90 f i krnln_static:krnl2.obj
 0001:00006f90       ??_GCComboBox@@UAEPAXI@Z   00407f90 f i krnln_static:krnl2.obj
 0001:00006fb0       ?CtlColor@CUDrvBox@@IAEPAUHBRUSH__@@PAVCDC@@I@Z 00407fb0 f   krnln_static:krnl2.obj
 0001:00006ff0       ?OnKillfocus@CUDrvBox@@IAEXXZ 00407ff0 f   krnln_static:krnl2.obj
 0001:00007030       ?OnSetfocus@CUDrvBox@@IAEXXZ 00408030 f   krnln_static:krnl2.obj
 0001:00007070       ?OnSelendok@CUDrvBox@@IAEXXZ 00408070 f   krnln_static:krnl2.obj
 0001:000070f0       ?OnKillfocus@CUDirTree@@IAEXPAUtagNMHDR@@PAJ@Z 004080f0 f   krnln_static:krnl2.obj
 0001:00007150       ?OnSetfocus@CUDirTree@@IAEXPAUtagNMHDR@@PAJ@Z 00408150 f   krnln_static:krnl2.obj
 0001:000071b0       ?CtlColor@CUDirTree@@IAEPAUHBRUSH__@@PAVCDC@@I@Z 004081b0 f   krnln_static:krnl2.obj
 0001:000071e0       ?AddDirsToTree@CUDirTree@@QAEXPAU_TREEITEM@@@Z 004081e0 f   krnln_static:krnl2.obj
 0001:00007390       ?BuildPathFromTree@CUDirTree@@QAEXPAU_TREEITEM@@@Z 00408390 f   krnln_static:krnl2.obj
 0001:00007500       ?DeleteChildren@CUDirTree@@QAEXPAU_TREEITEM@@@Z 00408500 f   krnln_static:krnl2.obj
 0001:00007580       ?DeletePeers@CUDirTree@@QAEXPAU_TREEITEM@@@Z 00408580 f   krnln_static:krnl2.obj
 0001:00007600       ?OnDblclk@CUDirTree@@IAEXPAUtagNMHDR@@PAJ@Z 00408600 f   krnln_static:krnl2.obj
 0001:000076e0       ?OnKeyDown@CUDirTree@@IAEXIII@Z 004086e0 f   krnln_static:krnl2.obj
 0001:00007700       ?OnKillfocus@CUFileBox@@IAEXXZ 00408700 f   krnln_static:krnl2.obj
 0001:00007750       ?OnSetfocus@CUFileBox@@IAEXXZ 00408750 f   krnln_static:krnl2.obj
 0001:000077a0       ?OnDblclk@CUFileBox@@IAEXXZ 004087a0 f   krnln_static:krnl2.obj
 0001:000077f0       ?CtlColor@CUFileBox@@IAEPAUHBRUSH__@@PAVCDC@@I@Z 004087f0 f   krnln_static:krnl2.obj
 0001:00007840       ?OnSelchange@CUFileBox@@IAEXXZ 00408840 f   krnln_static:krnl2.obj
 0001:00007970       ?OnSelEndOK@CUColorPicker@@IAEJIJ@Z 00408970 f   krnln_static:krnl2.obj
 0001:000079e0       ?OnKillFocus@CUColorPicker@@IAEXPAVCWnd@@@Z 004089e0 f   krnln_static:krnl2.obj
 0001:00007a30       ?OnSetFocus@CUColorPicker@@IAEXPAVCWnd@@@Z 00408a30 f   krnln_static:krnl2.obj
 0001:00007a80       ?OnLButtonDown@CUHyperLinker@@IAEXIVCPoint@@@Z 00408a80 f   krnln_static:krnl2.obj
 0001:00007ab0       ?OnMouseMove@CUHyperLinker@@IAEXIVCPoint@@@Z 00408ab0 f   krnln_static:krnl2.obj
 0001:00007b60       ?GetRegKey@CUHyperLinker@@IAEJPAUHKEY__@@PBDPAD@Z 00408b60 f   krnln_static:krnl2.obj
 0001:00007bd0       ?GotoURL@CUHyperLinker@@QAEHH@Z 00408bd0 f   krnln_static:krnl2.obj
 0001:00007da0       ?OnPaint@CUHyperLinker@@IAEXXZ 00408da0 f   krnln_static:krnl2.obj
 0001:00008010       ?OnDeltapos@CUSpin@@IAEXPAUtagNMHDR@@PAJ@Z 00409010 f   krnln_static:krnl2.obj
 0001:00008080       ?OnTimer@CUTimer@@IAEXI@Z  00409080 f   krnln_static:krnl2.obj
 0001:000080d0       ?OnCreate@CUTimer@@IAEHPAUtagCREATESTRUCTA@@@Z 004090d0 f   krnln_static:krnl2.obj
 0001:00008110       ?OnPaint@CUTimer@@IAEXXZ   00409110 f   krnln_static:krnl2.obj
 0001:00008130       ?OnDestroy@CUTimer@@IAEXXZ 00409130 f   krnln_static:krnl2.obj
 0001:00008160       ?init@CPICommonDlg@@UAEXXZ 00409160 f   krnln_static:krnl2.obj
 0001:000081e0       ?Serialize@CPICommonDlg@@UAEHAAVCArchive@@@Z 004091e0 f   krnln_static:krnl2.obj
 0001:000085f0       ?Create_CommonDlg@@YGKPAEHKPAUHWND__@@IPAUHMENU__@@HHHHKK1H@Z 004095f0 f   krnln_static:krnl2.obj
 0001:00008720       ?NotifyPropertyChanged_CommonDlg@@YGHKHPATUNIT_PROPERTY_VALUE@@PAPAD@Z 00409720 f   krnln_static:krnl2.obj
 0001:00008990       ?GetPropertyData_CommonDlg@@YGHKHPATUNIT_PROPERTY_VALUE@@@Z 00409990 f   krnln_static:krnl2.obj
 0001:00008ba0       ?LangCnvCommonDlg@@YGPAXPAEPAHP6GXPADKH@ZH@Z 00409ba0 f   krnln_static:krnl2.obj
 0001:00008cf0       ??1CPICommonDlg@@QAE@XZ    00409cf0 f i krnln_static:krnl2.obj
 0001:00008d80       _krnln_GetInterface_CommonDlg@4 00409d80 f   krnln_static:krnl2.obj
 0001:00008dd0       ??0CUCommonDlg@@QAE@XZ     00409dd0 f   krnln_static:krnl2.obj
 0001:00008e40       ??_ECUCommonDlg@@UAEPAXI@Z 00409e40 f i krnln_static:krnl2.obj
 0001:00008e40       ??_GCUCommonDlg@@UAEPAXI@Z 00409e40 f i krnln_static:krnl2.obj
 0001:00008e60       ??1CUCommonDlg@@UAE@XZ     00409e60 f   krnln_static:krnl2.obj
 0001:00008f10       ?GetMessageMap@CUCommonDlg@@MBEPBUAFX_MSGMAP@@XZ 00409f10 f   krnln_static:krnl2.obj
 0001:00008f20       ?PostNcDestroy@CUCommonDlg@@MAEXXZ 00409f20 f   krnln_static:krnl2.obj
 0001:00008f50       ?OnPaint@CUCommonDlg@@IAEXXZ 00409f50 f   krnln_static:krnl2.obj
 0001:00008f70       ?DoModel@CUCommonDlg@@QAEHXZ 00409f70 f   krnln_static:krnl2.obj
 0001:00009520       ??1CFileDialog@@UAE@XZ     0040a520 f i krnln_static:krnl2.obj
 0001:00009570       ?OnInit@CUCheckBox@@IAEJIJ@Z 0040a570 f   krnln_static:krnl2.obj
 0001:000095d0       ?OnDestroy@CUCheckBox@@IAEXXZ 0040a5d0 f   krnln_static:krnl2.obj
 0001:000095f0       ?OnGetDSWnd@CUCheckBox@@IAEJIJ@Z 0040a5f0 f   krnln_static:krnl2.obj
 0001:00009620       ?SetDataSourceUnit@CUCheckBox@@QAEXXZ 0040a620 f   krnln_static:krnl2.obj
 0001:00009660       ?RefrushState@CUCheckBox@@QAEXXZ 0040a660 f   krnln_static:krnl2.obj
 0001:000096a0       ?RefrushFromDataSource@CUCheckBox@@QAEXXZ 0040a6a0 f   krnln_static:krnl2.obj
 0001:00009750       ?OnSelchange@CUChkListBox@@IAEXXZ 0040a750 f   krnln_static:krnl2.obj
 0001:00009750       ?OnClicked@CUCheckBox@@IAEXXZ 0040a750 f   krnln_static:krnl2.obj
 0001:00009790       ?OnKillFocus@CUChkListBox@@IAEXPAVCWnd@@@Z 0040a790 f   krnln_static:krnl2.obj
 0001:00009790       ?OnKillFocus@CUCheckBox@@IAEXPAVCWnd@@@Z 0040a790 f   krnln_static:krnl2.obj
 0001:00009790       ?OnKillFocus@CUDrawPanel@@IAEXPAVCWnd@@@Z 0040a790 f   krnln_static:krnl2.obj
 0001:000097e0       ?CtlColor@CUCheckBox@@IAEPAUHBRUSH__@@PAVCDC@@I@Z 0040a7e0 f   krnln_static:krnl2.obj
 0001:00009820       ?OnClicked@CURadio@@IAEXXZ 0040a820 f   krnln_static:krnl2.obj
 0001:00009870       ?OnKillFocus@CURadio@@IAEXPAVCWnd@@@Z 0040a870 f   krnln_static:krnl2.obj
 0001:000098d0       ?OnSetFocus@CURadio@@IAEXPAVCWnd@@@Z 0040a8d0 f   krnln_static:krnl2.obj
 0001:00009930       ?CtlColor@CURadio@@IAEPAUHBRUSH__@@PAVCDC@@I@Z 0040a930 f   krnln_static:krnl2.obj
 0001:00009970       ?OnInit@CUComboBox@@IAEJIJ@Z 0040a970 f   krnln_static:krnl2.obj
 0001:000099d0       ?OnDestroy@CUComboBox@@IAEXXZ 0040a9d0 f   krnln_static:krnl2.obj
 0001:000099f0       ?OnGetDSWnd@CUComboBox@@IAEJIJ@Z 0040a9f0 f   krnln_static:krnl2.obj
 0001:00009a20       ?SetDataSourceUnit@CUComboBox@@QAEXXZ 0040aa20 f   krnln_static:krnl2.obj
 0001:00009a60       ?RefrushState@CUComboBox@@QAEXXZ 0040aa60 f   krnln_static:krnl2.obj
 0001:00009aa0       ?RefrushFromDataSource@CUComboBox@@QAEXXZ 0040aaa0 f   krnln_static:krnl2.obj
 0001:00009ba0       ?OnKillfocus@CUComboBox@@IAEXXZ 0040aba0 f   krnln_static:krnl2.obj
 0001:00009bf0       ?OnSetfocus@CUComboBox@@IAEXXZ 0040abf0 f   krnln_static:krnl2.obj
 0001:00009c40       ?OnCloseup@CUComboBox@@IAEXXZ 0040ac40 f   krnln_static:krnl2.obj
 0001:00009c90       ?OnDropdown@CUComboBox@@IAEXXZ 0040ac90 f   krnln_static:krnl2.obj
 0001:00009ce0       ?OnDblclk@CUComboBox@@IAEXXZ 0040ace0 f   krnln_static:krnl2.obj
 0001:00009d30       ?OnEditchange@CUComboBox@@IAEXXZ 0040ad30 f   krnln_static:krnl2.obj
 0001:00009d80       ?OnSelendok@CUComboBox@@IAEXXZ 0040ad80 f   krnln_static:krnl2.obj
 0001:00009da0       ?OnSelendOkNotify@CUComboBox@@IAEXXZ 0040ada0 f   krnln_static:krnl2.obj
 0001:00009df0       ?CtlColor@CUComboBox@@IAEPAUHBRUSH__@@PAVCDC@@I@Z 0040adf0 f   krnln_static:krnl2.obj
 0001:00009e30       ?OnEraseBkgnd@CUComboBox@@IAEHPAVCDC@@@Z 0040ae30 f   krnln_static:krnl2.obj
 0001:00009e90       ?OnInit@CUListBox@@IAEJIJ@Z 0040ae90 f   krnln_static:krnl2.obj
 0001:00009ef0       ?OnDestroy@CULabel@@IAEXXZ 0040aef0 f   krnln_static:krnl2.obj
 0001:00009ef0       ?OnDestroy@CUListBox@@IAEXXZ 0040aef0 f   krnln_static:krnl2.obj
 0001:00009f10       ?OnGetDSWnd@CUListBox@@IAEJIJ@Z 0040af10 f   krnln_static:krnl2.obj
 0001:00009f40       ?SetDataSourceUnit@CUListBox@@QAEXXZ 0040af40 f   krnln_static:krnl2.obj
 0001:00009f80       ?RefrushState@CUListBox@@QAEXXZ 0040af80 f   krnln_static:krnl2.obj
 0001:00009fc0       ?RefrushFromDataSource@CUListBox@@QAEXXZ 0040afc0 f   krnln_static:krnl2.obj
 0001:0000a090       ?CtlColor@CUListBox@@IAEPAUHBRUSH__@@PAVCDC@@I@Z 0040b090 f   krnln_static:krnl2.obj
 0001:0000a0d0       ?OnSelchange@CUListBox@@IAEXXZ 0040b0d0 f   krnln_static:krnl2.obj
 0001:0000a120       ?OnKillfocus@CUListBox@@IAEXXZ 0040b120 f   krnln_static:krnl2.obj
 0001:0000a170       ?OnSetfocus@CUListBox@@IAEXXZ 0040b170 f   krnln_static:krnl2.obj
 0001:0000a1c0       ?OnDblclk@CUListBox@@IAEXXZ 0040b1c0 f   krnln_static:krnl2.obj
 0001:0000a210       ??_GCBitmap@@UAEPAXI@Z     0040b210 f i krnln_static:krnl2.obj
 0001:0000a210       ??_ECBitmap@@UAEPAXI@Z     0040b210 f i krnln_static:krnl2.obj
 0001:0000a230       ??1CBitmap@@UAE@XZ         0040b230 f i krnln_static:krnl2.obj
 0001:0000a270       ?OnDblclk@CUChkListBox@@IAEXXZ 0040b270 f   krnln_static:krnl2.obj
 0001:0000a2c0       ?SaveCurSel@CUChkListBox@@IAEXXZ 0040b2c0 f   krnln_static:krnl2.obj
 0001:0000a320       ?ProcessOnlyOne@CUChkListBox@@IAEXXZ 0040b320 f   krnln_static:krnl2.obj
 0001:0000a400       ?OnLButtonDown@CUChkListBox@@IAEXIVCPoint@@@Z 0040b400 f   krnln_static:krnl2.obj
 0001:0000a590       ?OnKeyDown@CUChkListBox@@IAEXIII@Z 0040b590 f   krnln_static:krnl2.obj
 0001:0000a720       ?OnLButtonDblClk@CUChkListBox@@IAEXIVCPoint@@@Z 0040b720 f   krnln_static:krnl2.obj
 0001:0000aa50       ?OnSetFocus@CUChkListBox@@IAEXPAVCWnd@@@Z 0040ba50 f   krnln_static:krnl2.obj
 0001:0000aa50       ?OnSetFocus@CUDrawPanel@@IAEXPAVCWnd@@@Z 0040ba50 f   krnln_static:krnl2.obj
 0001:0000aa50       ?OnSetFocus@CUCheckBox@@IAEXPAVCWnd@@@Z 0040ba50 f   krnln_static:krnl2.obj
 0001:0000aaa0       ?ClearPanel@CUDrawPanel@@QAEXPAVCDC@@AAVCRect@@@Z 0040baa0 f   krnln_static:krnl2.obj
 0001:0000ac90       ?OnPaint@CUDrawPanel@@IAEXXZ 0040bc90 f   krnln_static:krnl2.obj
 0001:0000af60       ?OnSize@CUDrawPanel@@IAEXIHH@Z 0040bf60 f   krnln_static:krnl2.obj
 0001:0000af90       ?OnMouseActivate@CUDrawPanel@@IAEHPAVCWnd@@II@Z 0040bf90 f   krnln_static:krnl2.obj
 0001:0000b0a0       ?ReCreateBitmap@CUDrawPanel@@QAEXH@Z 0040c0a0 f   krnln_static:krnl2.obj
 0001:0000b8a0       ?fnCallNewPage@@YAHPAX@Z   0040c8a0 f   krnln_static:krnl2.obj
 0001:0000b9a0       ?fnPrintBeginDraw@@YAHPAXH@Z 0040c9a0 f   krnln_static:krnl2.obj
 0001:0000ba20       ?fnPrintEndDraw@@YAXPAX@Z  0040ca20 f   krnln_static:krnl2.obj
 0001:0000ba30       ?OnGetPrintInfo@CUPrinter@@IAEJIJ@Z 0040ca30 f   krnln_static:krnl2.obj
 0001:0000ba80       ?OnPaint@CUPrinter@@IAEXXZ 0040ca80 f   krnln_static:krnl2.obj
 0001:0000baa0       ?SetPrinterDCMapMode@CUPrinter@@QAEXXZ 0040caa0 f   krnln_static:krnl2.obj
 0001:0000bac0       ?_BeginDraw@CUPrinter@@QAEXH@Z 0040cac0 f   krnln_static:krnl2.obj
 0001:0000bcf0       ?_EndDraw@CUPrinter@@QAEXXZ 0040ccf0 f   krnln_static:krnl2.obj
 0001:0000bd30       ?AbortPrint@CUPrinter@@QAEXXZ 0040cd30 f   krnln_static:krnl2.obj
 0001:0000bdb0       ?OnDestroy@CUPrinter@@IAEXXZ 0040cdb0 f   krnln_static:krnl2.obj
 0001:0000bdd0       ?OnPaint@CUUDPSock@@IAEXXZ 0040cdd0 f   krnln_static:krnl2.obj
 0001:0000bdf0       ?OnPaint@CUClientSock@@IAEXXZ 0040cdf0 f   krnln_static:krnl2.obj
 0001:0000be10       ?OnPaint@CUServerSock@@IAEXXZ 0040ce10 f   krnln_static:krnl2.obj
 0001:0000be30       ?OnPaint@CUSerialPort@@IAEXXZ 0040ce30 f   krnln_static:krnl2.obj
 0001:0000be50       ?OnPaint@CUDataSource@@IAEXXZ 0040ce50 f   krnln_static:krnl2.obj
 0001:0000bf00       ?OnDestroy@CUDataSource@@IAEXXZ 0040cf00 f   krnln_static:krnl2.obj
 0001:0000bfb0       ?SetProviderUnit@CUDataSource@@QAEXXZ 0040cfb0 f   krnln_static:krnl2.obj
 0001:0000bfd0       ?OnInit@CUDataSource@@IAEJIJ@Z 0040cfd0 f   krnln_static:krnl2.obj
 0001:0000c0c0       ?OnGetColCount@CUDataSource@@IAEJIJ@Z 0040d0c0 f   krnln_static:krnl2.obj
 0001:0000c0d0       ?OnGetColName@CUDataSource@@IAEJIJ@Z 0040d0d0 f   krnln_static:krnl2.obj
 0001:0000c170       ?OnInit@CUProvider@@IAEJIJ@Z 0040d170 f   krnln_static:krnl2.obj
 0001:0000c1a0       ?OnPaint@CUProvider@@IAEXXZ 0040d1a0 f   krnln_static:krnl2.obj
 0001:0000c1c0       ?OnKillFocus@CUGrid@@IAEXPAVCWnd@@@Z 0040d1c0 f   krnln_static:krnl2.obj
 0001:0000c210       ?OnSetFocus@CUGrid@@IAEXPAVCWnd@@@Z 0040d210 f   krnln_static:krnl2.obj
 0001:0000c260       ?OnInit@CUGrid@@IAEJIJ@Z   0040d260 f   krnln_static:krnl2.obj
 0001:0000c2c0       ?OnDestroy@CUGrid@@IAEXXZ  0040d2c0 f   krnln_static:krnl2.obj
 0001:0000c2e0       ?SetDataSourceUnit@CUGrid@@QAEXXZ 0040d2e0 f   krnln_static:krnl2.obj
 0001:0000c310       ?OnPaint@CUGrid@@IAEXXZ    0040d310 f   krnln_static:krnl2.obj
 0001:0000c440       ?OnInit@CUBaseProvider@@IAEJIJ@Z 0040d440 f   krnln_static:krnl2.obj
 0001:0000c560       ?OnDestroy@CUBaseProvider@@IAEXXZ 0040d560 f   krnln_static:krnl2.obj
 0001:0000c590       ?OnPaint@CUDBProvider@@IAEXXZ 0040d590 f   krnln_static:krnl2.obj
 0001:0000c5b0       ?OnPaint@CUODBCDB@@IAEXXZ  0040d5b0 f   krnln_static:krnl2.obj
 0001:0000c5d0       ?OnPaint@CUODBCProvider@@IAEXXZ 0040d5d0 f   krnln_static:krnl2.obj
 0001:0000c5f0       ?OnGetODBCTalbesName@CUODBCProvider@@IAEJIJ@Z 0040d5f0 f   krnln_static:krnl2.obj
 0001:0000c640       ?OnGetODBCConnectStr@CUODBCProvider@@IAEJIJ@Z 0040d640 f   krnln_static:krnl2.obj
 0001:0000c6d0       ?OnDrawItem@CWinFormUnit@@IAEXHPAUtagDRAWITEMSTRUCT@@@Z 0040d6d0 f   krnln_static:krnl2.obj
 0001:0000c6d0       ?OnDrawItem@CUErrorControl@@IAEXHPAUtagDRAWITEMSTRUCT@@@Z 0040d6d0 f   krnln_static:krnl2.obj
 0001:0000c6d0       ?OnDrawItem@CUGroupBox@@IAEXHPAUtagDRAWITEMSTRUCT@@@Z 0040d6d0 f   krnln_static:krnl2.obj
 0001:0000c6d0       ?OnDrawItem@CUDrawPanel@@IAEXHPAUtagDRAWITEMSTRUCT@@@Z 0040d6d0 f   krnln_static:krnl2.obj
 0001:0000c6d0       ?OnDrawItem@CUTab@@IAEXHPAUtagDRAWITEMSTRUCT@@@Z 0040d6d0 f   krnln_static:krnl2.obj
 0001:0000c6d0       ?OnDrawItem@CUPicBox@@IAEXHPAUtagDRAWITEMSTRUCT@@@Z 0040d6d0 f   krnln_static:krnl2.obj
 0001:0000c6d0       ?OnDrawItem@CUShapeBox@@IAEXHPAUtagDRAWITEMSTRUCT@@@Z 0040d6d0 f   krnln_static:krnl2.obj
 0001:0000c700       ?OnCompareItem@CUShapeBox@@IAEHHPAUtagCOMPAREITEMSTRUCT@@@Z 0040d700 f   krnln_static:krnl2.obj
 0001:0000c700       ?OnCompareItem@CUTab@@IAEHHPAUtagCOMPAREITEMSTRUCT@@@Z 0040d700 f   krnln_static:krnl2.obj
 0001:0000c700       ?OnCompareItem@CUDrawPanel@@IAEHHPAUtagCOMPAREITEMSTRUCT@@@Z 0040d700 f   krnln_static:krnl2.obj
 0001:0000c700       ?OnCompareItem@CUErrorControl@@IAEHHPAUtagCOMPAREITEMSTRUCT@@@Z 0040d700 f   krnln_static:krnl2.obj
 0001:0000c700       ?OnCompareItem@CUGroupBox@@IAEHHPAUtagCOMPAREITEMSTRUCT@@@Z 0040d700 f   krnln_static:krnl2.obj
 0001:0000c700       ?OnCompareItem@CUPicBox@@IAEHHPAUtagCOMPAREITEMSTRUCT@@@Z 0040d700 f   krnln_static:krnl2.obj
 0001:0000c700       ?OnCompareItem@CWinFormUnit@@IAEHHPAUtagCOMPAREITEMSTRUCT@@@Z 0040d700 f   krnln_static:krnl2.obj
 0001:0000c730       ?OnDeleteItem@CUTab@@IAEXHPAUtagDELETEITEMSTRUCT@@@Z 0040d730 f   krnln_static:krnl2.obj
 0001:0000c730       ?OnDeleteItem@CUShapeBox@@IAEXHPAUtagDELETEITEMSTRUCT@@@Z 0040d730 f   krnln_static:krnl2.obj
 0001:0000c730       ?OnDeleteItem@CUErrorControl@@IAEXHPAUtagDELETEITEMSTRUCT@@@Z 0040d730 f   krnln_static:krnl2.obj
 0001:0000c730       ?OnDeleteItem@CUPicBox@@IAEXHPAUtagDELETEITEMSTRUCT@@@Z 0040d730 f   krnln_static:krnl2.obj
 0001:0000c730       ?OnDeleteItem@CUDrawPanel@@IAEXHPAUtagDELETEITEMSTRUCT@@@Z 0040d730 f   krnln_static:krnl2.obj
 0001:0000c730       ?OnDeleteItem@CUGroupBox@@IAEXHPAUtagDELETEITEMSTRUCT@@@Z 0040d730 f   krnln_static:krnl2.obj
 0001:0000c730       ?OnDeleteItem@CWinFormUnit@@IAEXHPAUtagDELETEITEMSTRUCT@@@Z 0040d730 f   krnln_static:krnl2.obj
 0001:0000c760       ?OnPaint@CUErrorControl@@IAEXXZ 0040d760 f   krnln_static:krnl2.obj
 0001:0000c820       ?GetIDSubType@@YAKK@Z      0040d820 f   krnln_static:krnl2.obj
 0001:0000c830       ?GetIDGroupType@@YAKK@Z    0040d830 f   krnln_static:krnl2.obj
 0001:0000c840       ?GetIDVaule@@YAKK@Z        0040d840 f   krnln_static:krnl2.obj
 0001:0000c850       ?IsValidateID@@YAHK@Z      0040d850 f   krnln_static:krnl2.obj
 0001:0000c880       ?IsNumDataType@@YAHK@Z     0040d880 f   krnln_static:krnl2.obj
 0001:0000c8a0       ?CopyFrom@CIDManger@@QAEXPAV1@@Z 0040d8a0 f   krnln_static:krnl2.obj
 0001:0000c8e0       ?xchg@CIDManger@@QAEXPAV1@@Z 0040d8e0 f   krnln_static:krnl2.obj
 0001:0000c910       ?GetIDData@CIDManger@@QAEPAEHPAH@Z 0040d910 f   krnln_static:krnl2.obj
 0001:0000c960       ?GetID@CIDManger@@QAEKH@Z  0040d960 f   krnln_static:krnl2.obj
 0001:0000c990       ?FindIDData@CIDManger@@QAEPAEKPAH0@Z 0040d990 f   krnln_static:krnl2.obj
 0001:0000ca30       ?_Replace@CIDManger@@QAEXHHHPAEH@Z 0040da30 f   krnln_static:krnl2.obj
 0001:0000cac0       ?AddID@CIDManger@@MAEKPAEHK@Z 0040dac0 f   krnln_static:krnl2.obj
 0001:0000cb50       ?AddSpecID@CIDManger@@QAEXKPAEH@Z 0040db50 f   krnln_static:krnl2.obj
 0001:0000cbc0       ?InsertSpecID@CIDManger@@QAEXHKPAEH@Z 0040dbc0 f   krnln_static:krnl2.obj
 0001:0000ccb0       ?InsertID@CIDManger@@MAEKHPAEHK@Z 0040dcb0 f   krnln_static:krnl2.obj
 0001:0000ccf0       ?Serialize@CIDManger@@UAEXAAVCArchive@@@Z 0040dcf0 f   krnln_static:krnl2.obj
 0001:0000cd80       ?FindIDByData@CIDDWordManger@@QAEKK@Z 0040dd80 f   krnln_static:krnl2.obj
 0001:0000cdd0       ?GetIDData@CIDDWordManger@@QAEHHPAK@Z 0040ddd0 f   krnln_static:krnl2.obj
 0001:0000ce10       ?FindIDData@CIDDWordManger@@QAEHKPAKPAH@Z 0040de10 f   krnln_static:krnl2.obj
 0001:0000ceb0       ?InsertFrom@CIDDWordManger@@QAEXHPAV1@HH@Z 0040deb0 f   krnln_static:krnl2.obj
 0001:0000cf70       ?AppendFrom@CIDDWordManger@@QAEXPAV1@@Z 0040df70 f   krnln_static:krnl2.obj
 0001:0000cf90       ?Serialize@CIDDWordManger@@UAEXAAVCArchive@@@Z 0040df90 f   krnln_static:krnl2.obj
 0001:0000cfc0       ?IsMenuItemID@@YAHK@Z      0040dfc0 f   krnln_static:krnl2.obj
 0001:0000cff0       ?IsMenuItem@CWinUnitIDManger@@QAEHH@Z 0040dff0 f   krnln_static:krnl2.obj
 0001:0000d010       ?GetUnitData@CWinUnitIDManger@@QAEPAEPAEPAH@Z 0040e010 f   krnln_static:krnl2.obj
 0001:0000d090       ?ChkTabVisible@CWinUnitIDManger@@QAEXPAEHH@Z 0040e090 f   krnln_static:krnl2.obj
 0001:0000d3e0       ?GetMenuCount@CWinUnitIDManger@@QAEHPAH@Z 0040e3e0 f   krnln_static:krnl2.obj
 0001:0000d440       ??1CWinUnitIDManger@@UAE@XZ 0040e440 f   krnln_static:krnl2.obj
 0001:0000d580       ??1CIDManger@@UAE@XZ       0040e580 f i krnln_static:krnl2.obj
 0001:0000d5e0       ?init@CIDManger@@UAEXXZ    0040e5e0 f i krnln_static:krnl2.obj
 0001:0000d5f0       ?GetNameStr@CIDManger@@UAEPADPAE@Z 0040e5f0 f i krnln_static:krnl2.obj
 0001:0000d600       ??_ECIDManger@@UAEPAXI@Z   0040e600 f i krnln_static:krnl2.obj
 0001:0000d600       ??_GCIDManger@@UAEPAXI@Z   0040e600 f i krnln_static:krnl2.obj
 0001:0000d620       ?AddID@CWinUnitIDManger@@UAEKPAEHK@Z 0040e620 f i krnln_static:krnl2.obj
 0001:0000d640       ?InsertID@CWinUnitIDManger@@UAEKHPAEHK@Z 0040e640 f i krnln_static:krnl2.obj
 0001:0000d670       ?GetNameStr@CWinUnitIDManger@@UAEPADPAE@Z 0040e670 f i krnln_static:krnl2.obj
 0001:0000d680       ??_GCWinUnitIDManger@@UAEPAXI@Z 0040e680 f i krnln_static:krnl2.obj
 0001:0000d680       ??_ECWinUnitIDManger@@UAEPAXI@Z 0040e680 f i krnln_static:krnl2.obj
 0001:0000d6a0       ?FindUnit@CWinForm@@QAEHPAUHWND__@@H@Z 0040e6a0 f   krnln_static:krnl2.obj
 0001:0000d780       ?Serialize@CWinForm@@QAEXAAVCArchive@@@Z 0040e780 f   krnln_static:krnl2.obj
 0001:0000d860       ?ClearAllRadio@CWinForm@@QAEXPAUHWND__@@@Z 0040e860 f   krnln_static:krnl2.obj
 0001:0000d8f0       ?init@CWinIDManger@@UAEXXZ 0040e8f0 f   krnln_static:krnl2.obj
 0001:0000d940       ??1CWinForm@@QAE@XZ        0040e940 f i krnln_static:krnl2.obj
 0001:0000d9b0       ?Serialize@CWinIDManger@@UAEXAAVCArchive@@@Z 0040e9b0 f   krnln_static:krnl2.obj
 0001:0000daa0       ?GetWnd@CWinIDManger@@QAEPAVCWnd@@H@Z 0040eaa0 f   krnln_static:krnl2.obj
 0001:0000db00       ?CloneTextData@@YAPADPAD@Z 0040eb00 f   krnln_static:krnl2.obj
 0001:0000db50       ?CloneTextData@@YAPADPADH@Z 0040eb50 f   krnln_static:krnl2.obj
 0001:0000db90       ?CloneBinData@@YAPAEPAEH@Z 0040eb90 f   krnln_static:krnl2.obj
 0001:0000dbe0       ?GetMessageMap@CKrnlApp@@MBEPBUAFX_MSGMAP@@XZ 0040ebe0 f   krnln_static:krnl2.obj
 0001:0000dbf0       ?InitInstance@CKrnlApp@@UAEHXZ 0040ebf0 f   krnln_static:krnl2.obj
 0001:0000dc40       ??0CKrnlApp@@QAE@XZ        0040ec40 f   krnln_static:krnl2.obj
 0001:0000df70       ??1CWinIDManger@@UAE@XZ    0040ef70 f i krnln_static:krnl2.obj
 0001:0000dfe0       ??1CIDDWordManger@@UAE@XZ  0040efe0 f i krnln_static:krnl2.obj
 0001:0000e040       ?init@CIDDWordManger@@UAEXXZ 0040f040 f i krnln_static:krnl2.obj
 0001:0000e050       ??_GCIDDWordManger@@UAEPAXI@Z 0040f050 f i krnln_static:krnl2.obj
 0001:0000e050       ??_ECIDDWordManger@@UAEPAXI@Z 0040f050 f i krnln_static:krnl2.obj
 0001:0000e070       ??_GCWinIDManger@@UAEPAXI@Z 0040f070 f i krnln_static:krnl2.obj
 0001:0000e070       ??_ECWinIDManger@@UAEPAXI@Z 0040f070 f i krnln_static:krnl2.obj
 0001:0000e090       ??1CDllFunc@@UAE@XZ        0040f090 f i krnln_static:krnl2.obj
 0001:0000e0b0       ??_GCDllFunc@@UAEPAXI@Z    0040f0b0 f i krnln_static:krnl2.obj
 0001:0000e0b0       ??_ECDllFunc@@UAEPAXI@Z    0040f0b0 f i krnln_static:krnl2.obj
 0001:0000e0e0       ??_GCSysHideWnd@@UAEPAXI@Z 0040f0e0 f i krnln_static:krnl2.obj
 0001:0000e0e0       ??_ECSysHideWnd@@UAEPAXI@Z 0040f0e0 f i krnln_static:krnl2.obj
 0001:0000e100       ??1CSysHideWnd@@UAE@XZ     0040f100 f i krnln_static:krnl2.obj
 0001:0000e110       ??_GCKrnlApp@@UAEPAXI@Z    0040f110 f i krnln_static:krnl2.obj
 0001:0000e110       ??_ECKrnlApp@@UAEPAXI@Z    0040f110 f i krnln_static:krnl2.obj
 0001:0000e130       ??1CKrnlApp@@UAE@XZ        0040f130 f   krnln_static:krnl2.obj
 0001:0000e480       ?ExitInstance@CKrnlApp@@UAEHXZ 0040f480 f   krnln_static:krnl2.obj
 0001:0000e4a0       ?IsEWin@CKrnlApp@@IAEHPAUHWND__@@@Z 0040f4a0 f   krnln_static:krnl2.obj
 0001:0000e550       ?Notify@CKrnlApp@@QAEHHKK@Z 0040f550 f   krnln_static:krnl2.obj
 0001:0000f2f0       ?ShowSpecWindow@CKrnlApp@@QAEXKH@Z 004102f0 f   krnln_static:krnl2.obj
 0001:0000f4b0       ?InitManyMusicPlay@CKrnlApp@@QAEXXZ 004104b0 f   krnln_static:krnl2.obj
 0001:0000f4f0       ?CloseAllFile@CKrnlApp@@QAEXXZ 004104f0 f   krnln_static:krnl2.obj
 0001:0000f5f0       ?PlayMusic@CKrnlApp@@QAEHPAEHH@Z 004105f0 f   krnln_static:krnl2.obj
 0001:0000f6a0       ?ShowFormWindow@CKrnlApp@@QAEXKPAVCWinForm@@H@Z 004106a0 f   krnln_static:krnl2.obj
 0001:0000f7b0       _CreateWin@20              004107b0 f   krnln_static:krnl2.obj
 0001:000103e0       ?OnIdle@CKrnlApp@@UAEHJ@Z  004113e0 f   krnln_static:krnl2.obj
 0001:00010530       ?IsHaveVaildateWinForm@CKrnlApp@@QAEHXZ 00411530 f   krnln_static:krnl2.obj
 0001:000105b0       ?LoadBeginWin@CKrnlApp@@QAEXK@Z 004115b0 f   krnln_static:krnl2.obj
 0001:00010600       ?RegisterIdleCallBack@CKrnlApp@@QAEXPAUHWND__@@P6AXPAX@Z1@Z 00411600 f   krnln_static:krnl2.obj
 0001:00010680       ?UnregisterIdleCallBack@CKrnlApp@@QAEXPAUHWND__@@@Z 00411680 f   krnln_static:krnl2.obj
 0001:000106f0       ?UnregisterAllIdleCallBack@CKrnlApp@@QAEXXZ 004116f0 f   krnln_static:krnl2.obj
 0001:00010720       ?MessageLoop@CKrnlApp@@QAEXH@Z 00411720 f   krnln_static:krnl2.obj
 0001:00010860       ?DoEvents@CKrnlApp@@QAEXXZ 00411860 f   krnln_static:krnl2.obj
 0001:000108b0       ?AllocID@CKrnlApp@@QAEKXZ  004118b0 f   krnln_static:krnl2.obj
 0001:000108c0       ?ReCreateUnit@CKrnlApp@@QAEXKPAVCWinForm@@H@Z 004118c0 f   krnln_static:krnl2.obj
 0001:00010c40       ?SetUnitLayout@CKrnlApp@@QAEXPAVCWinForm@@H@Z 00411c40 f   krnln_static:krnl2.obj
 0001:00010cf0       ?FindAboveLayoutUnitIndex@CKrnlApp@@QAEHPAVCWinForm@@H@Z 00411cf0 f   krnln_static:krnl2.obj
 0001:00010d80       ?FreeNextCallDllCmdInf@CKrnlApp@@QAEXXZ 00411d80 f   krnln_static:krnl2.obj
 0001:00010da0       ?GetDllCmdAdr@CKrnlApp@@QAEP6GHXZH@Z 00411da0 f   krnln_static:krnl2.obj
 0001:00011140       ?ReportAllocMemError@@YAXH@Z 00412140 f   krnln_static:krnl2.obj
 0001:00011170       ?ReportError@CKrnlApp@@QAEXPBDH@Z 00412170 f   krnln_static:krnl2.obj
 0001:000112b0       ?GetLibDataTypeInfo@CKrnlApp@@QAEPAULIB_DATA_TYPE_INFO@@KPAPAULIB_INFO@@@Z 004122b0 f   krnln_static:krnl2.obj
 0001:00011330       ?krnl_MAFindClose@@YAXPAX@Z 00412330 f   krnln_static:krnl2.obj
 0001:00011340       ?krnl_MADir@@YAPADPADHHPAPAX@Z 00412340 f   krnln_static:krnl2.obj
 0001:00011450       ?krnl_MACopyConstAry@@YAXHPAPAX@Z 00412450 f   krnln_static:krnl2.obj
 0001:000114b0       ?krnl_MAReadPackedObjectProperty@@YAXKPAXHH@Z 004124b0 f   krnln_static:krnl2.obj
 0001:000114d0       ?krnl_MAWritePackedObjectProperty@@YAXKPAXHHKK@Z 004124d0 f   krnln_static:krnl2.obj
 0001:00011500       ?mystrtok@@YAPADPADDPAPAD@Z 00412500 f   krnln_static:krnl2.obj
 0001:00011540       ?RegOcx@CKrnlApp@@QAEHPBD0H@Z 00412540 f   krnln_static:krnl2.obj
 0001:00011910       ?GetDefaultIcon@CKrnlApp@@QAEXPAPAUHICON__@@0@Z 00412910 f   krnln_static:krnl2.obj
 0001:00011960       ?free@CKrnlApp@@QAEXH@Z    00412960 f   krnln_static:krnl2.obj
 0001:00011cf0       ?PreTranslateMessage@CKrnlApp@@UAEHPAUtagMSG@@@Z 00412cf0 f   krnln_static:krnl2.obj
 0001:00011d90       ?NotifySys@@YGHHKK@Z       00412d90 f   krnln_static:krnl2.obj
 0001:00011dc0       ?ProcessNotifySys@@YGHHKK@Z 00412dc0 f   krnln_static:krnl2.obj
 0001:00011de0       _krnl_ProcessNotifyLib@12  00412de0 f   krnln_static:krnl2.obj
 0001:00011ef0       ?ReadProperty@CKrnlApp@@QAE_JKKHH@Z 00412ef0 f   krnln_static:krnl2.obj
 0001:00012370       ?ReadPackedObjectProperty@CKrnlApp@@QAE_JKPAXHH@Z 00413370 f   krnln_static:krnl2.obj
 0001:000123e0       ?WritePackedObjectProperty@CKrnlApp@@QAEXKPAXHHKK@Z 004133e0 f   krnln_static:krnl2.obj
 0001:00012810       ?ProcessReadPropertyValue@CKrnlApp@@QAEXPAUUNIT_PROPERTY@@HAATUNIT_PROPERTY_VALUE@@PAK@Z 00413810 f   krnln_static:krnl2.obj
 0001:00012b70       ?BeginProcessEvent@CKrnlApp@@IAEKKKHH@Z 00413b70 f   krnln_static:krnl2.obj
 0001:00012d30       ?RefrushMenu@CKrnlApp@@IAEXPAVCWinForm@@@Z 00413d30 f   krnln_static:krnl2.obj
 0001:00012e30       ?WriteProperty@CKrnlApp@@QAEXKKHHKK@Z 00413e30 f   krnln_static:krnl2.obj
 0001:00013b60       ?ConvertNumToInt@CKrnlApp@@IAEHPAUMDATA_INF@@@Z 00414b60 f   krnln_static:krnl2.obj
 0001:00013bd0       ?StopPlayMP3@CKrnlApp@@QAEXXZ 00414bd0 f   krnln_static:krnl2.obj
 0001:00013c10       ?StopPlay@CKrnlApp@@QAEXH@Z 00414c10 f   krnln_static:krnl2.obj
 0001:00013c30       ?IsConstPtr@CKrnlApp@@QAEPAEPAX@Z 00414c30 f   krnln_static:krnl2.obj
 0001:00013c80       ?GetMessageMap@CSysHideWnd@@MBEPBUAFX_MSGMAP@@XZ 00414c80 f   krnln_static:krnl2.obj
 0001:00013c90       ?OnAppQuit@CSysHideWnd@@QAEJIJ@Z 00414c90 f   krnln_static:krnl2.obj
 0001:00013cb0       ?SetSize@?$CMArray@PAVCProcessor@@@@QAEXHH@Z 00414cb0 f i krnln_static:krnl2.obj
 0001:00013cb0       ?SetSize@?$CMArray@H@@QAEXHH@Z 00414cb0 f i krnln_static:krnl2.obj
 0001:00013db0       ?init@CPIWinForm@@UAEXXZ   00414db0 f   krnln_static:Winform.obj
 0001:00013e40       ?Serialize@CPIWinForm@@UAEHAAVCArchive@@@Z 00414e40 f   krnln_static:Winform.obj
 0001:00014360       ?StopPlay@@YAXPAVCWinFormUnit@@@Z 00415360 f   krnln_static:Winform.obj
 0001:000143d0       ?PlayMusic@@YAXPAVCWinFormUnit@@@Z 004153d0 f   krnln_static:Winform.obj
 0001:00014490       ?SetNewIcon@@YAXPAVCWinFormUnit@@@Z 00415490 f   krnln_static:Winform.obj
 0001:000145b0       ?MyRegisterWndClass@@YAPADPAD@Z 004155b0 f   krnln_static:Winform.obj
 0001:00014650       ?Create_Win@@YGKPAEHKPAUHWND__@@IPAUHMENU__@@HHHHKK1H@Z 00415650 f   krnln_static:Winform.obj
 0001:00014a00       ?SetWinBoxType@CWinFormUnit@@QAEXXZ 00415a00 f   krnln_static:Winform.obj
 0001:00014a70       ?NotifyPropertyChanged_Win@@YGHKHPATUNIT_PROPERTY_VALUE@@PAPAD@Z 00415a70 f   krnln_static:Winform.obj
 0001:00015140       ?GetPropertyData_Win@@YGHKHPATUNIT_PROPERTY_VALUE@@@Z 00416140 f   krnln_static:Winform.obj
 0001:00015450       ?GetAllPropertyData_Win@@YGPAXK@Z 00416450 f   krnln_static:Winform.obj
 0001:00015450       ?GetAllPropertyData_Button@@YGPAXK@Z 00416450 f   krnln_static:Winform.obj
 0001:00015450       ?GetAllPropertyData_CommonDlg@@YGPAXK@Z 00416450 f   krnln_static:Winform.obj
 0001:00015470       ?GetIconPropertyData_Win@@YGPAXPAEH@Z 00416470 f   krnln_static:Winform.obj
 0001:000156f0       ??1CPIWinForm@@QAE@XZ      004166f0 f i krnln_static:Winform.obj
 0001:00015790       ?LangCnvWinForm@@YGPAXPAEPAHP6GXPADKH@ZH@Z 00416790 f   krnln_static:Winform.obj
 0001:00015920       _krnln_GetInterface_window@4 00416920 f   krnln_static:Winform.obj
 0001:00015980       ?CreateObject@CWinFormUnit@@SGPAVCObject@@XZ 00416980 f   krnln_static:Winform.obj
 0001:000159e0       ?GetRuntimeClass@CWinFormUnit@@UBEPAUCRuntimeClass@@XZ 004169e0 f   krnln_static:Winform.obj
 0001:000159f0       ??0CWinFormUnit@@QAE@XZ    004169f0 f   krnln_static:Winform.obj
 0001:00015b30       ??_ECWinFormUnit@@UAEPAXI@Z 00416b30 f i krnln_static:Winform.obj
 0001:00015b30       ??_GCWinFormUnit@@UAEPAXI@Z 00416b30 f i krnln_static:Winform.obj
 0001:00015b50       ??1CWinFormUnit@@UAE@XZ    00416b50 f   krnln_static:Winform.obj
 0001:00015cc0       ?GetMessageMap@CWinFormUnit@@MBEPBUAFX_MSGMAP@@XZ 00416cc0 f   krnln_static:Winform.obj
 0001:00015cd0       ?OnNotify@CWinFormUnit@@MAEHIJPAJ@Z 00416cd0 f   krnln_static:Winform.obj
 0001:00015cf0       ?OnHScroll@CUDrawPanel@@IAEXIIPAVCScrollBar@@@Z 00416cf0 f   krnln_static:Winform.obj
 0001:00015cf0       ?OnVScroll@CUErrorControl@@IAEXIIPAVCScrollBar@@@Z 00416cf0 f   krnln_static:Winform.obj
 0001:00015cf0       ?OnVScroll@CUDrawPanel@@IAEXIIPAVCScrollBar@@@Z 00416cf0 f   krnln_static:Winform.obj
 0001:00015cf0       ?OnVScroll@CUTab@@IAEXIIPAVCScrollBar@@@Z 00416cf0 f   krnln_static:Winform.obj
 0001:00015cf0       ?OnVScroll@CUPicBox@@IAEXIIPAVCScrollBar@@@Z 00416cf0 f   krnln_static:Winform.obj
 0001:00015cf0       ?OnHScroll@CUErrorControl@@IAEXIIPAVCScrollBar@@@Z 00416cf0 f   krnln_static:Winform.obj
 0001:00015cf0       ?OnHScroll@CUTab@@IAEXIIPAVCScrollBar@@@Z 00416cf0 f   krnln_static:Winform.obj
 0001:00015cf0       ?OnVScroll@CUShapeBox@@IAEXIIPAVCScrollBar@@@Z 00416cf0 f   krnln_static:Winform.obj
 0001:00015cf0       ?OnVScroll@CWinFormUnit@@IAEXIIPAVCScrollBar@@@Z 00416cf0 f   krnln_static:Winform.obj
 0001:00015cf0       ?OnVScroll@CUGroupBox@@IAEXIIPAVCScrollBar@@@Z 00416cf0 f   krnln_static:Winform.obj
 0001:00015cf0       ?OnHScroll@CUPicBox@@IAEXIIPAVCScrollBar@@@Z 00416cf0 f   krnln_static:Winform.obj
 0001:00015cf0       ?OnHScroll@CUShapeBox@@IAEXIIPAVCScrollBar@@@Z 00416cf0 f   krnln_static:Winform.obj
 0001:00015cf0       ?OnHScroll@CUGroupBox@@IAEXIIPAVCScrollBar@@@Z 00416cf0 f   krnln_static:Winform.obj
 0001:00015cf0       ?OnHScroll@CWinFormUnit@@IAEXIIPAVCScrollBar@@@Z 00416cf0 f   krnln_static:Winform.obj
 0001:00015d10       ?OnNcActivate@CWinFormUnit@@IAEHH@Z 00416d10 f   krnln_static:Winform.obj
 0001:00015d50       ?OnShowWindow@CWinFormUnit@@IAEXHI@Z 00416d50 f   krnln_static:Winform.obj
 0001:00015db0       ?OnDestroyThis@CWinFormUnit@@QAEXIJ@Z 00416db0 f   krnln_static:Winform.obj
 0001:00015de0       ?OnIconOper@CWinFormUnit@@IAEXIJ@Z 00416de0 f   krnln_static:Winform.obj
 0001:00015e60       ?SetTrayIcon@CWinFormUnit@@QAEXPAUHICON__@@PAD@Z 00416e60 f   krnln_static:Winform.obj
 0001:00015f30       ?SetWindowShape@CWinFormUnit@@QAEXXZ 00416f30 f   krnln_static:Winform.obj
 0001:00016210       ?PreCreateWindow@CWinFormUnit@@MAEHAAUtagCREATESTRUCTA@@@Z 00417210 f   krnln_static:Winform.obj
 0001:00016220       ?PostNcDestroy@CWinFormUnit@@MAEXXZ 00417220 f   krnln_static:Winform.obj
 0001:00016310       ?OnPaint@CWinFormUnit@@IAEXXZ 00417310 f   krnln_static:Winform.obj
 0001:00016800       ?OnCommand@CWinFormUnit@@MAEHIJ@Z 00417800 f   krnln_static:Winform.obj
 0001:000168e0       ?OnCmdMsg@CWinFormUnit@@MAEHIHPAXPAUAFX_CMDHANDLERINFO@@@Z 004178e0 f   krnln_static:Winform.obj
 0001:00016900       ?OnInitMenuPopup@CWinFormUnit@@IAEXPAVCMenu@@IH@Z 00417900 f   krnln_static:Winform.obj
 0001:00016910       ?OnQueryEndSession@CWinFormUnit@@IAEHXZ 00417910 f   krnln_static:Winform.obj
 0001:000169c0       ?ExitDlgMode@CWinFormUnit@@QAEXXZ 004179c0 f   krnln_static:Winform.obj
 0001:00016a30       ?OnClose@CWinFormUnit@@IAEXXZ 00417a30 f   krnln_static:Winform.obj
 0001:00016ad0       ?OnDestroy@CWinFormUnit@@IAEXXZ 00417ad0 f   krnln_static:Winform.obj
 0001:00016c00       ?AskCurFocusUnitIsNeedThisKey@CWinFormUnit@@IAEHG@Z 00417c00 f   krnln_static:Winform.obj
 0001:00016ce0       ?GetOCXWndObject@CWinFormUnit@@IAEPAUIUnknown@@PAVCWnd@@@Z 00417ce0 f   krnln_static:Winform.obj
 0001:00016dd0       ?AskCurFocusOleControlCharMsg@CWinFormUnit@@IAEHPAUtagMSG@@@Z 00417dd0 f   krnln_static:Winform.obj
 0001:00016f00       ?SkipRadio@CWinFormUnit@@IAEHPAUHWND__@@H@Z 00417f00 f   krnln_static:Winform.obj
 0001:00016fb0       ?SkipFocus@CWinFormUnit@@IAEXPAUHWND__@@HH0@Z 00417fb0 f   krnln_static:Winform.obj
 0001:000174e0       ?OnSetFocus@CWinFormUnit@@IAEXPAVCWnd@@@Z 004184e0 f   krnln_static:Winform.obj
 0001:00017700       ?OnKillFocus@CWinFormUnit@@IAEXPAVCWnd@@@Z 00418700 f   krnln_static:Winform.obj
 0001:00017750       ?OnActivate@CWinFormUnit@@IAEXIPAVCWnd@@H@Z 00418750 f   krnln_static:Winform.obj
 0001:000179c0       ?NotifyDefaultButton@CWinFormUnit@@IAEHPAVCWinForm@@H@Z 004189c0 f   krnln_static:Winform.obj
 0001:00017ab0       ?PreTranslateMessage@CWinFormUnit@@UAEHPAUtagMSG@@@Z 00418ab0 f   krnln_static:Winform.obj
 0001:000187b0       ?OnSetCursor@CWinFormUnit@@IAEHPAVCWnd@@II@Z 004197b0 f   krnln_static:Winform.obj
 0001:000187f0       ?SetAllUnitCursor@CWinFormUnit@@IAEHPAUHWND__@@@Z 004197f0 f   krnln_static:Winform.obj
 0001:000188f0       ?OnMove@CWinFormUnit@@IAEXHH@Z 004198f0 f   krnln_static:Winform.obj
 0001:00018940       ?OnRelayoutBar@CWinFormUnit@@IAEJIJ@Z 00419940 f   krnln_static:Winform.obj
 0001:00018960       ?RelayoutBarUnit@CWinFormUnit@@QAEXXZ 00419960 f   krnln_static:Winform.obj
 0001:00018bb0       ?OnSize@CWinFormUnit@@IAEXIHH@Z 00419bb0 f   krnln_static:Winform.obj
 0001:00018c20       ?IdleProcess@CWinFormUnit@@QAEHH@Z 00419c20 f   krnln_static:Winform.obj
 0001:00018ca0       ?ShowWindowMax@CWinFormUnit@@QAEXXZ 00419ca0 f   krnln_static:Winform.obj
 0001:00018d50       ?InvalidateForm@CWinFormUnit@@QAEXPAVCRect@@@Z 00419d50 f   krnln_static:Winform.obj
 0001:00018e90       ?StopMid@CKrnlApp@@QAEXXZ  00419e90 f   krnln_static:Krnl.obj
 0001:00018f40       ?krnl_InitUserProgram@@YAXXZ 00419f40 f   krnln_static:Krnl.obj
 0001:00018f50       _krnl_MOtherHelp           00419f50 f   krnln_static:Krnl.obj
 0001:00018f60       ?_GetDllCmdAdr@@YAP6GHXZH@Z 00419f60 f   krnln_static:Krnl.obj
 0001:00018f80       _krnl_MCallDllCmd          00419f80 f   krnln_static:Krnl.obj
 0001:00018f90       _krnl_MCallLibCmd          00419f90 f   krnln_static:Krnl.obj
 0001:00018fd0       _krnl_MCallKrnlLibCmd      00419fd0 f   krnln_static:Krnl.obj
 0001:00019010       ?ProcessEvent@CKrnlApp@@IAEHPAUEVENT_NOTIFY@@@Z 0041a010 f   krnln_static:Krnl.obj
 0001:000190c0       ?ProcessEvent@CKrnlApp@@IAEHPAUEVENT_NOTIFY2@@@Z 0041a0c0 f   krnln_static:Krnl.obj
 0001:00019300       _krnl_MReportError         0041a300 f   krnln_static:Krnl.obj
 0001:00019320       _krnl_MReadProperty        0041a320 f   krnln_static:Krnl.obj
 0001:00019340       _krnl_MWriteProperty       0041a340 f   krnln_static:Krnl.obj
 0001:00019370       _krnl_MMessageLoop         0041a370 f   krnln_static:Krnl.obj
 0001:000193a0       _krnl_MLoadBeginWin        0041a3a0 f   krnln_static:Krnl.obj
 0001:000193c0       _krnl_MMallocNoCheck       0041a3c0 f   krnln_static:Krnl.obj
 0001:000193e0       _krnl_MMalloc              0041a3e0 f   krnln_static:Krnl.obj
 0001:00019420       ?krnl_MANotifyFreeFunc@@YAXP6AXXZ@Z 0041a420 f   krnln_static:Krnl.obj
 0001:00019430       _krnl_MExitProcess         0041a430 f   krnln_static:Krnl.obj
 0001:00019450       _krnl_MRealloc             0041a450 f   krnln_static:Krnl.obj
 0001:00019510       _krnl_MFree                0041a510 f   krnln_static:Krnl.obj
 0001:00019540       ?IsFileExist@@YAHPBD@Z     0041a540 f   krnln_static:FUNC.OBJ
 0001:00019580       ?witoa@@YAXHPAD@Z          0041a580 f   krnln_static:FUNC.OBJ
 0001:000195a0       ?tcsrchr@@YAHPADD@Z        0041a5a0 f   krnln_static:FUNC.OBJ
 0001:000195f0       ?ChangeFileExt@@YAXAAVCString@@PBD@Z 0041a5f0 f   krnln_static:FUNC.OBJ
 0001:00019690       ?GetDataTypeType@@YAHK@Z   0041a690 f   krnln_static:FUNC.OBJ
 0001:000196c0       ?GetKey@@YAGPAUtagMSG@@@Z  0041a6c0 f   krnln_static:FUNC.OBJ
 0001:000196f0       ?ProcessKeyMsg@@YAGPAUtagMSG@@@Z 0041a6f0 f   krnln_static:FUNC.OBJ
 0001:00019790       ?ChkDateTime@@YAXAAH00000@Z 0041a790 f   krnln_static:FUNC.OBJ
 0001:000198b0       ?IsWavData@@YAHPAEH@Z      0041a8b0 f   krnln_static:FUNC.OBJ
 0001:00019930       ?FloatToDouble@@YANM@Z     0041a930 f   krnln_static:FUNC.OBJ
 0001:00019a40       ?ftoa@@YAXMPAD@Z           0041aa40 f   krnln_static:FUNC.OBJ
 0001:00019ad0       ?dtoa@@YAXNPAD@Z           0041aad0 f   krnln_static:FUNC.OBJ
 0001:00019b60       ?SetOleDateTime@@YAXAAVCOleDateTime@@N@Z 0041ab60 f   krnln_static:FUNC.OBJ
 0001:00019bf0       ?GetDateTimeStr@@YAXNPAD@Z 0041abf0 f   krnln_static:FUNC.OBJ
 0001:00019d10       ?CCStrToEg@@YAXPADAAVCFreqMem@@H@Z 0041ad10 f   krnln_static:FUNC.OBJ
 0001:00019db0       ?StrToDateTime@@YAHPADPAN@Z 0041adb0 f   krnln_static:FUNC.OBJ
 0001:0001a160       ?GetFontPoint@@YAHPAUtagLOGFONTA@@@Z 0041b160 f   krnln_static:FUNC.OBJ
 0001:0001a1b0       ?AddInt@@YAXPAHHHH@Z       0041b1b0 f   krnln_static:FUNC.OBJ
 0001:0001a1f0       ?CCToEg@@YADG@Z            0041b1f0 f   krnln_static:FUNC.OBJ
 0001:0001a230       ?AddInt@@YAXPAHHH@Z        0041b230 f   krnln_static:FUNC.OBJ
 0001:0001a270       ?FindSmallOrEqvInt@@YAHPAHHH@Z 0041b270 f   krnln_static:FUNC.OBJ
 0001:0001a2b0       ?BoolToStr@@YAXHPAD@Z      0041b2b0 f   krnln_static:FUNC.OBJ
 0001:0001a2f0       ?AddComboStrings@@YAXPAVCComboBox@@PAD@Z 0041b2f0 f   krnln_static:FUNC.OBJ
 0001:0001a340       ?FormatText@@YA?AVCString@@PADZZ 0041b340 f   krnln_static:FUNC.OBJ
 0001:0001a3c0       ?GetWinCursorType@@YAHH@Z  0041b3c0 f   krnln_static:FUNC.OBJ
 0001:0001a3e0       ?CreateIconFromData@@YAPAUHICON__@@PAEHH@Z 0041b3e0 f   krnln_static:FUNC.OBJ
 0001:0001a4d0       ?CenterPaintBmpRes@@YAXPAVCWnd@@I@Z 0041b4d0 f   krnln_static:FUNC.OBJ
 0001:0001a760       ??0CGdiObject@@QAE@XZ      0041b760 f i krnln_static:FUNC.OBJ
 0001:0001a770       ?DPToPT@@YAHH@Z            0041b770 f   krnln_static:FUNC.OBJ
 0001:0001a7c0       ?PTToDP@@YAHH@Z            0041b7c0 f   krnln_static:FUNC.OBJ
 0001:0001a800       ?ShowErrorMsg@@YAXPBD@Z    0041b800 f   krnln_static:FUNC.OBJ
 0001:0001a820       ?GetWinCursorTypeIndex@@YAHH@Z 0041b820 f   krnln_static:FUNC.OBJ
 0001:0001a850       ?CreateMyCursor@@YAPAUHICON__@@PAEH@Z 0041b850 f   krnln_static:FUNC.OBJ
 0001:0001a910       ?SetUnit@@YAXPAVCDC@@H@Z   0041b910 f   krnln_static:FUNC.OBJ
 0001:0001aa20       ?LoadTwoIcon@@YAXPAUHINSTANCE__@@PBDPAPAUHICON__@@2@Z 0041ba20 f   krnln_static:FUNC.OBJ
 0001:0001aa60       ?IsShareError@@YAHPAVCFileException@@@Z 0041ba60 f   krnln_static:FUNC.OBJ
 0001:0001aa80       ?wait@@YAXXZ               0041ba80 f   krnln_static:FUNC.OBJ
 0001:0001aaa0       ?GetInstancePath@@YAXPAUHINSTANCE__@@AAVCString@@@Z 0041baa0 f   krnln_static:FUNC.OBJ
 0001:0001ab00       ?SetFontPoint@@YAXPAUtagLOGFONTA@@H@Z 0041bb00 f   krnln_static:FUNC.OBJ
 0001:0001ab50       ?MGetStretchMode@@YAHXZ    0041bb50 f   krnln_static:FUNC.OBJ
 0001:0001ab90       ?ConvertNanFangPY@@YAEEEH@Z 0041bb90 f   krnln_static:PY.OBJ
 0001:0001ac40       ??0CCryptFile@@QAE@PBDH@Z  0041bc40 f   krnln_static:CryptFile.obj
 0001:0001aca0       ?SetPassword@CCryptFile@@QAEXPBDH@Z 0041bca0 f   krnln_static:CryptFile.obj
 0001:0001ad60       ?Read@CCryptFile@@UAEIPAXI@Z 0041bd60 f   krnln_static:CryptFile.obj
 0001:0001adc0       ?Write@CCryptFile@@UAEXPBXI@Z 0041bdc0 f   krnln_static:CryptFile.obj
 0001:0001aea0       ?prepare_key@@YAXPAEHPAUrc4_key@@@Z 0041bea0 f   krnln_static:CryptFile.obj
 0001:0001af60       ?skip@@YAXHPAUrc4_key@@@Z  0041bf60 f   krnln_static:CryptFile.obj
 0001:0001afd0       ?rc4@@YAXPAEHPAUrc4_key@@@Z 0041bfd0 f   krnln_static:CryptFile.obj
 0001:0001b050       ?CallRC4@CCryptFile@@IAEXHPAEHH@Z 0041c050 f   krnln_static:CryptFile.obj
 0001:0001b250       ?NewGetMD5@CCryptFile@@SAXPAEIPAD@Z 0041c250 f   krnln_static:CryptFile.obj
 0001:0001b2a0       ?OnChar@CInputEdit@@IAEXIII@Z 0041c2a0 f   krnln_static:DLG.OBJ
 0001:0001b2f0       ?PreClose@CPrintStatusDlg@@QAEXXZ 0041c2f0 f   krnln_static:DLG.OBJ
 0001:0001b350       ?OnClose@CPrintStatusDlg@@IAEXXZ 0041c350 f   krnln_static:DLG.OBJ
 0001:0001b370       ?OnLButtonDown@CInputPanel@@IAEXIVCPoint@@@Z 0041c370 f   krnln_static:DLG.OBJ
 0001:0001b3c0       ?OnMouseMove@CInputPanel@@IAEXIVCPoint@@@Z 0041c3c0 f   krnln_static:DLG.OBJ
 0001:0001b500       ?OnLButtonUp@CInputPanel@@IAEXIVCPoint@@@Z 0041c500 f   krnln_static:DLG.OBJ
 0001:0001b530       ?OnDestroy@CBrowDlg@@IAEXXZ 0041c530 f   krnln_static:DLG.OBJ
 0001:0001b5d0       ?SetFocusMark@CBrowDlg@@QAEXPAVCWnd@@H@Z 0041c5d0 f   krnln_static:DLG.OBJ
 0001:0001b610       ?ShowControl@CBrowDlg@@QAEXPAVCWnd@@@Z 0041c610 f   krnln_static:DLG.OBJ
 0001:0001b800       ?SetCaption@CBrowDlg@@IAEXXZ 0041c800 f   krnln_static:DLG.OBJ
 0001:0001b960       ?WriteCurRecord@CBrowDlg@@IAEHXZ 0041c960 f   krnln_static:DLG.OBJ
 0001:0001c1f0       ?ProcessButton@CBrowDlg@@QAEXH@Z 0041d1f0 f   krnln_static:DLG.OBJ
 0001:0001c420       ??1CModiMemoBin@@UAE@XZ    0041d420 f i krnln_static:DLG.OBJ
 0001:0001c4b0       ??_ECStatic@@UAEPAXI@Z     0041d4b0 f i krnln_static:DLG.OBJ
 0001:0001c4b0       ??_GCStatic@@UAEPAXI@Z     0041d4b0 f i krnln_static:DLG.OBJ
 0001:0001c4d0       ?OnSetfocus@CFieldEdit@@IAEXXZ 0041d4d0 f   krnln_static:DLG.OBJ
 0001:0001c4f0       ?OnKillfocus@CFieldEdit@@IAEXXZ 0041d4f0 f   krnln_static:DLG.OBJ
 0001:0001c810       ?OnChar@CFieldEdit@@IAEXIII@Z 0041d810 f   krnln_static:DLG.OBJ
 0001:0001c860       ?OnSetFocus@CFieldBtn@@IAEXPAVCWnd@@@Z 0041d860 f   krnln_static:DLG.OBJ
 0001:0001c880       ?OnKillFocus@CFieldBtn@@IAEXPAVCWnd@@@Z 0041d880 f   krnln_static:DLG.OBJ
 0001:0001c8a0       ?OnClicked@CFieldBtn@@IAEXXZ 0041d8a0 f   krnln_static:DLG.OBJ
 0001:0001c900       ?OnPaint@CFieldLabel@@IAEXXZ 0041d900 f   krnln_static:DLG.OBJ
 0001:0001c9b0       ??0CModiMemoBin@@QAE@PAVCWnd@@@Z 0041d9b0 f   krnln_static:DLG.OBJ
 0001:0001ca70       ??_GCModiMemoBin@@UAEPAXI@Z 0041da70 f i krnln_static:DLG.OBJ
 0001:0001ca70       ??_ECModiMemoBin@@UAEPAXI@Z 0041da70 f i krnln_static:DLG.OBJ
 0001:0001ca90       ?DoDataExchange@CModiMemoBin@@MAEXPAVCDataExchange@@@Z 0041da90 f   krnln_static:DLG.OBJ
 0001:0001cad0       ?GetMessageMap@CModiMemoBin@@MBEPBUAFX_MSGMAP@@XZ 0041dad0 f   krnln_static:DLG.OBJ
 0001:0001cae0       ?ShowData@CModiMemoBin@@IAEXXZ 0041dae0 f   krnln_static:DLG.OBJ
 0001:0001cd60       ?OnInitDialog@CModiMemoBin@@MAEHXZ 0041dd60 f   krnln_static:DLG.OBJ
 0001:0001d110       ?InOrOut@CModiMemoBin@@IAEXH@Z 0041e110 f   krnln_static:DLG.OBJ
 0001:0001d360       ?OnIn@CModiMemoBin@@IAEXXZ 0041e360 f   krnln_static:DLG.OBJ
 0001:0001d370       ?OnOut@CModiMemoBin@@IAEXXZ 0041e370 f   krnln_static:DLG.OBJ
 0001:0001d380       ?OnPlaySound@CModiMemoBin@@IAEXXZ 0041e380 f   krnln_static:DLG.OBJ
 0001:0001d430       ?OnStopPlayCurSound@CModiMemoBin@@IAEXXZ 0041e430 f   krnln_static:DLG.OBJ
 0001:0001d4a0       ?OnClear@CModiMemoBin@@IAEXXZ 0041e4a0 f   krnln_static:DLG.OBJ
 0001:0001d500       ?SaveCurMemoData@CModiMemoBin@@IAEXXZ 0041e500 f   krnln_static:DLG.OBJ
 0001:0001d590       ?OnOK@CModiMemoBin@@MAEXXZ 0041e590 f   krnln_static:DLG.OBJ
 0001:0001d5b0       ?NewCreateSpecMenu@@YAPAUHMENU__@@PAEHKHPAPAUHACCEL__@@H@Z 0041e5b0 f   krnln_static:MENU.OBJ
 0001:0001d750       ?GetQuickKeyName@@YAPADH@Z 0041e750 f   krnln_static:MENU.OBJ
 0001:0001d770       ?InsertMenuA@@YAPAUHMENU__@@PAU1@AAPAEAAHHPAVCMyDWordArray@@H@Z 0041e770 f   krnln_static:MENU.OBJ
 0001:0001dbe0       ?DDBToDIB@@YAPAXAAVCBitmap@@KPAVCPalette@@@Z 0041ebe0 f   krnln_static:Savebmp.obj
 0001:0001de20       ?WriteDIB@@YAHAAVCFreqMem@@PAX@Z 0041ee20 f   krnln_static:Savebmp.obj
 0001:0001df20       ?WriteBitmap@@YAHAAVCBitmap@@AAVCFreqMem@@HH@Z 0041ef20 f   krnln_static:Savebmp.obj
 0001:0001e280       ??_ECPalette@@UAEPAXI@Z    0041f280 f i krnln_static:Savebmp.obj
 0001:0001e280       ??_GCPalette@@UAEPAXI@Z    0041f280 f i krnln_static:Savebmp.obj
 0001:0001e2a0       ??1CPalette@@UAE@XZ        0041f2a0 f i krnln_static:Savebmp.obj
 0001:0001e2e0       ?GetBitmapData@@YAPAXPAUHBITMAP__@@@Z 0041f2e0 f   krnln_static:Savebmp.obj
 0001:0001e430       ??0CJBPic@@QAE@XZ          0041f430 f   krnln_static:JBPIC.OBJ
 0001:0001e4d0       ?init@CJBPic@@QAEXXZ       0041f4d0 f   krnln_static:JBPIC.OBJ
 0001:0001e4f0       ?Serialize@CJBPic@@UAEXAAVCArchive@@@Z 0041f4f0 f   krnln_static:JBPIC.OBJ
 0001:0001e8d0       ?Create@CJBPic@@QAEHHUtagSIZE@@PAKHPAUtagRECT@@@Z 0041f8d0 f   krnln_static:JBPIC.OBJ
 0001:0001ef70       ?GetColor@CJBPic@@IAEXHHPAE00@Z 0041ff70 f   krnln_static:JBPIC.OBJ
 0001:0001f0f0       ?CreateBitmap@CJBPic@@QAEPAUHBITMAP__@@PAVCDC@@@Z 004200f0 f   krnln_static:JBPIC.OBJ
 0001:0001f180       ?draw@CJBPic@@QAEHPAVCDC@@HHK@Z 00420180 f   krnln_static:JBPIC.OBJ
 0001:0001f2c0       ?FillRect@CJBPic@@QAEHPAVCDC@@PBVCRect@@1HPAKHK@Z 004202c0 f   krnln_static:JBPIC.OBJ
 0001:0001f4f0       ?DrawRect@CJBPic@@QAEHPAVCDC@@PBVCRect@@H1ABUtagSIZE@@PAKHHK@Z 004204f0 f   krnln_static:JBPIC.OBJ
 0001:0001fa80       ?Read@CStream@@UAEHPAEH@Z  00420a80 f   krnln_static:Pic.obj
 0001:0001fb20       ?BGRFromRGB@@YAHPAEII@Z    00420b20 f   krnln_static:Pic.obj
 0001:0001fb70       ?VertFlipBuf@@YAHPAEII@Z   00420b70 f   krnln_static:Pic.obj
 0001:0001fc80       ?MakeDwordAlignedBuf@@YAPAEPAEIIPAI@Z 00420c80 f   krnln_static:Pic.obj
 0001:0001fd20       _LoadPicFile@4             00420d20 f   krnln_static:Pic.obj
 0001:0001fdc0       _LoadPicData@8             00420dc0 f   krnln_static:Pic.obj
 0001:0001fe90       _BeginDrawPic@12           00420e90 f   krnln_static:Pic.obj
 0001:000200f0       _DrawPic@24                004210f0 f   krnln_static:Pic.obj
 0001:00020450       _EndDrawPic@4              00421450 f   krnln_static:Pic.obj
 0001:00020480       _Draw@24                   00421480 f   krnln_static:Pic.obj
 0001:000204f0       _GetHBitmap@8              004214f0 f   krnln_static:Pic.obj
 0001:000206c0       _LoadJPGFile@4             004216c0 f   krnln_static:Pic.obj
 0001:00020720       ?AllocMem@@YAPAEH@Z        00421720 f   krnln_static:Pic.obj
 0001:00020730       _LoadJPG@4                 00421730 f   krnln_static:Pic.obj
 0001:00020820       ??_GCStream@@UAEPAXI@Z     00421820 f i krnln_static:Pic.obj
 0001:00020820       ??_ECStream@@UAEPAXI@Z     00421820 f i krnln_static:Pic.obj
 0001:00020840       ??1CStream@@UAE@XZ         00421840 f i krnln_static:Pic.obj
 0001:00020850       ?Read@CBaseStream@@UAEHPAEH@Z 00421850 f i krnln_static:Pic.obj
 0001:00020860       ??_ECBaseStream@@UAEPAXI@Z 00421860 f i krnln_static:Pic.obj
 0001:00020860       ??_GCBaseStream@@UAEPAXI@Z 00421860 f i krnln_static:Pic.obj
 0001:00020880       _LoadBMPFile@4             00421880 f   krnln_static:Pic.obj
 0001:000208e0       _LoadPcxFile@4             004218e0 f   krnln_static:Pic.obj
 0001:00020940       _LoadBMP@4                 00421940 f   krnln_static:Pic.obj
 0001:00020a10       _GetPicFileType@4          00421a10 f   krnln_static:Pic.obj
 0001:00020a70       _GetPicDataType@8          00421a70 f   krnln_static:Pic.obj
 0001:00020b60       _GetPicType@4              00421b60 f   krnln_static:Pic.obj
 0001:00020c20       _LoadIcoFile@8             00421c20 f   krnln_static:Pic.obj
 0001:00020c80       _LoadIco@8                 00421c80 f   krnln_static:Pic.obj
 0001:00020ee0       _LoadGifFile@4             00421ee0 f   krnln_static:Pic.obj
 0001:00020f40       _LoadGif@4                 00421f40 f   krnln_static:Pic.obj
 0001:000210e0       _GetFileFilterStr@0        004220e0 f   krnln_static:Pic.obj
 0001:000210f0       ?GetMessageMap@CPicWnd@@MBEPBUAFX_MSGMAP@@XZ 004220f0 f   krnln_static:Pic.obj
 0001:00021100       ?OnPaint@CPicWnd@@IAEXXZ   00422100 f   krnln_static:Pic.obj
 0001:00021360       ?PostNcDestroy@CPicWnd@@MAEXXZ 00422360 f   krnln_static:Pic.obj
 0001:00021390       ?AutoSizeWnd@CPicWnd@@MAEXXZ 00422390 f   krnln_static:Pic.obj
 0001:00021450       ?Empty@CPicWnd@@QAEXXZ     00422450 f   krnln_static:Pic.obj
 0001:000214b0       ?EmptyData@CPicWnd@@QAEXXZ 004224b0 f   krnln_static:Pic.obj
 0001:000214d0       ?PutData@CPicWnd@@QAEHPAEH@Z 004224d0 f   krnln_static:Pic.obj
 0001:000216b0       _LoadPcx@4                 004226b0 f   krnln_static:Pic.obj
 0001:00021780       ?LoadPcxData@@YAPAUPIC_INFO@@PAEH@Z 00422780 f   krnln_static:Pic.obj
 0001:00021a60       ?LoadBWPcx@@YAPAUPIC_INFO@@PAEH@Z 00422a60 f   krnln_static:Pic.obj
 0001:00021c10       ?CreateCursorFromData@@YAPAUHICON__@@PAEK@Z 00422c10 f   krnln_static:Pic.obj
 0001:00021d10       ??0CMIDI@@QAE@XZ           00422d10 f   krnln_static:MIDI.OBJ
 0001:00021db0       ??_ECMIDI@@UAEPAXI@Z       00422db0 f i krnln_static:MIDI.OBJ
 0001:00021db0       ??_GCMIDI@@UAEPAXI@Z       00422db0 f i krnln_static:MIDI.OBJ
 0001:00021dd0       ??1CMIDI@@UAE@XZ           00422dd0 f   krnln_static:MIDI.OBJ
 0001:00021ea0       ?Empty@CMIDI@@QAEXXZ       00422ea0 f   krnln_static:MIDI.OBJ
 0001:00021ed0       ?init@CMIDI@@IAEXXZ        00422ed0 f   krnln_static:MIDI.OBJ
 0001:00021ff0       ?IsMIDIData@CMIDI@@SAHPAEK@Z 00422ff0 f   krnln_static:MIDI.OBJ
 0001:00022010       ?Create@CMIDI@@QAEHPAXKPAVCWnd@@@Z 00423010 f   krnln_static:MIDI.OBJ
 0001:000222d0       ?Play@CMIDI@@QAEHH@Z       004232d0 f   krnln_static:MIDI.OBJ
 0001:00022340       ?Stop@CMIDI@@QAEHH@Z       00423340 f   krnln_static:MIDI.OBJ
 0001:00022450       ?Continue@CMIDI@@QAEHXZ    00423450 f   krnln_static:MIDI.OBJ
 0001:00022490       ?Rewind@CMIDI@@QAEHXZ      00423490 f   krnln_static:MIDI.OBJ
 0001:00022510       ?ConvertToBuffer@CMIDI@@IAEHKPAUCONVERTINFO@@@Z 00423510 f   krnln_static:MIDI.OBJ
 0001:00022750       ?GetTrackEvent@CMIDI@@IAEHPAUTRACK@@PAUTEMPEVENT@@@Z 00423750 f   krnln_static:MIDI.OBJ
 0001:00022a00       ?GetTrackVDWord@CMIDI@@IAEHPAUTRACK@@PAK@Z 00423a00 f   krnln_static:MIDI.OBJ
 0001:00022a50       ?AddEventToStreamBuffer@CMIDI@@IAEHPAUTEMPEVENT@@PAUCONVERTINFO@@@Z 00423a50 f   krnln_static:MIDI.OBJ
 0001:00022ca0       ?StreamBufferSetup@CMIDI@@IAEHXZ 00423ca0 f   krnln_static:MIDI.OBJ
 0001:00022f90       ?FreeBuffers@CMIDI@@IAEXXZ 00423f90 f   krnln_static:MIDI.OBJ
 0001:00023010       ?OnMidiOutDone@CMIDI@@MAEXAAUmidihdr_tag@@@Z 00424010 f   krnln_static:MIDI.OBJ
 0001:000231d0       ?OnMidiOutPositionCB@CMIDI@@MAEXAAUmidihdr_tag@@AAUmidievent_tag@@@Z 004241d0 f   krnln_static:MIDI.OBJ
 0001:000232a0       ?OnMidiOutClose@CMIDI@@MAEXXZ 004242a0 f   krnln_static:MIDI.OBJ
 0001:000232c0       ?MidiProc@CMIDI@@CGXPAUHMIDIOUT__@@IKKK@Z 004242c0 f   krnln_static:MIDI.OBJ
 0001:00023330       ?size@?$vector@UTRACK@@V?$allocator@UTRACK@@@std@@@std@@QBEIXZ 00424330 f i krnln_static:MIDI.OBJ
 0001:00023360       ?insert@?$vector@UTRACK@@V?$allocator@UTRACK@@@std@@@std@@QAEXPAUTRACK@@IABU3@@Z 00424360 f i krnln_static:MIDI.OBJ
 0001:00023660       ?erase@?$vector@UTRACK@@V?$allocator@UTRACK@@@std@@@std@@QAEPAUTRACK@@PAU3@0@Z 00424660 f i krnln_static:MIDI.OBJ
 0001:000236a0       ?insert@?$vector@PAXV?$allocator@PAX@std@@@std@@QAEXPAPAXIABQAX@Z 004246a0 f i krnln_static:MIDI.OBJ
 0001:000236a0       ?insert@?$vector@KV?$allocator@K@std@@@std@@QAEXPAKIABK@Z 004246a0 f i krnln_static:MIDI.OBJ
 0001:000238b0       ?size@?$vector@UCONVERTINFO@@V?$allocator@UCONVERTINFO@@@std@@@std@@QBEIXZ 004248b0 f i krnln_static:MIDI.OBJ
 0001:000238e0       ?insert@?$vector@UCONVERTINFO@@V?$allocator@UCONVERTINFO@@@std@@@std@@QAEXPAUCONVERTINFO@@IABU3@@Z 004248e0 f i krnln_static:MIDI.OBJ
 0001:00023bf0       ?erase@?$vector@UCONVERTINFO@@V?$allocator@UCONVERTINFO@@@std@@@std@@QAEPAUCONVERTINFO@@PAU3@0@Z 00424bf0 f i krnln_static:MIDI.OBJ
 0001:00023c30       ?copy@std@@YAPAUTRACK@@PAU2@00@Z 00424c30 f i krnln_static:MIDI.OBJ
 0001:00023c70       ?copy@std@@YAPAUCONVERTINFO@@PAU2@00@Z 00424c70 f i krnln_static:MIDI.OBJ
 0001:00023cb0       ?SetDllFuncs@CDllFunc@@QAEXP6AHXZP6AP6GHXZPBD@ZP6AXXZ@Z 00424cb0 f   krnln_static:DllFunc.obj
 0001:00023d00       ?GetProc@CDllFunc@@QAEP6GHXZPAD@Z 00424d00 f   krnln_static:DllFunc.obj
 0001:00023d40       ?MCloseSocket@CBaseSockWnd@@IAEXI@Z 00424d40 f   krnln_static:sockwnd.obj
 0001:00023d60       ?OnDataIncoming@CUDPSockWnd@@IAEJIJ@Z 00424d60 f   krnln_static:sockwnd.obj
 0001:00023e40       ?OnDataIncoming@CClientSockWnd@@IAEJIJ@Z 00424e40 f   krnln_static:sockwnd.obj
 0001:00023f80       ?OnAccept@CServerSockWnd@@IAEJIJ@Z 00424f80 f   krnln_static:sockwnd.obj
 0001:000240a0       ?OnDataIncoming@CServerSockWnd@@IAEJIJ@Z 004250a0 f   krnln_static:sockwnd.obj
 0001:00024280       ??0CPing@@QAE@XZ           00425280 f   krnln_static:sockwnd.obj
 0001:000242a0       ??_ECPing@@UAEPAXI@Z       004252a0 f i krnln_static:sockwnd.obj
 0001:000242a0       ??_GCPing@@UAEPAXI@Z       004252a0 f i krnln_static:sockwnd.obj
 0001:000242c0       ??1CPing@@UAE@XZ           004252c0 f   krnln_static:sockwnd.obj
 0001:000242f0       ?ClearEventBuf@CSerial@@IAEXXZ 004252f0 f   krnln_static:Serial.obj
 0001:00024320       ?OnHasEvent@CSerial@@IAEJIJ@Z 00425320 f   krnln_static:Serial.obj
 0001:00024560       ?AddProcessor@CMDataSource@@QAEXPAVCProcessor@@@Z 00425560 f   krnln_static:MDataSrc.obj
 0001:000246b0       ?RemoveProcessor@CMDataSource@@QAEXPAVCProcessor@@@Z 004256b0 f   krnln_static:MDataSrc.obj
 0001:000246f0       ?FindProcessor@CMDataSource@@QAEHPAVCProcessor@@@Z 004256f0 f   krnln_static:MDataSrc.obj
 0001:00024720       ?SetProvider@CMDataSource@@QAEXPAVCProvider@@@Z 00425720 f   krnln_static:MDataSrc.obj
 0001:00024750       ?CheckRowIndex@CMDataSource@@IAEHH@Z 00425750 f   krnln_static:MDataSrc.obj
 0001:00024780       ?CheckColIndex@CMDataSource@@IAEHH@Z 00425780 f   krnln_static:MDataSrc.obj
 0001:000247b0       ?CheckRowColIndex@CMDataSource@@IAEHHH@Z 004257b0 f   krnln_static:MDataSrc.obj
 0001:000247e0       ?CheckRow@CMDataSource@@IAEHHPAH@Z 004257e0 f   krnln_static:MDataSrc.obj
 0001:00024830       ?CheckCol@CMDataSource@@IAEHHPAH@Z 00425830 f   krnln_static:MDataSrc.obj
 0001:00024880       ?CheckRowCol@CMDataSource@@IAEHHPAHH0@Z 00425880 f   krnln_static:MDataSrc.obj
 0001:000248c0       ?SaveChange@CMDataSource@@QAEXXZ 004258c0 f   krnln_static:MDataSrc.obj
 0001:000248f0       ?GetRowCount@CMDataSource@@QAEHXZ 004258f0 f   krnln_static:MDataSrc.obj
 0001:00024900       ?GetRowHeight@CMDataSource@@QAEHH@Z 00425900 f   krnln_static:MDataSrc.obj
 0001:00024930       ?GetColCount@CMDataSource@@QAEHXZ 00425930 f   krnln_static:MDataSrc.obj
 0001:00024940       ?GetColWidth@CMDataSource@@QAEHH@Z 00425940 f   krnln_static:MDataSrc.obj
 0001:00024970       ?GetColName@CMDataSource@@QAEXHAAVCString@@@Z 00425970 f   krnln_static:MDataSrc.obj
 0001:000249b0       ?GetFixedRowCount@CMDataSource@@QAEHXZ 004259b0 f   krnln_static:MDataSrc.obj
 0001:000249c0       ?GetFixedColCount@CMDataSource@@QAEHXZ 004259c0 f   krnln_static:MDataSrc.obj
 0001:000249d0       ?GetCell@CMDataSource@@QAEHPAVCELL@@HHH@Z 004259d0 f   krnln_static:MDataSrc.obj
 0001:00024a10       ?GetState@CMDataSource@@QAEKHH@Z 00425a10 f   krnln_static:MDataSrc.obj
 0001:00024ab0       ?GetShowText@CMDataSource@@QAEXHHAAVCString@@@Z 00425ab0 f   krnln_static:MDataSrc.obj
 0001:00024b40       ?GetText@CMDataSource@@QAEXHHAAVCString@@@Z 00425b40 f   krnln_static:MDataSrc.obj
 0001:00024bd0       ?GetBackground@CELL@@QAEKXZ 00425bd0 f   krnln_static:MDataSrc.obj
 0001:00024bd0       ?GetCaretRowIndex@CMDataSource@@QAEHXZ 00425bd0 f   krnln_static:MDataSrc.obj
 0001:00024be0       ?IsReadOnly@CMDataSource@@QAEHXZ 00425be0 f   krnln_static:MDataSrc.obj
 0001:00024bf0       ?GetProvider@CMDataSource@@QAEPAVCProvider@@XZ 00425bf0 f   krnln_static:MDataSrc.obj
 0001:00024c00       ?SetRowHeight@CMDataSource@@QAEXHHH@Z 00425c00 f   krnln_static:MDataSrc.obj
 0001:00024c50       ?SetColWidth@CMDataSource@@QAEXHHH@Z 00425c50 f   krnln_static:MDataSrc.obj
 0001:00024ca0       ?NotifyCellModified@CMDataSource@@IAEXHHHH@Z 00425ca0 f   krnln_static:MDataSrc.obj
 0001:00024ce0       ?SetText@CMDataSource@@QAEHHHPAD@Z 00425ce0 f   krnln_static:MDataSrc.obj
 0001:00024d30       ?GetCellsData@CMDataSource@@QAEHAAVCFreqMem@@HHHH@Z 00425d30 f   krnln_static:MDataSrc.obj
 0001:00024e10       ?SetCellsData@CMDataSource@@QAEHPAEHHHHPAH11H@Z 00425e10 f   krnln_static:MDataSrc.obj
 0001:00024ed0       ?LoadCellsData@CMDataSource@@QAEHPAVCFile@@HHHPAH11H@Z 00425ed0 f   krnln_static:MDataSrc.obj
 0001:000250c0       ?SaveCellsData@CMDataSource@@QAEHPAVCFile@@HHHH@Z 004260c0 f   krnln_static:MDataSrc.obj
 0001:000251d0       ?GetIndependRect@CMDataSource@@QAEXAAVCRect@@@Z 004261d0 f   krnln_static:MDataSrc.obj
 0001:00025280       ?SetupPrinterInfo@CMDataSource@@QAEHXZ 00426280 f   krnln_static:MDataSrc.obj
 0001:00025770       ??1CPrinterSetup@@UAE@XZ   00426770 f i krnln_static:MDataSrc.obj
 0001:00025940       ?GetPrintInfo@CMDataSource@@QAEPBVCMPrintInfo@@XZ 00426940 f   krnln_static:MDataSrc.obj
 0001:00025950       ?CreatePrinterDC@CMDataSource@@QAEPAUHDC__@@XZ 00426950 f   krnln_static:MDataSrc.obj
 0001:00025d50       ?CalcutePrePage@CMDataSource@@QAEXHHPBVCMPrintInfo@@AAV?$CMArray@UPAGE_PRINT_INFO@@@@@Z 00426d50 f   krnln_static:MDataSrc.obj
 0001:00026170       ?FindColIndex@CMDataSource@@QAEHPAD@Z 00427170 f   krnln_static:MDataSrc.obj
 0001:00026280       ?SetSize@?$CMArray@UPAGE_PRINT_INFO@@@@QAEXHH@Z 00427280 f i krnln_static:MDataSrc.obj
 0001:00026370       ?StrToBOOL@CProvider@@SAHPAD@Z 00427370 f   krnln_static:Provider.obj
 0001:000263b0       ??0CMPrintInfo@@QAE@XZ     004273b0 f   krnln_static:Provider.obj
 0001:00026420       ??1CMPrintInfo@@QAE@XZ     00427420 f   krnln_static:Provider.obj
 0001:00026480       ?init@CMPrintInfo@@QAEXXZ  00427480 f   krnln_static:Provider.obj
 0001:00026500       ?GetPrintScale@CMPrintInfo@@QAEHXZ 00427500 f   krnln_static:Provider.obj
 0001:00026540       ?CopyFrom@CMPrintInfo@@QAEXPBV1@@Z 00427540 f   krnln_static:Provider.obj
 0001:00026600       ??5CArchive@@QAEAAV0@AAG@Z 00427600 f i krnln_static:Provider.obj
 0001:00026640       ??0CELL@@QAE@XZ            00427640 f   krnln_static:Provider.obj
 0001:00026670       ??1CELL@@QAE@XZ            00427670 f   krnln_static:Provider.obj
 0001:00026680       ?FreeData@CELL@@AAEXXZ     00427680 f   krnln_static:Provider.obj
 0001:000266f0       ?GetType@CELL@@QAEHXZ      004276f0 f   krnln_static:Provider.obj
 0001:00026720       ?GetState@CELL@@QAEKXZ     00427720 f   krnln_static:Provider.obj
 0001:00026730       ?GetDataSource@CProcessor@@QAEPAVCMDataSource@@XZ 00427730 f   krnln_static:Provider.obj
 0001:00026730       ?GetForeground@CELL@@QAEKXZ 00427730 f   krnln_static:Provider.obj
 0001:00026740       ?GetFaceName@CELL@@QAEXAAVCString@@@Z 00427740 f   krnln_static:Provider.obj
 0001:00026770       ?GetFontSize@CELL@@QAEHXZ  00427770 f   krnln_static:Provider.obj
 0001:00026780       ?GetExtra@CELL@@QAEHXZ     00427780 f   krnln_static:Provider.obj
 0001:00026790       ?GetPicInf@CELL@@QAEPAUPIC_INFO@@XZ 00427790 f   krnln_static:Provider.obj
 0001:00026820       ?GetShowText@CELL@@QAEXAAVCString@@@Z 00427820 f   krnln_static:Provider.obj
 0001:000268e0       ?GetText@CELL@@QAEXAAVCString@@@Z 004278e0 f   krnln_static:Provider.obj
 0001:00026910       ?GetData@CELL@@QAEPAEPAH@Z 00427910 f   krnln_static:Provider.obj
 0001:00026940       ?SetState@CELL@@QAEXK@Z    00427940 f   krnln_static:Provider.obj
 0001:00026950       ?Serialize@CELL@@QAEXAAVCArchive@@@Z 00427950 f   krnln_static:Provider.obj
 0001:00026bc0       ?GetState@CProvider@@IAEKHH@Z 00427bc0 f   krnln_static:Provider.obj
 0001:00026c60       ?LoadCellsData@CProvider@@IAEXAAVCArchive@@HHHPAH1H@Z 00427c60 f   krnln_static:Provider.obj
 0001:00026e60       ?SaveCellsData@CProvider@@IAEXAAVCArchive@@HHHH@Z 00427e60 f   krnln_static:Provider.obj
 0001:00026f70       ?MInitSize@CNormalProvider@@QAEHHH@Z 00427f70 f   krnln_static:Provider.obj
 0001:00026fc0       ??0CDCRemember@@QAE@PAVCDC@@@Z 00427fc0 f   krnln_static:MGrid.obj
 0001:00026fe0       ??1CDCRemember@@QAE@XZ     00427fe0 f   krnln_static:MGrid.obj
 0001:00026ff0       ?GetRowHeight@CMGrid@@IAEHH@Z 00427ff0 f   krnln_static:MGrid.obj
 0001:000270d0       ?GetColWidth@CMGrid@@IAEHH@Z 004280d0 f   krnln_static:MGrid.obj
 0001:000271b0       ?GetHeaderSize@CMGrid@@IAE?AUtagSIZE@@XZ 004281b0 f   krnln_static:MGrid.obj
 0001:00027290       ?AddCX@CMGrid@@IAEHHH@Z    00428290 f   krnln_static:MGrid.obj
 0001:000273c0       ?AddCY@CMGrid@@IAEHHH@Z    004283c0 f   krnln_static:MGrid.obj
 0001:000274f0       ?GetDrawMode@CMGrid@@QAEHXZ 004284f0 f   krnln_static:MGrid.obj
 0001:00027500       ?SetDrawMode@CMGrid@@QAEXH@Z 00428500 f   krnln_static:MGrid.obj
 0001:00027510       ?CloseEdit@CMGrid@@IAEXH@Z 00428510 f   krnln_static:MGrid.obj
 0001:00027560       ?GetDataSource@CMGrid@@QAEPAVCMDataSource@@XZ 00428560 f   krnln_static:MGrid.obj
 0001:00027570       ?SetDataSource@CMGrid@@QAEXPAVCMDataSource@@@Z 00428570 f   krnln_static:MGrid.obj
 0001:000275b0       ?CreateHeaderFont@CMGrid@@IAEXAAVCFont@@@Z 004285b0 f   krnln_static:MGrid.obj
 0001:00027620       ?OnMouseWheel@CMGrid@@IAEHIFVCPoint@@@Z 00428620 f   krnln_static:MGrid.obj
 0001:00027700       ?IsCaretRowValid@CMGrid@@IAEHH@Z 00428700 f   krnln_static:MGrid.obj
 0001:00027740       ?IsCaretColValid@CMGrid@@IAEHH@Z 00428740 f   krnln_static:MGrid.obj
 0001:00027780       ?IsSelectionValid@CMGrid@@IAEHXZ 00428780 f   krnln_static:MGrid.obj
 0001:000277e0       ?InitScrollBar@CMGrid@@QAEXH@Z 004287e0 f   krnln_static:MGrid.obj
 0001:00027940       ?OnCreate@CMGrid@@IAEHPAUtagCREATESTRUCTA@@@Z 00428940 f   krnln_static:MGrid.obj
 0001:00027980       ?OnPaint@CMGrid@@IAEXXZ    00428980 f   krnln_static:MGrid.obj
 0001:00029010       ?GetHeaderAndFixedSize@CMGrid@@IAE?AUtagSIZE@@XZ 0042a010 f   krnln_static:MGrid.obj
 0001:000290c0       ?DrawSelection@CMGrid@@IAEXXZ 0042a0c0 f   krnln_static:MGrid.obj
 0001:00029300       ?InvalidateCell@CMGrid@@IAEXHH@Z 0042a300 f   krnln_static:MGrid.obj
 0001:00029380       ?GetCellsDPShowRect@CMGrid@@IAE?AUtagRECT@@HHHH@Z 0042a380 f   krnln_static:MGrid.obj
 0001:000294f0       ?SelectTo@CMGrid@@IAEXHHW4REFRUSH_MODE@@@Z 0042a4f0 f   krnln_static:MGrid.obj
 0001:00029750       ?Select@CMGrid@@QAEXHHHH@Z 0042a750 f   krnln_static:MGrid.obj
 0001:00029790       ?SetCaret@CMGrid@@IAEXHHHW4REFRUSH_MODE@@H@Z 0042a790 f   krnln_static:MGrid.obj
 0001:00029960       ?_GetVisibleCells@CMGrid@@IAE?AUtagRECT@@HH@Z 0042a960 f   krnln_static:MGrid.obj
 0001:00029b60       ?ChkCellVisible@CMGrid@@QAEXHHW4REFRUSH_MODE@@@Z 0042ab60 f   krnln_static:MGrid.obj
 0001:00029c10       ?_ChkCellVisible@CMGrid@@IAEXHHAAH0@Z 0042ac10 f   krnln_static:MGrid.obj
 0001:00029f00       ?GetCellShowRect@CMGrid@@IAE?AUtagRECT@@HHHH@Z 0042af00 f   krnln_static:MGrid.obj
 0001:0002a100       ?MCreateFont@CMGrid@@IAEXPAVCELL@@PAVCFont@@H@Z 0042b100 f   krnln_static:MGrid.obj
 0001:0002a270       ?DrawCell@CMGrid@@IAEXPAVCDC@@HHHHKPAVCRect@@1@Z 0042b270 f   krnln_static:MGrid.obj
 0001:0002abb0       ?DrawCellLine@CMGrid@@IAEXPAVCDC@@HHHHAAVCSize@@KK@Z 0042bbb0 f   krnln_static:MGrid.obj
 0001:0002aef0       ?GetCellSize@CMGrid@@IAE?AUtagSIZE@@HH@Z 0042bef0 f   krnln_static:MGrid.obj
 0001:0002af90       ?GetCellAtRect@CMGrid@@IAE?AUtagRECT@@HH@Z 0042bf90 f   krnln_static:MGrid.obj
 0001:0002b160       ?IsIndependCell@CMGrid@@IAEHHH@Z 0042c160 f   krnln_static:MGrid.obj
 0001:0002b190       ?OnHScroll@CMGrid@@IAEXIIPAVCScrollBar@@@Z 0042c190 f   krnln_static:MGrid.obj
 0001:0002b230       ?OnVScroll@CMGrid@@IAEXIIPAVCScrollBar@@@Z 0042c230 f   krnln_static:MGrid.obj
 0001:0002b2d0       ?OnActivate@CMGrid@@IAEXIPAVCWnd@@H@Z 0042c2d0 f   krnln_static:MGrid.obj
 0001:0002b2f0       ?FindSpecDPPointCell@CMGrid@@IAEHAAVCPoint@@PAH1@Z 0042c2f0 f   krnln_static:MGrid.obj
 0001:0002b4c0       ?OnKeyDown@CMGrid@@IAEXIII@Z 0042c4c0 f   krnln_static:MGrid.obj
 0001:0002b890       ?OnLButtonDown@CMGrid@@IAEXIVCPoint@@@Z 0042c890 f   krnln_static:MGrid.obj
 0001:0002bbe0       ?OnLButtonUp@CMGrid@@IAEXIVCPoint@@@Z 0042cbe0 f   krnln_static:MGrid.obj
 0001:0002bcc0       ?OnMouseMove@CMGrid@@IAEXIVCPoint@@@Z 0042ccc0 f   krnln_static:MGrid.obj
 0001:0002bd20       ?ScrollTo@CMGrid@@IAEXHHW4REFRUSH_MODE@@@Z 0042cd20 f   krnln_static:MGrid.obj
 0001:0002c050       ?OnSetCursor@CMGrid@@IAEHPAVCWnd@@II@Z 0042d050 f   krnln_static:MGrid.obj
 0001:0002c100       ?FindAdjustCell@CMGrid@@IAEXAAVCPoint@@PAH11@Z 0042d100 f   krnln_static:MGrid.obj
 0001:0002c360       ?ResizeRowOrCol@CMGrid@@IAEXAAVCPoint@@HHH@Z 0042d360 f   krnln_static:MGrid.obj
 0001:0002c760       ?DrawResizeLine@CMGrid@@IAEXPAVCDC@@AAVCPoint@@AAVCSize@@HH@Z 0042d760 f   krnln_static:MGrid.obj
 0001:0002c7e0       ?GetCurAllShowSize@CMGrid@@IAE?AUtagSIZE@@XZ 0042d7e0 f   krnln_static:MGrid.obj
 0001:0002c830       ?GetCurGridShowSize@CMGrid@@IAE?AUtagSIZE@@XZ 0042d830 f   krnln_static:MGrid.obj
 0001:0002c960       ?OnEndInPlaceEdit@CMGrid@@IAEXPAUtagNMHDR@@PAJ@Z 0042d960 f   krnln_static:MGrid.obj
 0001:0002caa0       ?OnChar@CMGrid@@IAEXIII@Z  0042daa0 f   krnln_static:MGrid.obj
 0001:0002cc10       ?CopyIntoClipBoard@CMGrid@@QAEXXZ 0042dc10 f   krnln_static:MGrid.obj
 0001:0002cc60       ?CopyIntoClipBoard@CMGrid@@QAEXHHHH@Z 0042dc60 f   krnln_static:MGrid.obj
 0001:0002cd80       ?PasteFromClipBoard@CMGrid@@QAEXH@Z 0042dd80 f   krnln_static:MGrid.obj
 0001:0002cdb0       ?PasteFromClipBoard@CMGrid@@QAEXHHH@Z 0042ddb0 f   krnln_static:MGrid.obj
 0001:0002ceb0       ?edit@CMGrid@@IAEXPAD@Z    0042deb0 f   krnln_static:MGrid.obj
 0001:0002d120       ?OnLButtonDown@CPreviewWnd@@IAEXIVCPoint@@@Z 0042e120 f   krnln_static:MGrid.obj
 0001:0002d120       ?OnRButtonDown@CMGrid@@IAEXIVCPoint@@@Z 0042e120 f   krnln_static:MGrid.obj
 0001:0002d130       ?SelectAll@CMGrid@@QAEXW4REFRUSH_MODE@@@Z 0042e130 f   krnln_static:MGrid.obj
 0001:0002d1c0       ?DrawPageNum@CMGrid@@QAEXPAVCDC@@AAVCRect@@HH@Z 0042e1c0 f   krnln_static:MGrid.obj
 0001:0002d3b0       ?DrawPage@CMGrid@@QAEXPAVCDC@@HHHHH@Z 0042e3b0 f   krnln_static:MGrid.obj
 0001:0002d580       ?DrawRow@CMGrid@@IAEHPAVCDC@@HHHHHH@Z 0042e580 f   krnln_static:MGrid.obj
 0001:0002d690       ?Print@CMGrid@@QAEXPADHPAVCString@@@Z 0042e690 f   krnln_static:MGrid.obj
 0001:0002d790       ??1CMPrintStatusDlg@@UAE@XZ 0042e790 f i krnln_static:MGrid.obj
 0001:0002d840       ?MFreeObj@@YAXPAK@Z        0042e840 f   krnln_static:com.obj
 0001:0002d890       ?GetErrMsg@@YAPBDH@Z       0042e890 f   krnln_static:DBERR.OBJ
 0001:0002d8c0       ?ConvertFileError@@YAHPAVCFileException@@@Z 0042e8c0 f   krnln_static:DBERR.OBJ
 0001:0002d970       ??0CEWorkSpace@@QAE@XZ     0042e970 f   krnln_static:Database.obj
 0001:0002d9a0       ??_ECEWorkSpace@@UAEPAXI@Z 0042e9a0 f i krnln_static:Database.obj
 0001:0002d9a0       ??_GCEWorkSpace@@UAEPAXI@Z 0042e9a0 f i krnln_static:Database.obj
 0001:0002d9c0       ??1CEWorkSpace@@UAE@XZ     0042e9c0 f   krnln_static:Database.obj
 0001:0002da20       ?CloseAll@CEWorkSpace@@QAEXXZ 0042ea20 f   krnln_static:Database.obj
 0001:0002da60       ?IsNeedRetry@CEDatabase@@SAHPAVCFileException@@K@Z 0042ea60 f   krnln_static:DBLOCK.OBJ
 0001:0002daa0       ??_ECFileException@@UAEPAXI@Z 0042eaa0 f i krnln_static:DBLOCK.OBJ
 0001:0002daa0       ??_GCFileException@@UAEPAXI@Z 0042eaa0 f i krnln_static:DBLOCK.OBJ
 0001:0002dac0       ??1CFileException@@UAE@XZ  0042eac0 f i krnln_static:DBLOCK.OBJ
 0001:0002db00       ?RunLock@CEDatabase@@IAEHHH@Z 0042eb00 f   krnln_static:DBLOCK.OBJ
 0001:0002db40       ?RunLockFile@CEDatabase@@IAEHKH@Z 0042eb40 f   krnln_static:DBLOCK.OBJ
 0001:0002dde0       ?_RunLockFile@CEDatabase@@SAHPAVCCryptFile@@KH@Z 0042ede0 f   krnln_static:DBLOCK.OBJ
 0001:0002df40       ?LockOffset@CEDatabase@@SAHPAVCCryptFile@@HPAVCFreqMem@@@Z 0042ef40 f   krnln_static:DBLOCK.OBJ
 0001:0002dfa0       ?UnlockOffset@CEDatabase@@SAHPAVCCryptFile@@HPAVCFreqMem@@@Z 0042efa0 f   krnln_static:DBLOCK.OBJ
 0001:0002e000       ?UnlockRemember@CEDatabase@@SAHPAVCCryptFile@@PAVCFreqMem@@H@Z 0042f000 f   krnln_static:DBLOCK.OBJ
 0001:0002e090       ?ReplaceLock@CEDatabase@@SAHPAVCCryptFile@@HPAVCFreqMem@@@Z 0042f090 f   krnln_static:DBLOCK.OBJ
 0001:0002e100       ??0CDatFile@@QAE@PAVCCryptFile@@@Z 0042f100 f   krnln_static:DATFILE.OBJ
 0001:0002e120       ??_GCDatFile@@UAEPAXI@Z    0042f120 f i krnln_static:DATFILE.OBJ
 0001:0002e120       ??_ECDatFile@@UAEPAXI@Z    0042f120 f i krnln_static:DATFILE.OBJ
 0001:0002e140       ??1CDatFile@@UAE@XZ        0042f140 f   krnln_static:DATFILE.OBJ
 0001:0002e150       ?WriteData@CDatFile@@QAEHPAEHHPAH@Z 0042f150 f   krnln_static:DATFILE.OBJ
 0001:0002e830       ??0CEIndex@@QAE@PAVCCryptFile@@PAUOPENED_INDEX_INF@@@Z 0042f830 f   krnln_static:INDEX.OBJ
 0001:0002e8a0       ??1CEIndex@@QAE@XZ         0042f8a0 f   krnln_static:INDEX.OBJ
 0001:0002e930       ?ChkAndPopupNodeData@CEIndex@@IAEHXZ 0042f930 f   krnln_static:INDEX.OBJ
 0001:0002ea70       ?ReadNode@CEIndex@@IAEHHPAE@Z 0042fa70 f   krnln_static:INDEX.OBJ
 0001:0002ec00       ?WriteNode@CEIndex@@IAEHHPAE@Z 0042fc00 f   krnln_static:INDEX.OBJ
 0001:0002ecc0       ?RemoveNode@CEIndex@@IAEHHPAE@Z 0042fcc0 f   krnln_static:INDEX.OBJ
 0001:0002efd0       ?BeginWork@CEIndex@@QAEHPAUINDEX_HEADER@@@Z 0042ffd0 f   krnln_static:INDEX.OBJ
 0001:0002f130       ?EndWork@CEIndex@@QAEHXZ   00430130 f   krnln_static:INDEX.OBJ
 0001:0002f300       ?FreeNodeChain@CEIndex@@IAEXPAUNODE_INF@@@Z 00430300 f   krnln_static:INDEX.OBJ
 0001:0002f360       ?NewNodeInf@CEIndex@@IAEPAUNODE_INF@@XZ 00430360 f   krnln_static:INDEX.OBJ
 0001:0002f3b0       ?CompareItem@CEIndex@@IAEHPAE0@Z 004303b0 f   krnln_static:INDEX.OBJ
 0001:0002f3d0       ?CompareItem@CEIndex@@SAHPAE0PAUOPENED_INDEX_INF@@@Z 004303d0 f   krnln_static:INDEX.OBJ
 0001:0002f5f0       ?ConvertKeyData@CEIndex@@IAEPAEPAEAAVCFreqMem@@@Z 004305f0 f   krnln_static:INDEX.OBJ
 0001:0002f610       ?ConvertKeyData@CEIndex@@SAPAEPAEAAVCFreqMem@@PAUOPENED_INDEX_INF@@@Z 00430610 f   krnln_static:INDEX.OBJ
 0001:0002f8f0       ?GetItemBegin@CEIndex@@IAEPAEPAEH@Z 004308f0 f   krnln_static:INDEX.OBJ
 0001:0002f910       ?GetItemData@CEIndex@@IAEPAEPAEH@Z 00430910 f   krnln_static:INDEX.OBJ
 0001:0002f930       ?GetLeftInt@CEIndex@@IAEHPAEH@Z 00430930 f   krnln_static:INDEX.OBJ
 0001:0002f950       ?_ReadNodeData@CEIndex@@IAEHHPAEPAPAUNODE_INF@@1@Z 00430950 f   krnln_static:INDEX.OBJ
 0001:0002f9a0       ?GetLastKey@CEIndex@@IAEHPAPAUNODE_INF@@0HPAE@Z 004309a0 f   krnln_static:INDEX.OBJ
 0001:0002fad0       ?GetNextKey@CEIndex@@IAEHPAPAUNODE_INF@@0PAE@Z 00430ad0 f   krnln_static:INDEX.OBJ
 0001:0002fc50       ?InsertItemIntoSpecTreeNode@CEIndex@@IAEHHHPAUSPLIT_INF@@PAE@Z 00430c50 f   krnln_static:INDEX.OBJ
 0001:0002fd90       ?InsertItemIntoSpecLeafNode@CEIndex@@IAEHHHPAEH0@Z 00430d90 f   krnln_static:INDEX.OBJ
 0001:0002fec0       ?NewNode@CEIndex@@IAEHPAHPAE@Z 00430ec0 f   krnln_static:INDEX.OBJ
 0001:0002ff20       ?SplitLeafNode@CEIndex@@IAEHPAUSPLIT_INF@@PAEH1H1@Z 00430f20 f   krnln_static:INDEX.OBJ
 0001:00030080       ?SplitTreeNode@CEIndex@@IAEHPAUSPLIT_INF@@H0PAE1@Z 00431080 f   krnln_static:INDEX.OBJ
 0001:00030210       ?_FindIndexItem@CEIndex@@IAEHPAEPAHPAPAUNODE_INF@@20@Z 00431210 f   krnln_static:INDEX.OBJ
 0001:000303c0       ?_AddIndexItem@CEIndex@@IAEHPAEHPAPAUNODE_INF@@1@Z 004313c0 f   krnln_static:INDEX.OBJ
 0001:000307b0       ?UpdateLeafNodeParentKey@CEIndex@@IAEHPAUNODE_INF@@PAE@Z 004317b0 f   krnln_static:INDEX.OBJ
 0001:000308f0       ?DeleteItemFromLeafNode@CEIndex@@IAEHPAUNODE_INF@@PAE@Z 004318f0 f   krnln_static:INDEX.OBJ
 0001:00030a80       ?DeleteItemFromTreeNode@CEIndex@@IAEHPAUNODE_INF@@PAE11@Z 00431a80 f   krnln_static:INDEX.OBJ
 0001:00031240       ?AddIndexItem@CEIndex@@QAEHPAEHH@Z 00432240 f   krnln_static:INDEX.OBJ
 0001:00031300       ?RemoveIndexItem@CEIndex@@QAEHPAEHH@Z 00432300 f   krnln_static:INDEX.OBJ
 0001:00031490       ?ModifyIndexItem@CEIndex@@QAEHPAE0H@Z 00432490 f   krnln_static:INDEX.OBJ
 0001:000315e0       ?OnLButtonDown@CRgnBtn@@IAEXIVCPoint@@@Z 004325e0 f   krnln_static:RgnBtn.obj
 0001:00031650       ?OnLButtonUp@CRgnBtn@@IAEXIVCPoint@@@Z 00432650 f   krnln_static:RgnBtn.obj
 0001:000316e0       ?SetPressState@CRgnBtn@@QAEXH@Z 004326e0 f   krnln_static:RgnBtn.obj
 0001:00031700       ?OnMouseMove@CRgnBtn@@IAEXIVCPoint@@@Z 00432700 f   krnln_static:RgnBtn.obj
 0001:000317e0       ?OnPaint@CRgnBtn@@IAEXXZ   004327e0 f   krnln_static:RgnBtn.obj
 0001:000319c0       ?GetHBitmap@CRgnBtn@@IAEPAUHBITMAP__@@XZ 004329c0 f   krnln_static:RgnBtn.obj
 0001:00031a20       ?draw@CRgnBtn@@IAEXH@Z     00432a20 f   krnln_static:RgnBtn.obj
 0001:00031a50       ?OnEnable@CRgnBtn@@IAEXH@Z 00432a50 f   krnln_static:RgnBtn.obj
 0001:00031a70       ??0CColourPicker@@QAE@XZ   00432a70 f   krnln_static:Clrpkr.obj
 0001:00031b20       ??_GCColourPicker@@UAEPAXI@Z 00432b20 f i krnln_static:Clrpkr.obj
 0001:00031b20       ??_ECColourPicker@@UAEPAXI@Z 00432b20 f i krnln_static:Clrpkr.obj
 0001:00031b40       ??1CColourPicker@@UAE@XZ   00432b40 f   krnln_static:Clrpkr.obj
 0001:00031ba0       ?CreateObject@CColourPicker@@SGPAVCObject@@XZ 00432ba0 f   krnln_static:Clrpkr.obj
 0001:00031c00       ?GetRuntimeClass@CColourPicker@@UBEPAUCRuntimeClass@@XZ 00432c00 f   krnln_static:Clrpkr.obj
 0001:00031c10       ?GetMessageMap@CColourPicker@@MBEPBUAFX_MSGMAP@@XZ 00432c10 f   krnln_static:Clrpkr.obj
 0001:00031c20       ?OnSelEndOK@CColourPicker@@IAEJIJ@Z 00432c20 f   krnln_static:Clrpkr.obj
 0001:00031cb0       ?OnSelEndCancel@CColourPicker@@IAEJIJ@Z 00432cb0 f   krnln_static:Clrpkr.obj
 0001:00031d30       ?OnSelChange@CColourPicker@@IAEJIJ@Z 00432d30 f   krnln_static:Clrpkr.obj
 0001:00031d80       ?OnCreate@CColourPicker@@IAEHPAUtagCREATESTRUCTA@@@Z 00432d80 f   krnln_static:Clrpkr.obj
 0001:00031da0       ?OnLButtonUp@CColourPicker@@IAEXIVCPoint@@@Z 00432da0 f   krnln_static:Clrpkr.obj
 0001:00031e70       ?DrawItem@CColourPicker@@UAEXPAUtagDRAWITEMSTRUCT@@@Z 00432e70 f   krnln_static:Clrpkr.obj
 0001:00032170       ?PreSubclassWindow@CColourPicker@@MAEXXZ 00433170 f   krnln_static:Clrpkr.obj
 0001:00032190       ?GetColour@CColourPicker@@QAEKXZ 00433190 f   krnln_static:Clrpkr.obj
 0001:000321a0       ?SetColour@CColourPicker@@QAEXK@Z 004331a0 f   krnln_static:Clrpkr.obj
 0001:000321c0       ?SetBkColour@CColourPicker@@QAEXK@Z 004331c0 f   krnln_static:Clrpkr.obj
 0001:000321f0       ?SetTextColour@CColourPicker@@QAEXK@Z 004331f0 f   krnln_static:Clrpkr.obj
 0001:00032220       ?SetWindowSize@CColourPicker@@QAEXXZ 00433220 f   krnln_static:Clrpkr.obj
 0001:00032300       ?SetDataSource@CProcessor@@QAEXPAVCMDataSource@@@Z 00433300 f   krnln_static:Processor.obj
 0001:00032330       ?MReflectLastMsg@@YAHPAUHWND__@@PAJ@Z 00433330 f   krnln_static:container.obj
 0001:00032380       ?MProcessNotify@@YAHPAVCWnd@@IJPAJ@Z 00433380 f   krnln_static:container.obj
 0001:00032410       ?ProcessCommand@@YAHPAVCWnd@@IJ@Z 00433410 f   krnln_static:container.obj
 0001:000325b0       ?ProcessDrawItem@@YAHHPAUtagDRAWITEMSTRUCT@@@Z 004335b0 f   krnln_static:container.obj
 0001:00032600       ?ProcesssScroll@@YAHPAVCWnd@@@Z 00433600 f   krnln_static:container.obj
 0001:00032640       ??0CGifWnd@@QAE@XZ         00433640 f   krnln_static:GIFWND.OBJ
 0001:000326c0       ??_ECGifWnd@@UAEPAXI@Z     004336c0 f i krnln_static:GIFWND.OBJ
 0001:000326c0       ??_GCGifWnd@@UAEPAXI@Z     004336c0 f i krnln_static:GIFWND.OBJ
 0001:000326e0       ??1CGifWnd@@UAE@XZ         004336e0 f   krnln_static:GIFWND.OBJ
 0001:00032770       ?EmptyGif@CGifWnd@@QAEXXZ  00433770 f   krnln_static:GIFWND.OBJ
 0001:000327c0       ?init@CGifWnd@@QAEXXZ      004337c0 f   krnln_static:GIFWND.OBJ
 0001:00032840       ?GetMessageMap@CGifWnd@@MBEPBUAFX_MSGMAP@@XZ 00433840 f   krnln_static:GIFWND.OBJ
 0001:00032850       ?OnPaint@CGifWnd@@IAEXXZ   00433850 f   krnln_static:GIFWND.OBJ
 0001:000328b0       ?GetShowPos@CGifWnd@@QAEXAAH000@Z 004338b0 f   krnln_static:GIFWND.OBJ
 0001:00032a40       ?PaintGif@CGifWnd@@QAEXAAVCPaintDC@@@Z 00433a40 f   krnln_static:GIFWND.OBJ
 0001:00032ce0       ?Play@CGifWnd@@QAEXXZ      00433ce0 f   krnln_static:GIFWND.OBJ
 0001:00032d50       ?Stop@CGifWnd@@QAEXXZ      00433d50 f   krnln_static:GIFWND.OBJ
 0001:00032d80       ?ThreadFunc@@YGKPAX@Z      00433d80 f   krnln_static:GIFWND.OBJ
 0001:00032d90       ?Play1@CGifWnd@@QAEHXZ     00433d90 f   krnln_static:GIFWND.OBJ
 0001:00033320       ?load@CGifWnd@@QAEHPAEH@Z  00434320 f   krnln_static:GIFWND.OBJ
 0001:00033550       ?FirstImage@CGifWnd@@QAEPAUHBITMAP__@@XZ 00434550 f   krnln_static:GIFWND.OBJ
 0001:00033570       ?NextImage@CGifWnd@@QAEPAUHBITMAP__@@XZ 00434570 f   krnln_static:GIFWND.OBJ
 0001:00033930       ?TakeIt@CGifWnd@@QAEPAUHBITMAP__@@XZ 00434930 f   krnln_static:GIFWND.OBJ
 0001:00034590       ?PostNcDestroy@CGifWnd@@MAEXXZ 00435590 f   krnln_static:GIFWND.OBJ
 0001:000345b0       ?put_GifData@CGifWnd@@QAEHPAEH@Z 004355b0 f   krnln_static:GIFWND.OBJ
 0001:000345f0       ?put_DrawWay@CGifWnd@@QAEXH@Z 004355f0 f   krnln_static:GIFWND.OBJ
 0001:00034670       ?AutoSizeWnd@CGifWnd@@UAEXXZ 00435670 f   krnln_static:GIFWND.OBJ
 0001:00034710       ?GetByte@CGifWnd@@QAEEXZ   00435710 f i krnln_static:GIFWND.OBJ
 0001:00034800       ?allocateBlocks@@YAPAUwavehdr_tag@@HH@Z 00435800 f   krnln_static:wave.obj
 0001:00034850       ?freeBlocks@@YAXPAUwavehdr_tag@@@Z 00435850 f   krnln_static:wave.obj
 0001:00034870       ?AddInterface@@YAHPAPAUHWAVEOUT__@@PAUtWAVEFORMATEX@@PCHK@Z 00435870 f   krnln_static:wave.obj
 0001:000348b0       ?RemoveInterface@@YAHPAUHWAVEOUT__@@@Z 004358b0 f   krnln_static:wave.obj
 0001:000348d0       ?MyStopPlaySound@@YAXH@Z   004358d0 f   krnln_static:wave.obj
 0001:00034a10       ?MyPlaySound@@YAHPAXHH@Z   00435a10 f   krnln_static:wave.obj
 0001:00035080       ?size@?$vector@PAUGWAVE@@V?$allocator@PAUGWAVE@@@std@@@std@@QBEIXZ 00436080 f i krnln_static:wave.obj
 0001:000350a0       ??1?$vector@UTRACK@@V?$allocator@UTRACK@@@std@@@std@@QAE@XZ 004360a0 f i krnln_static:wave.obj
 0001:000350a0       ??1?$vector@KV?$allocator@K@std@@@std@@QAE@XZ 004360a0 f i krnln_static:wave.obj
 0001:000350a0       ??1?$vector@UCONVERTINFO@@V?$allocator@UCONVERTINFO@@@std@@@std@@QAE@XZ 004360a0 f i krnln_static:wave.obj
 0001:000350a0       ??1?$vector@PAXV?$allocator@PAX@std@@@std@@QAE@XZ 004360a0 f i krnln_static:wave.obj
 0001:000350d0       ?_Destroy@?$vector@PAUGWAVE@@V?$allocator@PAUGWAVE@@@std@@@std@@IAEXPAPAUGWAVE@@0@Z 004360d0 f i krnln_static:wave.obj
 0001:000350d0       ?_Destroy@?$vector@UCONVERTINFO@@V?$allocator@UCONVERTINFO@@@std@@@std@@IAEXPAUCONVERTINFO@@0@Z 004360d0 f i krnln_static:wave.obj
 0001:000350d0       ?_Destroy@?$vector@UTRACK@@V?$allocator@UTRACK@@@std@@@std@@IAEXPAUTRACK@@0@Z 004360d0 f i krnln_static:wave.obj
 0001:000350e0       ?_Ucopy@?$vector@PAUGWAVE@@V?$allocator@PAUGWAVE@@@std@@@std@@IAEPAPAUGWAVE@@PBQAU3@0PAPAU3@@Z 004360e0 f i krnln_static:wave.obj
 0001:00035110       ?_Ufill@?$vector@PAUGWAVE@@V?$allocator@PAUGWAVE@@@std@@@std@@IAEXPAPAUGWAVE@@IABQAU3@@Z 00436110 f i krnln_static:wave.obj
 0001:00035140       ?_Construct@std@@YAXPAPAUGWAVE@@ABQAU2@@Z 00436140 f i krnln_static:wave.obj
 0001:00035160       ?LibInitUserProgram@CKrnlApp@@QAEXXZ 00436160 f   krnln_static:static_lib.obj
 0001:000356b0       ?GetMD5@@YAXPAEIPAD@Z      004366b0 f   krnln_static:md5.obj
 0001:00035710       ??1CMD5Checksum@@UAE@XZ    00436710 f i krnln_static:md5.obj
 0001:00035720       ??_GCMD5Checksum@@UAEPAXI@Z 00436720 f i krnln_static:md5.obj
 0001:00035720       ??_ECMD5Checksum@@UAEPAXI@Z 00436720 f i krnln_static:md5.obj
 0001:00035740       ?ByteToDWord@CMD5Checksum@@QAEXPAKPAEI@Z 00436740 f   krnln_static:md5.obj
 0001:00035790       ?Transform@CMD5Checksum@@QAEXQAE@Z 00436790 f   krnln_static:md5.obj
 0001:00036160       ?II@CMD5Checksum@@QAEXAAKKKKKKK@Z 00437160 f i krnln_static:md5.obj
 0001:000361b0       ??0CMD5Checksum@@QAE@XZ    004371b0 f   krnln_static:md5.obj
 0001:000361f0       ?DWordToByte@CMD5Checksum@@QAEXPAEPAKI@Z 004371f0 f   krnln_static:md5.obj
 0001:00036240       ?Final@CMD5Checksum@@QAEXPAD@Z 00437240 f   krnln_static:md5.obj
 0001:00036330       ?Update@CMD5Checksum@@QAEXPAEK@Z 00437330 f   krnln_static:md5.obj
 0001:000363f0       ?ReadJpeg@@YAPAEPAVCBaseStream@@PAI1P6APAEH@Z@Z 004373f0 f   krnln_static:Jpegfile.obj
 0001:00036410       ?JpegFileToRGB@JpegFile@@SAPAEPAVCBaseStream@@PAI1P6APAEH@Z@Z 00437410 f   krnln_static:Jpegfile.obj
 0001:000365e0       ?j_putRGBScanline@@YAXPAEH0H@Z 004375e0 f   krnln_static:Jpegfile.obj
 0001:00036630       ?j_putGrayScanlineToRGB@@YAXPAEH0H@Z 00437630 f   krnln_static:Jpegfile.obj
 0001:00036670       ?ReadFile@@YAHPAVCFile@@PAEH@Z 00437670 f   krnln_static:BMPFILE.OBJ
 0001:00036710       ?ReadBMP@@YAPAEPAVCFile@@PAI1@Z 00437710 f   krnln_static:BMPFILE.OBJ
 0001:00036c50       ??0CPrinterSetup@@QAE@PAVCWnd@@@Z 00437c50 f   krnln_static:PrinterSetup.obj
 0001:00036ee0       ??_ECPrinterSetup@@UAEPAXI@Z 00437ee0 f i krnln_static:PrinterSetup.obj
 0001:00036ee0       ??_GCPrinterSetup@@UAEPAXI@Z 00437ee0 f i krnln_static:PrinterSetup.obj
 0001:00036f00       ?DoDataExchange@CPrinterSetup@@MAEXPAVCDataExchange@@@Z 00437f00 f   krnln_static:PrinterSetup.obj
 0001:000370b0       ?GetMessageMap@CPrinterSetup@@MBEPBUAFX_MSGMAP@@XZ 004380b0 f   krnln_static:PrinterSetup.obj
 0001:000370c0       ?OnSetupprinter@CPrinterSetup@@IAEXXZ 004380c0 f   krnln_static:PrinterSetup.obj
 0001:00037270       ?OnEnableControl@CPrinterSetup@@IAEXXZ 00438270 f   krnln_static:PrinterSetup.obj
 0001:00037280       ?OnSetPrintIntoFile@CPrinterSetup@@IAEXXZ 00438280 f   krnln_static:PrinterSetup.obj
 0001:00037390       ?AddEditboxInt@@YAXPAVCEdit@@HHPAU_NM_UPDOWN@@@Z 00438390 f   krnln_static:PrinterSetup.obj
 0001:000374e0       ?OnDeltaposSpinPrintCopies@CPrinterSetup@@IAEXPAUtagNMHDR@@PAJ@Z 004384e0 f   krnln_static:PrinterSetup.obj
 0001:00037510       ?OnDeltaposSpinTopExtra@CPrinterSetup@@IAEXPAUtagNMHDR@@PAJ@Z 00438510 f   krnln_static:PrinterSetup.obj
 0001:00037540       ?OnDeltaposSpinBottomExtra@CPrinterSetup@@IAEXPAUtagNMHDR@@PAJ@Z 00438540 f   krnln_static:PrinterSetup.obj
 0001:00037570       ?OnDeltaposSpinLeftExtra@CPrinterSetup@@IAEXPAUtagNMHDR@@PAJ@Z 00438570 f   krnln_static:PrinterSetup.obj
 0001:000375a0       ?OnDeltaposSpinRightExtra@CPrinterSetup@@IAEXPAUtagNMHDR@@PAJ@Z 004385a0 f   krnln_static:PrinterSetup.obj
 0001:000375d0       ?OnDeltaposSpinFirstPageNum@CPrinterSetup@@IAEXPAUtagNMHDR@@PAJ@Z 004385d0 f   krnln_static:PrinterSetup.obj
 0001:00037600       ?OnDeltaposSpinBegin@CPrinterSetup@@IAEXPAUtagNMHDR@@PAJ@Z 00438600 f   krnln_static:PrinterSetup.obj
 0001:00037630       ?OnDeltaposSpinEnd@CPrinterSetup@@IAEXPAUtagNMHDR@@PAJ@Z 00438630 f   krnln_static:PrinterSetup.obj
 0001:00037660       ?OnDeltaposPrintScale@CPrinterSetup@@IAEXPAUtagNMHDR@@PAJ@Z 00438660 f   krnln_static:PrinterSetup.obj
 0001:00037690       ?OnDeltaposLinesPrePage@CPrinterSetup@@IAEXPAUtagNMHDR@@PAJ@Z 00438690 f   krnln_static:PrinterSetup.obj
 0001:000376c0       ?OnInitDialog@CPrinterSetup@@MAEHXZ 004386c0 f   krnln_static:PrinterSetup.obj
 0001:00037b50       ?EnableControls@CPrinterSetup@@IAEXXZ 00438b50 f   krnln_static:PrinterSetup.obj
 0001:00037ce0       ?ToDivTenStr@CPrinterSetup@@IAEXHPAD@Z 00438ce0 f   krnln_static:PrinterSetup.obj
 0001:00037d50       ?OnOK@CPrinterSetup@@MAEXXZ 00438d50 f   krnln_static:PrinterSetup.obj
 0001:00038240       ?DbToInt@@YAHN@Z           00439240 f   krnln_static:gfunc.obj
 0001:00038270       ?DbToIntUpper@@YAHN@Z      00439270 f   krnln_static:gfunc.obj
 0001:000382a0       ?ChgUnit@@YANNHH@Z         004392a0 f   krnln_static:gfunc.obj
 0001:00038460       ?GetPrinterInfo@@YAXPAUHDC__@@PAH1111111@Z 00439460 f   krnln_static:gfunc.obj
 0001:00038630       ?SetDCMapMode@@YAXPAVCDC@@HH@Z 00439630 f   krnln_static:gfunc.obj
 0001:000386c0       ?OnCancel@CPreviewDlg@@IAEXXZ 004396c0 f   krnln_static:PreviewDlg.obj
 0001:000386d0       ?OnPaint@CPreviewDlg@@IAEXXZ 004396d0 f   krnln_static:PreviewDlg.obj
 0001:000387a0       ?OnSize@CPreviewDlg@@IAEXIHH@Z 004397a0 f   krnln_static:PreviewDlg.obj
 0001:00038820       ?OnPrint@CPreviewDlg@@IAEXXZ 00439820 f   krnln_static:PreviewDlg.obj
 0001:00038870       ?OnPrinterSetup@CPreviewDlg@@IAEXXZ 00439870 f   krnln_static:PreviewDlg.obj
 0001:000388b0       ?OnZoomIn@CPreviewDlg@@IAEXXZ 004398b0 f   krnln_static:PreviewDlg.obj
 0001:000388e0       ?OnZoomOut@CPreviewDlg@@IAEXXZ 004398e0 f   krnln_static:PreviewDlg.obj
 0001:00038910       ?OnAllWidth@CPreviewDlg@@IAEXXZ 00439910 f   krnln_static:PreviewDlg.obj
 0001:00038940       ?OnAllHeight@CPreviewDlg@@IAEXXZ 00439940 f   krnln_static:PreviewDlg.obj
 0001:00038970       ?OnPrevPage@CPreviewDlg@@IAEXXZ 00439970 f   krnln_static:PreviewDlg.obj
 0001:00038990       ?OnNextPage@CPreviewDlg@@IAEXXZ 00439990 f   krnln_static:PreviewDlg.obj
 0001:000389b0       ?OnGotoSpecPage@CPreviewDlg@@IAEXXZ 004399b0 f   krnln_static:PreviewDlg.obj
 0001:00038a80       ??1CGotoPageDlg@@UAE@XZ    00439a80 f i krnln_static:PreviewDlg.obj
 0001:00038ae0       ?RefrushLabel@CPreviewDlg@@QAEXXZ 00439ae0 f   krnln_static:PreviewDlg.obj
 0001:00038b30       ?OnCreate@CPreviewWnd@@IAEHPAUtagCREATESTRUCTA@@@Z 00439b30 f   krnln_static:PreviewWnd.obj
 0001:00038b50       ?OnSize@CPreviewWnd@@IAEXIHH@Z 00439b50 f   krnln_static:PreviewWnd.obj
 0001:00038b80       ?ReLayout@CPreviewWnd@@QAEXXZ 00439b80 f   krnln_static:PreviewWnd.obj
 0001:00038c90       ?InitScrollRange@CPreviewWnd@@QAEXXZ 00439c90 f   krnln_static:PreviewWnd.obj
 0001:00038dc0       ?ChangeRate@CPreviewWnd@@QAEXH@Z 00439dc0 f   krnln_static:PreviewWnd.obj
 0001:00038e10       ?SetRate@CPreviewWnd@@QAEXHH@Z 00439e10 f   krnln_static:PreviewWnd.obj
 0001:00038f20       ?OnHScroll@CPreviewWnd@@IAEXIIPAVCScrollBar@@@Z 00439f20 f   krnln_static:PreviewWnd.obj
 0001:00038fe0       ?OnVScroll@CPreviewWnd@@IAEXIIPAVCScrollBar@@@Z 00439fe0 f   krnln_static:PreviewWnd.obj
 0001:000390a0       ?OnPaint@CPreviewWnd@@IAEXXZ 0043a0a0 f   krnln_static:PreviewWnd.obj
 0001:000395a0       ?GetCurPageIndex@CPreviewWnd@@QAEHXZ 0043a5a0 f   krnln_static:PreviewWnd.obj
 0001:000395b0       ?GetTotalPagesCount@CPreviewWnd@@QAEHXZ 0043a5b0 f   krnln_static:PreviewWnd.obj
 0001:000395c0       ?GoPrevPage@CPreviewWnd@@QAEXXZ 0043a5c0 f   krnln_static:PreviewWnd.obj
 0001:000395d0       ?GoNextPage@CPreviewWnd@@QAEXXZ 0043a5d0 f   krnln_static:PreviewWnd.obj
 0001:000395e0       ?GoPage@CPreviewWnd@@QAEXH@Z 0043a5e0 f   krnln_static:PreviewWnd.obj
 0001:00039650       ??0CInPlaceEdit@@QAE@PAVCWnd@@AAVCRect@@IHHPADHPAVCFont@@KK@Z 0043a650 f   krnln_static:GridEdit.obj
 0001:00039790       ??_ECInPlaceEdit@@UAEPAXI@Z 0043a790 f i krnln_static:GridEdit.obj
 0001:00039790       ??_GCInPlaceEdit@@UAEPAXI@Z 0043a790 f i krnln_static:GridEdit.obj
 0001:000397b0       ??1CInPlaceEdit@@UAE@XZ    0043a7b0 f   krnln_static:GridEdit.obj
 0001:00039820       ?GetMessageMap@CInPlaceEdit@@MBEPBUAFX_MSGMAP@@XZ 0043a820 f   krnln_static:GridEdit.obj
 0001:00039830       ?OnKeyDown@CInPlaceEdit@@IAEXIII@Z 0043a830 f   krnln_static:GridEdit.obj
 0001:00039890       ?OnKeyUp@CInPlaceEdit@@IAEXIII@Z 0043a890 f   krnln_static:GridEdit.obj
 0001:000398b0       ?OnKillFocus@CInPlaceEdit@@IAEXPAVCWnd@@@Z 0043a8b0 f   krnln_static:GridEdit.obj
 0001:000398d0       ?AdjustRect@CInPlaceEdit@@IAEXXZ 0043a8d0 f   krnln_static:GridEdit.obj
 0001:00039bb0       ?OnChar@CInPlaceEdit@@IAEXIII@Z 0043abb0 f   krnln_static:GridEdit.obj
 0001:00039be0       ?PreTranslateMessage@CInPlaceEdit@@UAEHPAUtagMSG@@@Z 0043abe0 f   krnln_static:GridEdit.obj
 0001:00039c20       ?OnEndEdit@CInPlaceEdit@@IAEXXZ 0043ac20 f   krnln_static:GridEdit.obj
 0001:00039c30       ?EndEdit@CInPlaceEdit@@IAEXXZ 0043ac30 f   krnln_static:GridEdit.obj
 0001:00039d20       ?CtlColor@CInPlaceEdit@@IAEPAUHBRUSH__@@PAVCDC@@I@Z 0043ad20 f   krnln_static:GridEdit.obj
 0001:00039d50       ?OnCreate@CWnd@@IAEHPAUtagCREATESTRUCTA@@@Z 0043ad50 f i krnln_static:GridEdit.obj
 0001:00039d60       ??0CMPrintStatusDlg@@QAE@PAVCWnd@@@Z 0043ad60 f   krnln_static:PrintStatusDlg.obj
 0001:00039df0       ??_GCMPrintStatusDlg@@UAEPAXI@Z 0043adf0 f i krnln_static:PrintStatusDlg.obj
 0001:00039df0       ??_ECMPrintStatusDlg@@UAEPAXI@Z 0043adf0 f i krnln_static:PrintStatusDlg.obj
 0001:00039e10       ?DoDataExchange@CMPrintStatusDlg@@MAEXPAVCDataExchange@@@Z 0043ae10 f   krnln_static:PrintStatusDlg.obj
 0001:00039e40       ?GetMessageMap@CMPrintStatusDlg@@MBEPBUAFX_MSGMAP@@XZ 0043ae40 f   krnln_static:PrintStatusDlg.obj
 0001:00039e50       ?MRemoveCustomForm@CUPrinter@@QAEXXZ 0043ae50 f   krnln_static:PrintStatusDlg.obj
 0001:00039e50       ?OnOK@CMPrintStatusDlg@@MAEXXZ 0043ae50 f   krnln_static:PrintStatusDlg.obj
 0001:00039e50       ?OnMidiOutOpen@CMIDI@@MAEXXZ 0043ae50 f   krnln_static:PrintStatusDlg.obj
 0001:00039e50       ?jpeg_mem_term@@YAXPAUjpeg_common_struct@@@Z 0043ae50 f   krnln_static:PrintStatusDlg.obj
 0001:00039e60       ?OnInitDialog@CMPrintStatusDlg@@MAEHXZ 0043ae60 f   krnln_static:PrintStatusDlg.obj
 0001:0003a6b0       ?OnDestroy@CMPrintStatusDlg@@IAEXXZ 0043b6b0 f   krnln_static:PrintStatusDlg.obj
 0001:0003a6c0       ?OnCancel@CMPrintStatusDlg@@MAEXXZ 0043b6c0 f   krnln_static:PrintStatusDlg.obj
 0001:0003a6d0       ??1?$CMArray@PAVCProcessor@@@@QAE@XZ 0043b6d0 f i krnln_static:PrintStatusDlg.obj
 0001:0003a6d0       ??1?$CMArray@UPAGE_PRINT_INFO@@@@QAE@XZ 0043b6d0 f i krnln_static:PrintStatusDlg.obj
 0001:0003a6d0       ??1?$CMArray@H@@QAE@XZ     0043b6d0 f i krnln_static:PrintStatusDlg.obj
 0001:0003a6e0       ??_GCProgressCtrl@@UAEPAXI@Z 0043b6e0 f i krnln_static:PrintStatusDlg.obj
 0001:0003a6e0       ??_ECProgressCtrl@@UAEPAXI@Z 0043b6e0 f i krnln_static:PrintStatusDlg.obj
 0001:0003a700       ??_ECColourPopup@@UAEPAXI@Z 0043b700 f i krnln_static:Clrpopup.obj
 0001:0003a700       ??_GCColourPopup@@UAEPAXI@Z 0043b700 f i krnln_static:Clrpopup.obj
 0001:0003a720       ??0CColourPopup@@QAE@VCPoint@@KPAVCWnd@@PBD2@Z 0043b720 f   krnln_static:Clrpopup.obj
 0001:0003a830       ?Initialise@CColourPopup@@QAEXXZ 0043b830 f   krnln_static:Clrpopup.obj
 0001:0003a940       ??1CColourPopup@@UAE@XZ    0043b940 f   krnln_static:Clrpopup.obj
 0001:0003aa00       ?Create@CColourPopup@@QAEHVCPoint@@KPAVCWnd@@PBD2@Z 0043ba00 f   krnln_static:Clrpopup.obj
 0001:0003ab30       ?GetMessageMap@CColourPopup@@MBEPBUAFX_MSGMAP@@XZ 0043bb30 f   krnln_static:Clrpopup.obj
 0001:0003ab40       ?WindowProc@CColourPopup@@UAEJIIJ@Z 0043bb40 f   krnln_static:Clrpopup.obj
 0001:0003abd0       ?OnKeyDown@CColourPopup@@IAEXIII@Z 0043bbd0 f   krnln_static:Clrpopup.obj
 0001:0003ae60       ?PostNcDestroy@CInPlaceEdit@@MAEXXZ 0043be60 f   krnln_static:Clrpopup.obj
 0001:0003ae60       ?PostNcDestroy@CColourPopup@@UAEXXZ 0043be60 f   krnln_static:Clrpopup.obj
 0001:0003ae80       ?OnPaint@CColourPopup@@IAEXXZ 0043be80 f   krnln_static:Clrpopup.obj
 0001:0003af50       ?OnMouseMove@CColourPopup@@IAEXIVCPoint@@@Z 0043bf50 f   krnln_static:Clrpopup.obj
 0001:0003b000       ?OnLButtonDown@CColourPopup@@IAEXIVCPoint@@@Z 0043c000 f   krnln_static:Clrpopup.obj
 0001:0003b020       ?OnLButtonUp@CColourPopup@@IAEXIVCPoint@@@Z 0043c020 f   krnln_static:Clrpopup.obj
 0001:0003b080       ?GetIndex@CColourPopup@@IBEHHH@Z 0043c080 f   krnln_static:Clrpopup.obj
 0001:0003b0f0       ?GetRow@CColourPopup@@IBEHH@Z 0043c0f0 f   krnln_static:Clrpopup.obj
 0001:0003b140       ?GetColumn@CColourPopup@@IBEHH@Z 0043c140 f   krnln_static:Clrpopup.obj
 0001:0003b190       ?FindCellFromColour@CColourPopup@@IAEXK@Z 0043c190 f   krnln_static:Clrpopup.obj
 0001:0003b200       ?GetCellRect@CColourPopup@@IAEHHABQAUtagRECT@@@Z 0043c200 f   krnln_static:Clrpopup.obj
 0001:0003b2d0       ?SetWindowSize@CColourPopup@@IAEXXZ 0043c2d0 f   krnln_static:Clrpopup.obj
 0001:0003b590       ?CreateToolTips@CColourPopup@@IAEXXZ 0043c590 f   krnln_static:Clrpopup.obj
 0001:0003b600       ?ChangeSelection@CColourPopup@@IAEXH@Z 0043c600 f   krnln_static:Clrpopup.obj
 0001:0003b6f0       ?EndSelection@CColourPopup@@IAEXH@Z 0043c6f0 f   krnln_static:Clrpopup.obj
 0001:0003b7f0       ??1CFontDialog@@UAE@XZ     0043c7f0 f i krnln_static:Clrpopup.obj
 0001:0003b7f0       ??1CCommonDialog@@UAE@XZ   0043c7f0 f i krnln_static:Clrpopup.obj
 0001:0003b7f0       ??1CColorDialog@@UAE@XZ    0043c7f0 f i krnln_static:Clrpopup.obj
 0001:0003b800       ?DrawCell@CColourPopup@@IAEXPAVCDC@@H@Z 0043c800 f   krnln_static:Clrpopup.obj
 0001:0003bd30       ?OnQueryNewPalette@CColourPopup@@IAEHXZ 0043cd30 f   krnln_static:Clrpopup.obj
 0001:0003bd50       ?OnPaletteChanged@CColourPopup@@IAEXPAVCWnd@@@Z 0043cd50 f   krnln_static:Clrpopup.obj
 0001:0003bd90       ?OnKillFocus@CColourPopup@@IAEXPAVCWnd@@@Z 0043cd90 f   krnln_static:Clrpopup.obj
 0001:0003bda0       ?OnActivateApp@CColourPopup@@IAEXHPAUHTASK__@@@Z 0043cda0 f   krnln_static:Clrpopup.obj
 0001:0003bdd0       ?jpeg_CreateDecompress@@YAXPAUjpeg_decompress_struct@@HI@Z 0043cdd0 f   krnln_static:JDAPIMIN.OBJ
 0001:0003be70       ?jpeg_destroy_decompress@@YAXPAUjpeg_decompress_struct@@@Z 0043ce70 f   krnln_static:JDAPIMIN.OBJ
 0001:0003be80       ?jpeg_read_header@@YAHPAUjpeg_decompress_struct@@H@Z 0043ce80 f   krnln_static:JDAPIMIN.OBJ
 0001:0003bee0       ?jpeg_consume_input@@YAHPAUjpeg_decompress_struct@@@Z 0043cee0 f   krnln_static:JDAPIMIN.OBJ
 0001:0003c100       ?jpeg_finish_decompress@@YAHPAUjpeg_decompress_struct@@@Z 0043d100 f   krnln_static:JDAPIMIN.OBJ
 0001:0003c1b0       ?jpeg_start_decompress@@YAHPAUjpeg_decompress_struct@@@Z 0043d1b0 f   krnln_static:JDAPISTD.OBJ
 0001:0003c360       ?jpeg_read_scanlines@@YAIPAUjpeg_decompress_struct@@PAPAEI@Z 0043d360 f   krnln_static:JDAPISTD.OBJ
 0001:0003c3f0       ?jpeg_stdio_src@@YAXPAUjpeg_decompress_struct@@PAVCBaseStream@@@Z 0043d3f0 f   krnln_static:Jdatasrc.obj
 0001:0003c520       ?jpeg_std_error@@YAPAUjpeg_error_mgr@@PAU1@@Z 0043d520 f   krnln_static:JERROR.OBJ
 0001:0003c5a0       ??0CGotoPageDlg@@QAE@PAVCWnd@@@Z 0043d5a0 f   krnln_static:GotoPageDlg.obj
 0001:0003c620       ??_GCGotoPageDlg@@UAEPAXI@Z 0043d620 f i krnln_static:GotoPageDlg.obj
 0001:0003c620       ??_ECGotoPageDlg@@UAEPAXI@Z 0043d620 f i krnln_static:GotoPageDlg.obj
 0001:0003c640       ?DoDataExchange@CGotoPageDlg@@MAEXPAVCDataExchange@@@Z 0043d640 f   krnln_static:GotoPageDlg.obj
 0001:0003c670       ?GetMessageMap@CGotoPageDlg@@MBEPBUAFX_MSGMAP@@XZ 0043d670 f   krnln_static:GotoPageDlg.obj
 0001:0003c680       ?OnInitDialog@CGotoPageDlg@@MAEHXZ 0043d680 f   krnln_static:GotoPageDlg.obj
 0001:0003c6d0       ?OnOK@CGotoPageDlg@@MAEXXZ 0043d6d0 f   krnln_static:GotoPageDlg.obj
 0001:0003c7a0       ?jinit_input_controller@@YAXPAUjpeg_decompress_struct@@@Z 0043d7a0 f   krnln_static:JDINPUT.OBJ
 0001:0003cd30       ?jpeg_resync_to_restart@@YAHPAUjpeg_decompress_struct@@H@Z 0043dd30 f   krnln_static:JDMARKER.OBJ
 0001:0003cf20       ?jinit_marker_reader@@YAXPAUjpeg_decompress_struct@@@Z 0043df20 f   krnln_static:JDMARKER.OBJ
 0001:0003e3f0       ?jinit_memory_mgr@@YAXPAUjpeg_common_struct@@@Z 0043f3f0 f   krnln_static:JMEMMGR.OBJ
 0001:0003ef60       ?jpeg_abort@@YAXPAUjpeg_common_struct@@@Z 0043ff60 f   krnln_static:JCOMAPI.OBJ
 0001:0003ef90       ?jpeg_destroy@@YAXPAUjpeg_common_struct@@@Z 0043ff90 f   krnln_static:JCOMAPI.OBJ
 0001:0003efb0       ?jpeg_alloc_quant_table@@YAPAUJQUANT_TBL@@PAUjpeg_common_struct@@@Z 0043ffb0 f   krnln_static:JCOMAPI.OBJ
 0001:0003efd0       ?jpeg_alloc_huff_table@@YAPAUJHUFF_TBL@@PAUjpeg_common_struct@@@Z 0043ffd0 f   krnln_static:JCOMAPI.OBJ
 0001:0003eff0       ?jpeg_calc_output_dimensions@@YAXPAUjpeg_decompress_struct@@@Z 0043fff0 f   krnln_static:JDMASTER.OBJ
 0001:0003f2a0       ?jinit_master_decompress@@YAXPAUjpeg_decompress_struct@@@Z 004402a0 f   krnln_static:JDMASTER.OBJ
 0001:0003f6c0       ?jdiv_round_up@@YAJJJ@Z    004406c0 f   krnln_static:JUTILS.OBJ
 0001:0003f6d0       ?jround_up@@YAJJJ@Z        004406d0 f   krnln_static:JUTILS.OBJ
 0001:0003f6f0       ?jcopy_sample_rows@@YAXPAPAEH0HHI@Z 004406f0 f   krnln_static:JUTILS.OBJ
 0001:0003f740       ?jcopy_block_row@@YAXPAY0EA@F0I@Z 00440740 f   krnln_static:JUTILS.OBJ
 0001:0003f770       ?jzero_far@@YAXPAXI@Z      00440770 f   krnln_static:JUTILS.OBJ
 0001:0003f790       ?jpeg_get_small@@YAPAXPAUjpeg_common_struct@@I@Z 00440790 f   krnln_static:JMEMNOBS.OBJ
 0001:0003f790       ?jpeg_get_large@@YAPAXPAUjpeg_common_struct@@I@Z 00440790 f   krnln_static:JMEMNOBS.OBJ
 0001:0003f7a0       ?jpeg_free_small@@YAXPAUjpeg_common_struct@@PAXI@Z 004407a0 f   krnln_static:JMEMNOBS.OBJ
 0001:0003f7a0       ?jpeg_free_large@@YAXPAUjpeg_common_struct@@PAXI@Z 004407a0 f   krnln_static:JMEMNOBS.OBJ
 0001:0003f7b0       ?jpeg_mem_available@@YAJPAUjpeg_common_struct@@JJJ@Z 004407b0 f   krnln_static:JMEMNOBS.OBJ
 0001:0003f7c0       ?jpeg_open_backing_store@@YAXPAUjpeg_common_struct@@PAUbacking_store_struct@@J@Z 004407c0 f   krnln_static:JMEMNOBS.OBJ
 0001:0003f7d0       ?jpeg_mem_init@@YAJPAUjpeg_common_struct@@@Z 004407d0 f   krnln_static:JMEMNOBS.OBJ
 0001:0003f7e0       ?jinit_d_main_controller@@YAXPAUjpeg_decompress_struct@@H@Z 004407e0 f   krnln_static:JDMAINCT.OBJ
 0001:0003fed0       ?jinit_d_coef_controller@@YAXPAUjpeg_decompress_struct@@H@Z 00440ed0 f   krnln_static:Jdcoefct.obj
 0001:00040e90       ?jpeg_make_d_derived_tbl@@YAXPAUjpeg_decompress_struct@@PAUJHUFF_TBL@@PAPAUd_derived_tbl@@@Z 00441e90 f   krnln_static:JDHUFF.OBJ
 0001:00041080       ?jpeg_fill_bit_buffer@@YAHPAUbitread_working_state@@HHH@Z 00442080 f   krnln_static:JDHUFF.OBJ
 0001:00041170       ?jpeg_huff_decode@@YAHPAUbitread_working_state@@HHPAUd_derived_tbl@@H@Z 00442170 f   krnln_static:JDHUFF.OBJ
 0001:00041260       ?jinit_huff_decoder@@YAXPAUjpeg_decompress_struct@@@Z 00442260 f   krnln_static:JDHUFF.OBJ
 0001:00041890       ?jinit_phuff_decoder@@YAXPAUjpeg_decompress_struct@@@Z 00442890 f   krnln_static:JDPHUFF.OBJ
 0001:00042630       ?jinit_inverse_dct@@YAXPAUjpeg_decompress_struct@@@Z 00443630 f   krnln_static:JDDCTMGR.OBJ
 0001:000428c0       ?jinit_d_post_controller@@YAXPAUjpeg_decompress_struct@@H@Z 004438c0 f   krnln_static:JDPOSTCT.OBJ
 0001:00042c10       ?jinit_upsampler@@YAXPAUjpeg_decompress_struct@@@Z 00443c10 f   krnln_static:JDSAMPLE.OBJ
 0001:00043380       ?jinit_color_deconverter@@YAXPAUjpeg_decompress_struct@@@Z 00444380 f   krnln_static:Jdcolor.obj
 0001:00043930       ?jinit_merged_upsampler@@YAXPAUjpeg_decompress_struct@@@Z 00444930 f   krnln_static:JDMERGE.OBJ
 0001:00043f20       ?jinit_2pass_quantizer@@YAXPAUjpeg_decompress_struct@@@Z 00444f20 f   krnln_static:JQUANT2.OBJ
 0001:00045300       ?jinit_1pass_quantizer@@YAXPAUjpeg_decompress_struct@@@Z 00446300 f   krnln_static:JQUANT1.OBJ
 0001:00045f00       ?jpeg_idct_islow@@YAXPAUjpeg_decompress_struct@@PAUjpeg_component_info@@PAFPAPAEI@Z 00446f00 f   krnln_static:JIDCTINT.OBJ
 0001:00046560       ?jpeg_idct_ifast@@YAXPAUjpeg_decompress_struct@@PAUjpeg_component_info@@PAFPAPAEI@Z 00447560 f   krnln_static:JIDCTFST.OBJ
 0001:00046a10       ?jpeg_idct_float@@YAXPAUjpeg_decompress_struct@@PAUjpeg_component_info@@PAFPAPAEI@Z 00447a10 f   krnln_static:JIDCTFLT.OBJ
 0001:00046e70       ?jpeg_idct_4x4@@YAXPAUjpeg_decompress_struct@@PAUjpeg_component_info@@PAFPAPAEI@Z 00447e70 f   krnln_static:JIDCTRED.OBJ
 0001:00047270       ?jpeg_idct_2x2@@YAXPAUjpeg_decompress_struct@@PAUjpeg_component_info@@PAFPAPAEI@Z 00448270 f   krnln_static:JIDCTRED.OBJ
 0001:00047490       ?jpeg_idct_1x1@@YAXPAUjpeg_decompress_struct@@PAUjpeg_component_info@@PAFPAPAEI@Z 00448490 f   krnln_static:JIDCTRED.OBJ
 0001:000474d0       edroptarget_static?NotifySys@@YGHHKK@Z 004484d0 f   edroptarget_static:GuiElib.obj
 0001:00047510       edroptarget_static?SaveData@CPropertyInfo@@QAEPAXXZ 00448510 f   edroptarget_static:GuiElib.obj
 0001:00047630       edroptarget_static?LoadData@CPropertyInfo@@QAEHPAEH@Z 00448630 f   edroptarget_static:GuiElib.obj
 0001:00047720       edroptarget_static?GetWndPtr@@YAPAVCWnd@@PAUMDATA_INF@@@Z 00448720 f   edroptarget_static:GuiElib.obj
 0001:00047740       _edroptarget_GetInterface_DropTarget@4 00448740 f   edroptarget_static:GuiElib.obj
 0001:00047e30       _edroptarget_fnRegisterDropTarget 00448e30 f   edroptarget_static:GuiElib.obj
 0001:00047e70       _edroptarget_ProcessNotifyLib@12 00448e70 f   edroptarget_static:GuiElib.obj
 0001:00047e90       edroptarget_??3CObject@@SGXPAX@Z 00448e90 f i edroptarget_static:GuiElib.obj
 0001:00047e90       ??3CObject@@SGXPAX@Z       00448e90 f i edroptarget_static:GuiElib.obj
 0001:00047e90       iext_??3CObject@@SGXPAX@Z  00448e90 f i edroptarget_static:GuiElib.obj
 0001:00047ed0       edroptarget_??0EDropTarget@@QAE@XZ 00448ed0 f   edroptarget_static:EDropTargetclass.obj
 0001:00047f20       edroptarget_?SetFormIdAndUnitId@EDropTarget@@QAEXKK@Z 00448f20 f   edroptarget_static:EDropTargetclass.obj
 0001:00047f40       edroptarget_??1EDropTarget@@QAE@XZ 00448f40 f   edroptarget_static:EDropTargetclass.obj
 0001:00047f60       edroptarget_?DebugMsg@EDropTarget@@AAEXPAD@Z 00448f60 f   edroptarget_static:EDropTargetclass.obj
 0001:00047f60       ?MidiError@CMIDI@@MAEXI@Z  00448f60 f   edroptarget_static:EDropTargetclass.obj
 0001:00047f70       edroptarget_?QueryInterface@EDropTarget@@UAGJABU_GUID@@PAPAX@Z 00448f70 f   edroptarget_static:EDropTargetclass.obj
 0001:00047fe0       edroptarget_?AddRef@EDropTarget@@UAGKXZ 00448fe0 f   edroptarget_static:EDropTargetclass.obj
 0001:00047ff0       edroptarget_?Release@EDropTarget@@UAGKXZ 00448ff0 f   edroptarget_static:EDropTargetclass.obj
 0001:00048020       edroptarget_?RegisterDropTextCallBack@EDropTarget@@QAEXPAX@Z 00449020 f   edroptarget_static:EDropTargetclass.obj
 0001:00048030       edroptarget_?RegisterDropHtmlCallBack@EDropTarget@@QAEXPAX@Z 00449030 f   edroptarget_static:EDropTargetclass.obj
 0001:00048040       edroptarget_?RegisterDropUrlCallBack@EDropTarget@@QAEXPAX@Z 00449040 f   edroptarget_static:EDropTargetclass.obj
 0001:00048050       edroptarget_?RegisterDropFileCallBack@EDropTarget@@QAEXPAX@Z 00449050 f   edroptarget_static:EDropTargetclass.obj
 0001:00048060       edroptarget_?GetDropTargetText@EDropTarget@@AAEPAVCString@@PAUIDataObject@@@Z 00449060 f   edroptarget_static:EDropTargetclass.obj
 0001:00048130       edroptarget_?GetDropTargetHtml@EDropTarget@@AAEPAVCString@@PAUIDataObject@@@Z 00449130 f   edroptarget_static:EDropTargetclass.obj
 0001:000481d0       edroptarget_?GetDropTargetUrl@EDropTarget@@AAEPAVCString@@PAUIDataObject@@@Z 004491d0 f   edroptarget_static:EDropTargetclass.obj
 0001:00048270       edroptarget_?GetDropTargetFile@EDropTarget@@AAEHPAUIDataObject@@PAPAPAD@Z 00449270 f   edroptarget_static:EDropTargetclass.obj
 0001:00048330       edroptarget_?DragEnter@EDropTarget@@UAGJPAUIDataObject@@KU_POINTL@@PAK@Z 00449330 f   edroptarget_static:EDropTargetclass.obj
 0001:00048490       edroptarget_?DragOver@EDropTarget@@UAGJKU_POINTL@@PAK@Z 00449490 f   edroptarget_static:EDropTargetclass.obj
 0001:000484d0       edroptarget_?DragLeave@EDropTarget@@UAGJXZ 004494d0 f   edroptarget_static:EDropTargetclass.obj
 0001:00048500       edroptarget_?ProcessHtmlTagText@EDropTarget@@AAEXAAV?$basic_string@GU?$char_traits@G@std@@V?$allocator@G@2@@std@@@Z 00449500 f   edroptarget_static:EDropTargetclass.obj
 0001:00048730       edroptarget_?Drop@EDropTarget@@UAGJPAUIDataObject@@KU_POINTL@@PAK@Z 00449730 f   edroptarget_static:EDropTargetclass.obj
 0001:00048a40       edroptarget_?QueryDrop@EDropTarget@@AAEHKPAK@Z 00449a40 f   edroptarget_static:EDropTargetclass.obj
 0001:00048af0       edroptarget_?DisplayFileNames@EDropTarget@@AAEHPAXPAPAPAD@Z 00449af0 f   edroptarget_static:EDropTargetclass.obj
 0001:00048b70       edroptarget_?FreeFileNameArray@EDropTarget@@AAEXPAPADH@Z 00449b70 f   edroptarget_static:EDropTargetclass.obj
 0001:00048bb0       edroptarget_?RegisterDropTargetFormat@EDropTarget@@AAEHPAD@Z 00449bb0 f   edroptarget_static:EDropTargetclass.obj
 0001:00048bc0       edroptarget_?RegisterUrlFormat@EDropTarget@@QAEHXZ 00449bc0 f   edroptarget_static:EDropTargetclass.obj
 0001:00048be0       edroptarget_?RegisterHtmlFormat@EDropTarget@@QAEHXZ 00449be0 f   edroptarget_static:EDropTargetclass.obj
 0001:00048c00       edroptarget_?SetDropText@EDropTarget@@QAEXH@Z 00449c00 f   edroptarget_static:EDropTargetclass.obj
 0001:00048c10       edroptarget_?SetDropFile@EDropTarget@@QAEXH@Z 00449c10 f   edroptarget_static:EDropTargetclass.obj
 0001:00048c20       edroptarget_?SetDropUrl@EDropTarget@@QAEXH@Z 00449c20 f   edroptarget_static:EDropTargetclass.obj
 0001:00048c30       edroptarget_?SetDropHtml@EDropTarget@@QAEXH@Z 00449c30 f   edroptarget_static:EDropTargetclass.obj
 0001:00048c40       edroptarget_?GetDropText@EDropTarget@@QAEHXZ 00449c40 f   edroptarget_static:EDropTargetclass.obj
 0001:00048c50       edroptarget_?GetDropHtml@EDropTarget@@QAEHXZ 00449c50 f   edroptarget_static:EDropTargetclass.obj
 0001:00048c60       edroptarget_?GetDropUrl@EDropTarget@@QAEHXZ 00449c60 f   edroptarget_static:EDropTargetclass.obj
 0001:00048c70       edroptarget_?GetDropFile@EDropTarget@@QAEHXZ 00449c70 f   edroptarget_static:EDropTargetclass.obj
 0001:00048c80       edroptarget_??1?$basic_string@GU?$char_traits@G@std@@V?$allocator@G@2@@std@@QAE@XZ 00449c80 f i edroptarget_static:EDropTargetclass.obj
 0001:00048cc0       edroptarget_?assign@?$basic_string@GU?$char_traits@G@std@@V?$allocator@G@2@@std@@QAEAAV12@PBGI@Z 00449cc0 f i edroptarget_static:EDropTargetclass.obj
 0001:00048d70       edroptarget_?_Tidy@?$basic_string@GU?$char_traits@G@std@@V?$allocator@G@2@@std@@AAEX_N@Z 00449d70 f i edroptarget_static:EDropTargetclass.obj
 0001:00048dc0       edroptarget_?_Eos@?$basic_string@GU?$char_traits@G@std@@V?$allocator@G@2@@std@@AAEXI@Z 00449dc0 f i edroptarget_static:EDropTargetclass.obj
 0001:00048de0       edroptarget_?_Grow@?$basic_string@GU?$char_traits@G@std@@V?$allocator@G@2@@std@@AAE_NI_N@Z 00449de0 f i edroptarget_static:EDropTargetclass.obj
 0001:00048f10       edroptarget_?_Split@?$basic_string@GU?$char_traits@G@std@@V?$allocator@G@2@@std@@AAEXXZ 00449f10 f i edroptarget_static:EDropTargetclass.obj
 0001:00048ff0       edroptarget_?_Copy@?$basic_string@GU?$char_traits@G@std@@V?$allocator@G@2@@std@@AAEXI@Z 00449ff0 f i edroptarget_static:EDropTargetclass.obj
 0001:00049130       iext_?init@CPropertyInfo@@UAEXXZ 0044a130 f i edroptarget_static:EDropTargetclass.obj
 0001:00049130       ?init@CPropertyInfo@@UAEXXZ 0044a130 f i edroptarget_static:EDropTargetclass.obj
 0001:00049130       edroptarget_?id@?$ctype@G@std@@$E_1 0044a130 f i edroptarget_static:EDropTargetclass.obj
 0001:00049130       edroptarget_?id@?$ctype@G@std@@$E_3 0044a130 f i edroptarget_static:EDropTargetclass.obj
 0001:00049130       edroptarget_?id@?$ctype@G@std@@$E_2 0044a130 f i edroptarget_static:EDropTargetclass.obj
 0001:00049130       ??1CObject@@UAE@XZ         0044a130 f i edroptarget_static:EDropTargetclass.obj
 0001:00049130       edroptarget_??1CObject@@UAE@XZ 0044a130 f i edroptarget_static:EDropTargetclass.obj
 0001:00049130       edroptarget_?id@?$ctype@G@std@@$E_0 0044a130 f i edroptarget_static:EDropTargetclass.obj
 0001:00049130       iext_??1CObject@@UAE@XZ    0044a130 f i edroptarget_static:EDropTargetclass.obj
 0001:00049130       ??1CException@@UAE@XZ      0044a130 f i edroptarget_static:EDropTargetclass.obj
 0001:00049140       edroptarget__wmemcpy       0044a140 f i edroptarget_static:EDropTargetclass.obj
 0001:00049170       edroptarget__wmemmove      0044a170 f i edroptarget_static:EDropTargetclass.obj
 0001:000491c0       edroptarget_?GetMessageMap@EDropTargetWnd@@MBEPBUAFX_MSGMAP@@XZ 0044a1c0 f   edroptarget_static:EDropTarget1.obj
 0001:000491d0       edroptarget_??0EDropTargetWnd@@QAE@XZ 0044a1d0 f   edroptarget_static:EDropTarget1.obj
 0001:00049230       edroptarget_??_GEDropTargetWnd@@UAEPAXI@Z 0044a230 f i edroptarget_static:EDropTarget1.obj
 0001:00049230       ??_EEDropTargetWnd@@UAEPAXI@Z 0044a230 f i edroptarget_static:EDropTarget1.obj
 0001:00049250       edroptarget_??1EDropTargetWnd@@UAE@XZ 0044a250 f   edroptarget_static:EDropTarget1.obj
 0001:000492b0       edroptarget_?Create@EDropTargetWnd@@QAEHPAUHWND__@@KIHHHH@Z 0044a2b0 f   edroptarget_static:EDropTarget1.obj
 0001:00049320       edroptarget_?PostNcDestroy@EDropTargetWnd@@MAEXXZ 0044a320 f   edroptarget_static:EDropTarget1.obj
 0001:00049360       edroptarget_?OnPaint@EDropTargetWnd@@IAEXXZ 0044a360 f   edroptarget_static:EDropTarget1.obj
 0001:00049740       edroptarget_?OnSize@EDropTargetWnd@@IAEXIHH@Z 0044a740 f   edroptarget_static:EDropTarget1.obj
 0001:00049750       iext_?DoDataExchange@CWnd@@MAEXPAVCDataExchange@@@Z 0044a750 f i edroptarget_static:EDropTarget1.obj
 0001:00049750       edroptarget_?DoDataExchange@CWnd@@MAEXPAVCDataExchange@@@Z 0044a750 f i edroptarget_static:EDropTarget1.obj
 0001:00049750       edroptarget_?Serialize@CObject@@UAEXAAVCArchive@@@Z 0044a750 f i edroptarget_static:EDropTarget1.obj
 0001:00049750       ?DoDataExchange@CWnd@@MAEXPAVCDataExchange@@@Z 0044a750 f i edroptarget_static:EDropTarget1.obj
 0001:00049750       ?Serialize@CObject@@UAEXAAVCArchive@@@Z 0044a750 f i edroptarget_static:EDropTarget1.obj
 0001:00049750       iext_?Serialize@CObject@@UAEXAAVCArchive@@@Z 0044a750 f i edroptarget_static:EDropTarget1.obj
 0001:00049790       edroptarget_??0CGdiObject@@QAE@XZ 0044a790 f i edroptarget_static:EDropTarget1.obj
 0001:000497a0       edroptarget_??1CPen@@UAE@XZ 0044a7a0 f i edroptarget_static:EDropTarget1.obj
 0001:000497e0       edroptarget_??1CBrush@@UAE@XZ 0044a7e0 f i edroptarget_static:EDropTarget1.obj
 0001:00049820       edroptarget_??1CBitmap@@UAE@XZ 0044a820 f i edroptarget_static:EDropTarget1.obj
 0001:00049860       edroptarget_??0CPIDropTarget@@QAE@XZ 0044a860 f   edroptarget_static:PIDropTarget.obj
 0001:00049880       ??_ECPIDropTarget@@UAEPAXI@Z 0044a880 f i edroptarget_static:PIDropTarget.obj
 0001:00049880       edroptarget_??_GCPIDropTarget@@UAEPAXI@Z 0044a880 f i edroptarget_static:PIDropTarget.obj
 0001:000498a0       edroptarget_??1CPIDropTarget@@UAE@XZ 0044a8a0 f   edroptarget_static:PIDropTarget.obj
 0001:000498b0       edroptarget_?init@CPIDropTarget@@UAEXXZ 0044a8b0 f   edroptarget_static:PIDropTarget.obj
 0001:000498c0       edroptarget_?Serialize@CPIDropTarget@@UAEHAAVCArchive@@@Z 0044a8c0 f   edroptarget_static:PIDropTarget.obj
 0001:00049b20       iext_?_fnLVGetCaption@@YAPADPAVCUListView@@HH@Z 0044ab20 f   iext_static:libfn.obj
 0001:00049b80       iext_?LVRunGetInf@@YAXPAUMDATA_INF@@0H@Z 0044ab80 f   iext_static:libfn.obj
 0001:00049cb0       _iext_fnLVGetCaption       0044acb0 f   iext_static:libfn.obj
 0001:00049cd0       _iext_fnLVGetSelItems      0044acd0 f   iext_static:libfn.obj
 0001:00049da0       _iext_fnLVGetCount         0044ada0 f   iext_static:libfn.obj
 0001:00049dd0       _iext_fnLVInsert           0044add0 f   iext_static:libfn.obj
 0001:00049ec0       _iext_fnLVRemove           0044aec0 f   iext_static:libfn.obj
 0001:00049ef0       iext_?ProcessNotifyLib@@YGHHKK@Z 0044aef0 f   iext_static:iext.obj
 0001:00049f10       iext_?NotifySys@@YGHHKK@Z  0044af10 f   iext_static:iext.obj
 0001:00049f50       iext_?CloneTextData@@YAPADPAD@Z 0044af50 f   iext_static:iext.obj
 0001:00049fa0       _iext_ProcessNotifyLib@12  0044afa0 f   iext_static:iext.obj
 0001:00049fc0       iext_?OnRButtonDown@CUTreeBox@@IAEXIVCPoint@@@Z 0044afc0 f   iext_static:unit.obj
 0001:0004a060       iext_?OnItemexpandingTree@CUTreeBox@@IAEXPAUtagNMHDR@@PAJ@Z 0044b060 f   iext_static:unit.obj
 0001:0004a100       iext_?OnSetfocus@CUTreeBox@@IAEXPAUtagNMHDR@@PAJ@Z 0044b100 f   iext_static:unit.obj
 0001:0004a160       iext_?OnKillfocus@CUTreeBox@@IAEXPAUtagNMHDR@@PAJ@Z 0044b160 f   iext_static:unit.obj
 0001:0004a1c0       iext_?OnSelchanged@CUTreeBox@@IAEXPAUtagNMHDR@@PAJ@Z 0044b1c0 f   iext_static:unit.obj
 0001:0004a240       iext_?OnCheckboxChanged@CUTreeBox@@IAEJIJ@Z 0044b240 f   iext_static:unit.obj
 0001:0004a2e0       iext_?OnChar@CUTreeBox@@IAEXIII@Z 0044b2e0 f   iext_static:unit.obj
 0001:0004a330       iext_?OnClick@CUTreeBox@@IAEXPAUtagNMHDR@@PAJ@Z 0044b330 f   iext_static:unit.obj
 0001:0004a3d0       iext_?OnDblClick@CUTreeBox@@IAEXPAUtagNMHDR@@PAJ@Z 0044b3d0 f   iext_static:unit.obj
 0001:0004a430       iext_?OnBeginlabeledit@CUTreeBox@@IAEXPAUtagNMHDR@@PAJ@Z 0044b430 f   iext_static:unit.obj
 0001:0004a4d0       iext_?OnEndlabeledit@CUTreeBox@@IAEXPAUtagNMHDR@@PAJ@Z 0044b4d0 f   iext_static:unit.obj
 0001:0004a5e0       iext_?_iext_FindItemIndex@@YAHPAVCTreeCtrl@@PAU_TREEITEM@@@Z 0044b5e0 f   iext_static:unit.obj
 0001:0004a6b0       iext_?OnTimer@CUTreeBox@@IAEXI@Z 0044b6b0 f   iext_static:unit.obj
 0001:0004a6e0       iext_?UpdateStateImageIndex@CUTreeBox@@QAEXXZ 0044b6e0 f   iext_static:unit.obj
 0001:0004a750       iext_?OnWinSizeChanged@CUStatusBar@@IAEXXZ 0044b750 f   iext_static:unit.obj
 0001:0004a770       ??5CArchive@@QAEAAV0@AAJ@Z 0044b770 f i iext_static:unit.obj
 0001:0004a770       iext_??5CArchive@@QAEAAV0@AAJ@Z 0044b770 f i iext_static:unit.obj
 0001:0004a770       edroptarget_??5CArchive@@QAEAAV0@AAJ@Z 0044b770 f i iext_static:unit.obj
 0001:0004a7b0       iext_?OnWinSizeChanged@CUToolBar@@IAEXXZ 0044b7b0 f   iext_static:unit.obj
 0001:0004a7d0       iext_?OnEnableTipText@CUToolBar@@IAEJIJ@Z 0044b7d0 f   iext_static:unit.obj
 0001:0004a7e0       iext_?OnGetTipText@CUToolBar@@IAEJIJ@Z 0044b7e0 f   iext_static:unit.obj
 0001:0004a850       iext_?OnNeedTipText@CUToolBar@@QAEHIPAUtagNMHDR@@PAJ@Z 0044b850 f   iext_static:unit.obj
 0001:0004a900       iext_?OnEraseBack@CUToolBar@@IAEXPAUtagNMHDR@@PAJ@Z 0044b900 f   iext_static:unit.obj
 0001:0004a9a0       iext_?GetBtnCount@CUToolBar@@QAEHXZ 0044b9a0 f   iext_static:unit.obj
 0001:0004a9c0       iext_??0CPoint@@QAE@UtagPOINT@@@Z 0044b9c0 f i iext_static:unit.obj
 0001:0004a9e0       iext_?OnNeedTipText@CNotifyWnd@@IAEHIPAUtagNMHDR@@PAJ@Z 0044b9e0 f   iext_static:unit.obj
 0001:0004aa30       iext_?ProcessEvent@CNotifyWnd@@IAEHIHPAJ@Z 0044ba30 f   iext_static:unit.obj
 0001:0004ab60       iext_?OnDropDown@CNotifyWnd@@IAEHIPAUtagNMHDR@@PAJ@Z 0044bb60 f   iext_static:unit.obj
 0001:0004ab80       iext_?init@CPIListView@@UAEXXZ 0044bb80 f   iext_static:unit.obj
 0001:0004ac40       iext_?Serialize@CPIListView@@UAEHAAVCArchive@@@Z 0044bc40 f   iext_static:unit.obj
 0001:0004b1e0       iext_??1CBrush@@UAE@XZ     0044c1e0 f i iext_static:unit.obj
 0001:0004b220       iext_??1CFont@@UAE@XZ      0044c220 f i iext_static:unit.obj
 0001:0004b260       iext_?LangCnvListView@@YGPAXPAEPAHP6GXPADKH@ZH@Z 0044c260 f   iext_static:unit.obj
 0001:0004b4b0       iext_??1CPIListView@@QAE@XZ 0044c4b0 f i iext_static:unit.obj
 0001:0004b560       _iext_GetInterface_ListView@4 0044c560 f   iext_static:unit.obj
 0001:0004c670       iext_??0CUListView@@QAE@XZ 0044d670 f   iext_static:unit.obj
 0001:0004c770       ??_ECUListView@@UAEPAXI@Z  0044d770 f i iext_static:unit.obj
 0001:0004c770       iext_??_GCUListView@@UAEPAXI@Z 0044d770 f i iext_static:unit.obj
 0001:0004c790       iext_??1CUListView@@UAE@XZ 0044d790 f   iext_static:unit.obj
 0001:0004c8c0       iext_?GetMessageMap@CUListView@@MBEPBUAFX_MSGMAP@@XZ 0044d8c0 f   iext_static:unit.obj
 0001:0004c8d0       ?OnGetWndPtr@CColourPicker@@IAEJIJ@Z 0044d8d0 f   iext_static:unit.obj
 0001:0004c8d0       iext_?OnGetWndPtr@CUTreeBox@@IAEJIJ@Z 0044d8d0 f   iext_static:unit.obj
 0001:0004c8d0       ?OnGetWndPtr@CUHScrollBar@@IAEJIJ@Z 0044d8d0 f   iext_static:unit.obj
 0001:0004c8d0       iext_?OnGetWndPtr@CUListView@@IAEJIJ@Z 0044d8d0 f   iext_static:unit.obj
 0001:0004c8d0       ?OnGetWndPtr@CUVScrollBar@@IAEJIJ@Z 0044d8d0 f   iext_static:unit.obj
 0001:0004c8e0       iext_?OnSetfocus@CUListView@@IAEXPAUtagNMHDR@@PAJ@Z 0044d8e0 f   iext_static:unit.obj
 0001:0004c940       iext_?OnKillfocus@CUListView@@IAEXPAUtagNMHDR@@PAJ@Z 0044d940 f   iext_static:unit.obj
 0001:0004c9a0       iext_?OnItemChanged@CUListView@@IAEXPAUtagNMHDR@@PAJ@Z 0044d9a0 f   iext_static:unit.obj
 0001:0004ca20       iext_?OnItemActivate@CUListView@@IAEXPAUtagNMHDR@@PAJ@Z 0044da20 f   iext_static:unit.obj
 0001:0004ca80       iext_?OnColClicked@CUListView@@IAEXPAUtagNMHDR@@PAJ@Z 0044da80 f   iext_static:unit.obj
 0001:0004caf0       iext_?OnHotTrack@CUListView@@IAEXPAUtagNMHDR@@PAJ@Z 0044daf0 f   iext_static:unit.obj
 0001:0004cb60       iext_?OnClick@CUListView@@IAEXPAUtagNMHDR@@PAJ@Z 0044db60 f   iext_static:unit.obj
 0001:0004cc30       iext_?OnRClick@CUListView@@IAEXPAUtagNMHDR@@PAJ@Z 0044dc30 f   iext_static:unit.obj
 0001:0004cca0       iext_?OnDbClick@CUListView@@IAEXPAUtagNMHDR@@PAJ@Z 0044dca0 f   iext_static:unit.obj
 0001:0004ccc0       iext_?OnChar@CUListView@@IAEXIII@Z 0044dcc0 f   iext_static:unit.obj
 0001:0004cd10       iext_?OnCheckboxChanged@CUListView@@IAEJIJ@Z 0044dd10 f   iext_static:unit.obj
 0001:0004cd90       iext_?OnBeginlabeledit@CUListView@@IAEXPAUtagNMHDR@@PAJ@Z 0044dd90 f   iext_static:unit.obj
 0001:0004ce20       iext_?OnEndlabeledit@CUListView@@IAEXPAUtagNMHDR@@PAJ@Z 0044de20 f   iext_static:unit.obj
 0001:0004cf30       iext_?OnGetTip@CUListView@@IAEXPAUtagNMHDR@@PAJ@Z 0044df30 f   iext_static:unit.obj
 0001:0004cfe0       iext_?PostNcDestroy@CUListView@@MAEXXZ 0044dfe0 f   iext_static:unit.obj
 0001:0004d010       iext_?FillCols@CUListView@@QAEXXZ 0044e010 f   iext_static:unit.obj
 0001:0004d100       iext_?FillItem@CUListView@@QAEXXZ 0044e100 f   iext_static:unit.obj
 0001:0004d280       iext_?SetCurSel@CUListView@@QAEXH@Z 0044e280 f   iext_static:unit.obj
 0001:0004d4f0       iext_?OnMove@CUTransLabel@@IAEXHH@Z 0044e4f0 f   iext_static:unit.obj
 0001:0004d510       iext_?OnPaint@CUTransLabel@@IAEXXZ 0044e510 f   iext_static:unit.obj
 0001:0004d570       iext_?DoPaint@CUTransLabel@@AAEXPAVCDC@@@Z 0044e570 f   iext_static:unit.obj
 0001:0004d7e0       iext_?BeginModalState@CWnd@@UAEXXZ 0044e7e0 f i iext_static:unit.obj
 0001:0004d7e0       edroptarget_?BeginModalState@CWnd@@UAEXXZ 0044e7e0 f i iext_static:unit.obj
 0001:0004d7e0       ?BeginModalState@CWnd@@UAEXXZ 0044e7e0 f i iext_static:unit.obj
 0001:0004d7f0       iext_?EndModalState@CWnd@@UAEXXZ 0044e7f0 f i iext_static:unit.obj
 0001:0004d7f0       ?EndModalState@CWnd@@UAEXXZ 0044e7f0 f i iext_static:unit.obj
 0001:0004d7f0       edroptarget_?EndModalState@CWnd@@UAEXXZ 0044e7f0 f i iext_static:unit.obj
 0001:0004d800       ??_ECListCtrl@@UAEPAXI@Z   0044e800 f i iext_static:unit.obj
 0001:0004d800       iext_??_GCListCtrl@@UAEPAXI@Z 0044e800 f i iext_static:unit.obj
 0001:0004d820       iext_??1CMyDWordArray@@UAE@XZ 0044e820 f i iext_static:unit.obj
 0001:0004d820       iext_??1CFreqMem@@UAE@XZ   0044e820 f i iext_static:unit.obj
 0001:0004d830       iext_?SaveData@CPropertyInfo@@QAEPAXPAH@Z 0044e830 f   iext_static:unit.obj
 0001:0004d950       iext_?LoadData@CPropertyInfo@@QAEHPAEH@Z 0044e950 f   iext_static:unit.obj
 0001:0004da40       iext_?ChangeBorder@@YAXPAVCWnd@@H@Z 0044ea40 f   iext_static:unit.obj
 0001:0004dac0       iext_?CreateImageList@@YAHPAVCImageList@@PAEH@Z 0044eac0 f   iext_static:unit.obj
 0001:0004dc30       ?ProcessSysBackColor@@YAKK@Z 0044ec30 f   iext_static:unit.obj
 0001:0004dc30       iext_?ProcessSysBackColor@@YAKK@Z 0044ec30 f   iext_static:unit.obj
 0001:0004dc50       iext_?GetWndPtr@@YAPAVCWnd@@PAUMDATA_INF@@@Z 0044ec50 f   iext_static:unit.obj
 0001:0004dc70       iext_?ModiUnitStyle@@YAXPAVCWnd@@KK@Z 0044ec70 f   iext_static:unit.obj
 0001:0004dcb0       iext_?SetUnitStyle@@YAXPAVCWnd@@HK@Z 0044ecb0 f   iext_static:unit.obj
 0001:0004dce0       iext_?ChangeFontProperty@@YAXPAVCWnd@@AAVCFont@@AAVCFreqMem@@PATUNIT_PROPERTY_VALUE@@@Z 0044ece0 f   iext_static:unit.obj
 0001:0004dd80       ?SetUnitFont@@YAXPAVCWnd@@AAVCFont@@AAVCFreqMem@@@Z 0044ed80 f   iext_static:unit.obj
 0001:0004dd80       iext_?SetUnitFont@@YAXPAVCWnd@@AAVCFont@@AAVCFreqMem@@@Z 0044ed80 f   iext_static:unit.obj
 0001:0004de00       iext_??0CFreqMem@@QAE@XZ   0044ee00 f   iext_static:Mem.obj
 0001:0004de20       iext_?Alloc@CFreqMem@@QAEPAEH@Z 0044ee20 f   iext_static:Mem.obj
 0001:0004def0       iext_?Realloc@CFreqMem@@QAEPAEH@Z 0044eef0 f   iext_static:Mem.obj
 0001:0004e000       iext_?Free@CFreqMem@@QAEXXZ 0044f000 f   iext_static:Mem.obj
 0001:0004e020       iext_?_Free@CFreqMem@@IAEXPAE@Z 0044f020 f   iext_static:Mem.obj
 0001:0004e090       iext_?AddDWord@CFreqMem@@QAEXK@Z 0044f090 f   iext_static:Mem.obj
 0001:0004e090       iext_?AddInt@CFreqMem@@QAEXH@Z 0044f090 f   iext_static:Mem.obj
 0001:0004e0d0       iext_?Serialize@CFreqMem@@QAEXAAVCArchive@@@Z 0044f0d0 f   iext_static:Mem.obj
 0001:0004e180       iext_?Append@CFreqMem@@QAEHPAEH@Z 0044f180 f   iext_static:Mem.obj
 0001:0004e1e0       ?ZeroMem@@YAXPAEK@Z        0044f1e0 f   iext_static:Mem.obj
 0001:0004e1e0       iext_?ZeroMem@@YAXPAEK@Z   0044f1e0 f   iext_static:Mem.obj
 0001:0004e230       ?FindByte@@YAHPAEHE@Z      0044f230 f   iext_static:Mem.obj
 0001:0004e230       iext_?FindByte@@YAHPAEHE@Z 0044f230 f   iext_static:Mem.obj
 0001:0004e280       _ClosePrinter@4            0044f280 f   winspool:WINSPOOL.DRV
 0001:0004e286       _DocumentPropertiesA@24    0044f286 f   winspool:WINSPOOL.DRV
 0001:0004e28c       _OpenPrinterA@12           0044f28c f   winspool:WINSPOOL.DRV
 0001:0004e292       ?_AfxOleDateFromTm@@YGHGGGGGGAAN@Z 0044f292 f   nafxcw:olevar.obj
 0001:0004e3cf       ?_AfxTmFromOleDate@@YGHNAAUtm@@@Z 0044f3cf f   nafxcw:olevar.obj
 0001:0004e5aa       ??6CArchive@@QAEAAV0@E@Z   0044f5aa f i nafxcw:olevar.obj
 0001:0004e5cd       ??6CArchive@@QAEAAV0@G@Z   0044f5cd f i nafxcw:olevar.obj
 0001:0004e5f4       ?_AfxDoubleFromDate@@YGNN@Z 0044f5f4 f   nafxcw:olevar.obj
 0001:0004e61a       ?GetTickCount@COleDateTime@@SG?AV1@XZ 0044f61a f   nafxcw:olevar.obj
 0001:0004e63c       ?GetAsSystemTime@COleDateTime@@QBEHAAU_SYSTEMTIME@@@Z 0044f63c f   nafxcw:olevar.obj
 0001:0004e6a6       ?GetYear@COleDateTime@@QBEHXZ 0044f6a6 f   nafxcw:olevar.obj
 0001:0004e6d0       ?GetMonth@COleDateTime@@QBEHXZ 0044f6d0 f   nafxcw:olevar.obj
 0001:0004e6fa       ??5CArchive@@QAEAAV0@AAK@Z 0044f6fa f i nafxcw:olevar.obj
 0001:0004e72c       ?GetDay@COleDateTime@@QBEHXZ 0044f72c f   nafxcw:olevar.obj
 0001:0004e756       ?GetHour@COleDateTime@@QBEHXZ 0044f756 f   nafxcw:olevar.obj
 0001:0004e780       ?GetMinute@COleDateTime@@QBEHXZ 0044f780 f   nafxcw:olevar.obj
 0001:0004e7aa       ?GetSecond@COleDateTime@@QBEHXZ 0044f7aa f   nafxcw:olevar.obj
 0001:0004e7d4       ??4COleDateTime@@QAEABV0@N@Z 0044f7d4 f   nafxcw:olevar.obj
 0001:0004e7e3       ??4COleDateTime@@QAEABV0@ABJ@Z 0044f7e3 f   nafxcw:olevar.obj
 0001:0004e834       ??MCOleDateTime@@QBEHABV0@@Z 0044f834 f   nafxcw:olevar.obj
 0001:0004e86a       ??OCOleDateTime@@QBEHABV0@@Z 0044f86a f   nafxcw:olevar.obj
 0001:0004e8a0       ?SetDateTime@COleDateTime@@QAEHHHHHHH@Z 0044f8a0 f   nafxcw:olevar.obj
 0001:0004e8cb       ??0CMemoryException@@QAE@HI@Z 0044f8cb f i nafxcw:except.obj
 0001:0004e8f5       ??_ECMemoryException@@UAEPAXI@Z 0044f8f5 f i nafxcw:except.obj
 0001:0004e8f5       ??_GCMemoryException@@UAEPAXI@Z 0044f8f5 f i nafxcw:except.obj
 0001:0004e911       ??1CMemoryException@@UAE@XZ 0044f911 f i nafxcw:except.obj
 0001:0004e918       ??0CNotSupportedException@@QAE@HI@Z 0044f918 f i nafxcw:except.obj
 0001:0004e942       ??_GCNotSupportedException@@UAEPAXI@Z 0044f942 f i nafxcw:except.obj
 0001:0004e942       ??_ECNotSupportedException@@UAEPAXI@Z 0044f942 f i nafxcw:except.obj
 0001:0004e95e       ??1CNotSupportedException@@UAE@XZ 0044f95e f i nafxcw:except.obj
 0001:0004e965       ??0CResourceException@@QAE@HI@Z 0044f965 f i nafxcw:wingdi.obj
 0001:0004e98f       ??_ECResourceException@@UAEPAXI@Z 0044f98f f i nafxcw:wingdi.obj
 0001:0004e98f       ??_GCResourceException@@UAEPAXI@Z 0044f98f f i nafxcw:wingdi.obj
 0001:0004e9ab       ??1CResourceException@@UAE@XZ 0044f9ab f i nafxcw:wingdi.obj
 0001:0004e9b2       ??0CUserException@@QAE@HI@Z 0044f9b2 f i nafxcw:wingdi.obj
 0001:0004e9dc       ??_GCUserException@@UAEPAXI@Z 0044f9dc f i nafxcw:wingdi.obj
 0001:0004e9dc       ??_ECUserException@@UAEPAXI@Z 0044f9dc f i nafxcw:wingdi.obj
 0001:0004e9f8       ??1CUserException@@UAE@XZ  0044f9f8 f i nafxcw:wingdi.obj
 0001:0004e9ff       ?PtVisible@CDC@@UBEHHH@Z   0044f9ff f i nafxcw:wingdi.obj
 0001:0004ea13       ?RectVisible@CDC@@UBEHPBUtagRECT@@@Z 0044fa13 f i nafxcw:wingdi.obj
 0001:0004ea23       ?TextOutA@CDC@@UAEHHHPBDH@Z 0044fa23 f i nafxcw:wingdi.obj
 0001:0004ea3f       ?ExtTextOutA@CDC@@UAEHHHIPBUtagRECT@@PBDIPAH@Z 0044fa3f f i nafxcw:wingdi.obj
 0001:0004ea64       ?TabbedTextOutA@CDC@@UAE?AVCSize@@HHPBDHHPAHH@Z 0044fa64 f i nafxcw:wingdi.obj
 0001:0004ea9c       ?DrawTextA@CDC@@UAEHPBDHPAUtagRECT@@I@Z 0044fa9c f i nafxcw:wingdi.obj
 0001:0004eab8       ?GrayStringA@CDC@@UAEHPAVCBrush@@P6GHPAUHDC__@@JH@ZJHHHHH@Z 0044fab8 f i nafxcw:wingdi.obj
 0001:0004eae8       ?Escape@CDC@@UAEHHHPBDPAX@Z 0044fae8 f i nafxcw:wingdi.obj
 0001:0004eb04       ?AfxGetMainWnd@@YGPAVCWnd@@XZ 0044fb04 f i nafxcw:dlgcore.obj
 0001:0004eb18       ??_9@$BME@AE               0044fb18 f i nafxcw:dlgcore.obj
 0001:0004eb20       ??_9@$BMI@AE               0044fb20 f i nafxcw:dlgcore.obj
 0001:0004eb28       _InitMultipleMonitorStubs  0044fb28 f   nafxcw:wincore.obj
 0001:0004ec00       _xMonitorFromRect@8        0044fc00 f   nafxcw:wincore.obj
 0001:0004ec56       _xMonitorFromWindow@8      0044fc56 f   nafxcw:wincore.obj
 0001:0004ecc1       _xGetMonitorInfo@8         0044fcc1 f   nafxcw:wincore.obj
 0001:0004ed54       ?GetOwner@CWnd@@QBEPAV1@XZ 0044fd54 f i nafxcw:wincore.obj
 0001:0004ed6b       ??1CWaitCursor@@QAE@XZ     0044fd6b f i nafxcw:wincore.obj
 0001:0004ed78       ?LoadBitmapA@CBitmap@@QAEHI@Z 0044fd78 f i nafxcw:winctrl3.obj
 0001:0004ed9c       ?GetFont@CWnd@@QBEPAVCFont@@XZ 0044fd9c f i nafxcw:winctrl3.obj
 0001:0004edb2       ??_ECArchiveException@@UAEPAXI@Z 0044fdb2 f i nafxcw:arcex.obj
 0001:0004edb2       ??_GCArchiveException@@UAEPAXI@Z 0044fdb2 f i nafxcw:arcex.obj
 0001:0004edce       ??1CArchiveException@@UAE@XZ 0044fdce f i nafxcw:arcex.obj
 0001:0004edfa       ?SetTime@CDateTimeCtrl@@QAEHABVCOleDateTime@@@Z 0044fdfa f   nafxcw:winctrl5.obj
 0001:0004ee38       ??_GCMenu@@UAEPAXI@Z       0044fe38 f i nafxcw:winmenu.obj
 0001:0004ee38       ??_ECMenu@@UAEPAXI@Z       0044fe38 f i nafxcw:winmenu.obj
 0001:0004ee54       ??1CMenu@@UAE@XZ           0044fe54 f i nafxcw:winmenu.obj
 0001:0004ee7d       ??0CFixedAlloc@@QAE@II@Z   0044fe7d f   nafxcw:fixalloc.obj
 0001:0004eea5       ??1CFixedAlloc@@QAE@XZ     0044fea5 f   nafxcw:fixalloc.obj
 0001:0004eeb9       ?FreeAll@CFixedAlloc@@QAEXXZ 0044feb9 f   nafxcw:fixalloc.obj
 0001:0004eee1       ?Alloc@CFixedAlloc@@QAEPAXXZ 0044fee1 f   nafxcw:fixalloc.obj
 0001:0004ef70       ?Free@CFixedAlloc@@QAEXPAX@Z 0044ff70 f   nafxcw:fixalloc.obj
 0001:0004ef9c       ??_ECHandleMap@@UAEPAXI@Z  0044ff9c f i nafxcw:winhand.obj
 0001:0004ef9c       ??_GCHandleMap@@UAEPAXI@Z  0044ff9c f i nafxcw:winhand.obj
 0001:0004efb8       ??1CHandleMap@@UAE@XZ      0044ffb8 f i nafxcw:winhand.obj
 0001:0004f000       _WinMainCRTStartup         00450000 f   libcmt:wincrt0.obj
 0001:0004f108       __amsg_exit                00450108 f   libcmt:wincrt0.obj
 0001:0004f151       __fpmath                   00450151 f   libcmt:fpinit.obj
 0001:0004f168       __fpclear                  00450168 f   libcmt:fpinit.obj
 0001:0004f169       __cfltcvt_init             00450169 f   libcmt:fpinit.obj
 0001:0004f1b0       __CIpow                    004501b0 f   libcmt:pow.obj
 0001:0004f1c9       _pow                       004501c9 f   libcmt:pow.obj
 0001:0004f3cd       _modf                      004503cd f   libcmt:modf.obj
 0001:0004f4f0       _fmod                      004504f0 f   libcmt:87fmod.obj
 0001:0004f4fa       __CIfmod                   004504fa f   libcmt:87fmod.obj
 0001:0004f530       _strncmp                   00450530 f   libcmt:strncmp.obj
 0001:0004f568       _floor                     00450568 f   libcmt:floor.obj
 0001:0004f638       __ftol                     00450638 f   libcmt:ftol.obj
 0001:0004f65f       __copysign                 0045065f f   libcmt:ieeemisc.obj
 0001:0004f680       __fpclass                  00450680 f   libcmt:ieeemisc.obj
 0001:0004f712       _getenv                    00450712 f   libcmt:getenv.obj
 0001:0004f733       __getenv_lk                00450733 f   libcmt:getenv.obj
 0001:0004f7b0       ?_JumpToContinuation@@YGXPAXPAUEHRegistrationNode@@@Z 004507b0 f   libcmt:trnsctrl.obj
 0001:0004f7e4       ?_CallMemberFunction0@@YGXPAX0@Z 004507e4 f   libcmt:trnsctrl.obj
 0001:0004f7e4       ?_CallMemberFunction1@@YGXPAX00@Z 004507e4 f   libcmt:trnsctrl.obj
 0001:0004f7eb       ?_CallMemberFunction2@@YGXPAX00H@Z 004507eb f   libcmt:trnsctrl.obj
 0001:0004f7f2       ?_UnwindNestedFrames@@YGXPAUEHRegistrationNode@@PAUEHExceptionRecord@@@Z 004507f2 f   libcmt:trnsctrl.obj
 0001:0004f841       ___CxxFrameHandler         00450841 f   libcmt:trnsctrl.obj
 0001:0004f877       ?_CallCatchBlock2@@YAPAXPAUEHRegistrationNode@@PBU_s_FuncInfo@@PAXHK@Z 00450877 f   libcmt:trnsctrl.obj
 0001:0004f8f0       ?_CallSETranslator@@YAHPAUEHExceptionRecord@@PAUEHRegistrationNode@@PAX2PBU_s_FuncInfo@@H1@Z 004508f0 f   libcmt:trnsctrl.obj
 0001:0004fa1b       ?_GetRangeOfTrysToCheck@@YAPBU_s_TryBlockMapEntry@@PBU_s_FuncInfo@@HHPAI1@Z 00450a1b f   libcmt:trnsctrl.obj
 0001:0004fa98       __global_unwind2           00450a98 f   libcmt:exsup.obj
 0001:0004fada       __local_unwind2            00450ada f   libcmt:exsup.obj
 0001:0004fb32       __NLG_Return2              00450b32 f   libcmt:exsup.obj
 0001:0004fb42       __abnormal_termination     00450b42 f   libcmt:exsup.obj
 0001:0004fb65       __NLG_Notify1              00450b65 f   libcmt:exsup.obj
 0001:0004fb6e       __NLG_Notify               00450b6e f   libcmt:exsup.obj
 0001:0004fb81       __NLG_Dispatch             00450b81 f   libcmt:exsup.obj
 0001:0004fb86       _atof                      00450b86 f   libcmt:atof.obj
 0001:0004fbdd       _atol                      00450bdd f   libcmt:atox.obj
 0001:0004fc68       _atoi                      00450c68 f   libcmt:atox.obj
 0001:0004fc73       __atoi64                   00450c73 f   libcmt:atox.obj
 0001:0004fd2d       _isspace                   00450d2d f   libcmt:_ctype.obj
 0001:0004fd60       __allmul                   00450d60 f   libcmt:llmul.obj
 0001:0004fd94       __mbscmp                   00450d94 f   libcmt:mbscmp.obj
 0001:0004fe43       __mbsicmp                  00450e43 f   libcmt:mbsicmp.obj
 0001:0004ffe0       __alldiv                   00450fe0 f   libcmt:lldiv.obj
 0001:00050090       __allrem                   00451090 f   libcmt:llrem.obj
 0001:00050150       _memmove                   00451150 f   libcmt:memmove.obj
 0001:00050485       __i64toa                   00451485 f   libcmt:xtoa.obj
 0001:00050540       __aullshr                  00451540 f   libcmt:ullshr.obj
 0001:0005055f       ??1type_info@@UAE@XZ       0045155f f   libcmt:typinfo.obj
 0001:00050588       ??_Gtype_info@@UAEPAXI@Z   00451588 f i libcmt:typinfo.obj
 0001:00050588       ??_Etype_info@@UAEPAXI@Z   00451588 f i libcmt:typinfo.obj
 0001:000505b0       __alloca_probe             004515b0 f   libcmt:chkstk.obj
 0001:000505b0       __chkstk                   004515b0 f   libcmt:chkstk.obj
 0001:000505df       __mbsnbcmp                 004515df f   libcmt:mbsnbcmp.obj
 0001:000506d0       _strncpy                   004516d0 f   libcmt:strncpy.obj
 0001:000507ce       _free                      004517ce f   libcmt:free.obj
 0001:000508b7       _malloc                    004518b7 f   libcmt:malloc.obj
 0001:000508c9       __nh_malloc                004518c9 f   libcmt:malloc.obj
 0001:000508f5       __heap_alloc               004518f5 f   libcmt:malloc.obj
 0001:000509f1       ___initstdio               004519f1 f   libcmt:_file.obj
 0001:00050a99       ___endstdio                00451a99 f   libcmt:_file.obj
 0001:00050aad       __lock_file                00451aad f   libcmt:_file.obj
 0001:00050adc       __lock_file2               00451adc f   libcmt:_file.obj
 0001:00050aff       __unlock_file              00451aff f   libcmt:_file.obj
 0001:00050b2e       __unlock_file2             00451b2e f   libcmt:_file.obj
 0001:00050b51       __onexit                   00451b51 f   libcmt:onexit.obj
 0001:00050bcf       _atexit                    00451bcf f   libcmt:onexit.obj
 0001:00050be1       ___onexitinit              00451be1 f   libcmt:onexit.obj
 0001:00050c10       _toupper                   00451c10 f   libcmt:toupper.obj
 0001:00050c7f       __toupper_lk               00451c7f f   libcmt:toupper.obj
 0001:00050d50       _strstr                    00451d50 f   libcmt:strstr.obj
 0001:00050dd0       __mbsstr                   00451dd0 f   libcmt:mbsstr.obj
 0001:00050e60       _strchr                    00451e60 f   libcmt:strchr.obj
 0001:00050e66       ___from_strstr_to_strchr   00451e66 f   libcmt:strchr.obj
 0001:00050f20       _strrchr                   00451f20 f   libcmt:strrchr.obj
 0001:00050f47       __mbsrchr                  00451f47 f   libcmt:mbsrchr.obj
 0001:00050fb9       _ldiv                      00451fb9 f   libcmt:ldiv.obj
 0001:00050fde       _strtok                    00451fde f   libcmt:strtok.obj
 0001:00051090       _memchr                    00452090 f   libcmt:memchr.obj
 0001:00051138       __setjmp3                  00452138 f   libcmt:setjmp3.obj
 0001:000511b4       _longjmp                   004521b4 f   libcmt:longjmp.obj
 0001:0005122d       _sscanf                    0045222d f   libcmt:sscanf.obj
 0001:00051261       _wcslen                    00452261 f   libcmt:wcslen.obj
 0001:0005127e       _realloc                   0045227e f   libcmt:realloc.obj
 0001:000515b0       _memcpy                    004525b0 f   libcmt:memcpy.obj
 0001:000518e8       __EH_prolog                004528e8 f   libcmt:ehprolog.obj
 0001:00051907       __mbschr                   00452907 f   libcmt:mbschr.obj
 0001:000519a0       _memset                    004529a0 f   libcmt:memset.obj
 0001:000519f8       __mbsinc                   004529f8 f   libcmt:mbsinc.obj
 0001:00051a0f       _vsprintf                  00452a0f f   libcmt:vsprintf.obj
 0001:00051a60       __mbclen                   00452a60 f   libcmt:mbclen.obj
 0001:00051a80       _strlen                    00452a80 f   libcmt:strlen.obj
 0001:00051afb       _sprintf                   00452afb f   libcmt:sprintf.obj
 0001:00051b4d       __ismbcdigit               00452b4d f   libcmt:ismbdgt.obj
 0001:00051bdc       __ismbcspace               00452bdc f   libcmt:ismbspc.obj
 0001:00051c70       _memcmp                    00452c70 f   libcmt:memcmp.obj
 0001:00051d1c       __CxxThrowException@8      00452d1c f   libcmt:throw.obj
 0001:00051d56       _fabs                      00452d56 f   libcmt:fabs.obj
 0001:00051e0b       _ceil                      00452e0b f   libcmt:ceil.obj
 0001:00051eda       _time                      00452eda f   libcmt:time.obj
 0001:00051fb6       _localtime                 00452fb6 f   libcmt:localtim.obj
 0001:00052116       _abs                       00453116 f   libcmt:abs.obj
 0001:00052121       __strdup                   00453121 f   libcmt:strdup.obj
 0001:0005214c       __cinit                    0045314c f   libcmt:crt0dat.obj
 0001:00052179       _exit                      00453179 f   libcmt:crt0dat.obj
 0001:0005218a       __exit                     0045318a f   libcmt:crt0dat.obj
 0001:00052240       __lockexit                 00453240 f   libcmt:crt0dat.obj
 0001:00052249       __unlockexit               00453249 f   libcmt:crt0dat.obj
 0001:0005226c       __expand                   0045326c f   libcmt:expand.obj
 0001:000523d0       __msize                    004533d0 f   libcmt:msize.obj
 0001:000524be       _strtol                    004534be f   libcmt:strtol.obj
 0001:000526da       __dosmaperr                004536da f   libcmt:dosmap.obj
 0001:0005274d       __errno                    0045374d f   libcmt:dosmap.obj
 0001:00052756       ___doserrno                00453756 f   libcmt:dosmap.obj
 0001:0005275f       _mktime                    0045375f f   libcmt:mktime.obj
 0001:00052951       _gmtime                    00453951 f   libcmt:gmtime.obj
 0001:00052a5b       __setmbcp                  00453a5b f   libcmt:mbctype.obj
 0001:00052e33       ___initmbctable            00453e33 f   libcmt:mbctype.obj
 0001:00052e4f       __XcptFilter               00453e4f f   libcmt:winxfltr.obj
 0001:00052fc7       __wincmdln                 00453fc7 f   libcmt:wincmdln.obj
 0001:0005301f       __setenvp                  0045401f f   libcmt:stdenvp.obj
 0001:000530d8       __setargv                  004540d8 f   libcmt:stdargv.obj
 0001:00053325       ___crtGetEnvironmentStringsA 00454325 f   libcmt:a_env.obj
 0001:00053457       __ioinit                   00454457 f   libcmt:ioinit.obj
 0001:00053613       __mtinit                   00454613 f   libcmt:tidtable.obj
 0001:00053667       __initptd                  00454667 f   libcmt:tidtable.obj
 0001:0005367a       __getptd                   0045467a f   libcmt:tidtable.obj
 0001:000536e1       __GetLinkerVersion         004546e1 f   libcmt:heapinit.obj
 0001:0005370e       ___heap_select             0045470e f   libcmt:heapinit.obj
 0001:00053856       __heap_init                00454856 f   libcmt:heapinit.obj
 0001:000538bc       __except_handler3          004548bc f   libcmt:exsup3.obj
 0001:00053979       __seh_longjmp_unwind@4     00454979 f   libcmt:exsup3.obj
 0001:00053994       __FF_MSGBANNER             00454994 f   libcmt:crt0msg.obj
 0001:000539cd       __NMSG_WRITE               004549cd f   libcmt:crt0msg.obj
 0001:00053b20       __setdefaultprecision      00454b20 f   libcmt:fp8.obj
 0001:00053b32       __ms_p5_test_fdiv          00454b32 f   libcmt:testfdiv.obj
 0001:00053b70       __ms_p5_mp_test_fdiv       00454b70 f   libcmt:testfdiv.obj
 0001:00053b99       __forcdecpt                00454b99 f   libcmt:cvt.obj
 0001:00053bf3       __cropzeros                00454bf3 f   libcmt:cvt.obj
 0001:00053c41       __positive                 00454c41 f   libcmt:cvt.obj
 0001:00053c59       __fassign                  00454c59 f   libcmt:cvt.obj
 0001:00053c97       __cftoe                    00454c97 f   libcmt:cvt.obj
 0001:00053dba       __cftof                    00454dba f   libcmt:cvt.obj
 0001:00053eb6       __cftog                    00454eb6 f   libcmt:cvt.obj
 0001:00053f49       __cfltcvt                  00454f49 f   libcmt:cvt.obj
 0001:00053fd1       __fFEXP                    00454fd1 f   libcmt:87tran.obj
 0001:00054038       __rtinfpopse               00455038 f   libcmt:87tran.obj
 0001:0005403a       __rtinfnpopse              0045503a f   libcmt:87tran.obj
 0001:0005404a       __fFLN                     0045504a f   libcmt:87tran.obj
 0001:000540ff       __rtinfpop                 004550ff f   libcmt:87tran.obj
 0001:00054101       __rtinfnpop                00455101 f   libcmt:87tran.obj
 0001:0005411e       __ffexpm1                  0045511e f   libcmt:87tran.obj
 0001:000541d0       __trandisp1                004551d0 f   libcmt:87disp.obj
 0001:00054237       __trandisp2                00455237 f   libcmt:87disp.obj
 0001:000542c3       __rttospopde               004552c3 f   libcmt:87disp.obj
 0001:000542c8       __rttospop                 004552c8 f   libcmt:87disp.obj
 0001:000542ca       __rtnospop                 004552ca f   libcmt:87disp.obj
 0001:000542cc       __rttosnpop                004552cc f   libcmt:87disp.obj
 0001:000542cd       __rtnospopde               004552cd f   libcmt:87disp.obj
 0001:000542d4       __rtzeropop                004552d4 f   libcmt:87disp.obj
 0001:000542d6       __rtzeronpop               004552d6 f   libcmt:87disp.obj
 0001:000542db       __rtonepop                 004552db f   libcmt:87disp.obj
 0001:000542dd       __rtonenpop                004552dd f   libcmt:87disp.obj
 0001:000542e2       __tosnan1                  004552e2 f   libcmt:87disp.obj
 0001:0005430d       __nosnan2                  0045530d f   libcmt:87disp.obj
 0001:0005430f       __tosnan2                  0045530f f   libcmt:87disp.obj
 0001:00054337       __nan2                     00455337 f   libcmt:87disp.obj
 0001:00054376       __rtindfpop                00455376 f   libcmt:87disp.obj
 0001:00054378       __rtindfnpop               00455378 f   libcmt:87disp.obj
 0001:00054389       __rttosnpopde              00455389 f   libcmt:87disp.obj
 0001:00054393       __rtchsifneg               00455393 f   libcmt:87disp.obj
 0001:000543a0       __startTwoArgErrorHandling 004553a0 f   libcmt:genexcep.obj
 0001:000543b7       __startOneArgErrorHandling 004553b7 f   libcmt:genexcep.obj
 0001:00054400       __twoToTOS                 00455400 f   libcmt:common.obj
 0001:00054415       __load_CW                  00455415 f   libcmt:common.obj
 0001:0005442c       __convertTOStoQNaN         0045542c f   libcmt:common.obj
 0001:00054445       __fload_withFB             00455445 f   libcmt:common.obj
 0001:00054488       __checkTOS_withFB          00455488 f   libcmt:common.obj
 0001:0005449e       __fast_exit                0045549e f   libcmt:common.obj
 0001:000544ab       __math_exit                004554ab f   libcmt:common.obj
 0001:000544d5       __check_overflow_exit      004554d5 f   libcmt:common.obj
 0001:000544e9       __check_range_exit         004554e9 f   libcmt:common.obj
 0001:0005458c       __powhlp                   0045558c f   libcmt:powhlp.obj
 0001:000546bc       __d_inttype                004556bc f   libcmt:powhlp.obj
 0001:00054721       __frnd                     00455721 f   libcmt:frnd.obj
 0001:00054733       __handle_qnan1             00455733 f   libcmt:fpexcept.obj
 0001:00054787       __except1                  00455787 f   libcmt:fpexcept.obj
 0001:0005481f       __raise_exc                0045581f f   libcmt:fpexcept.obj
 0001:00054ad2       __handle_exc               00455ad2 f   libcmt:fpexcept.obj
 0001:00054ce9       __umatherr                 00455ce9 f   libcmt:fpexcept.obj
 0001:00054d71       __set_errno                00455d71 f   libcmt:fpexcept.obj
 0001:00054dbe       __errcode                  00455dbe f   libcmt:fpexcept.obj
 0001:00054deb       __set_exp                  00455deb f   libcmt:util.obj
 0001:00054e14       __sptype                   00455e14 f   libcmt:util.obj
 0001:00054e6e       __decomp                   00455e6e f   libcmt:util.obj
 0001:00054f2f       __statfp                   00455f2f f   libcmt:fpctrl.obj
 0001:00054f3d       __clrfp                    00455f3d f   libcmt:fpctrl.obj
 0001:00054f4c       __ctrlfp                   00455f4c f   libcmt:fpctrl.obj
 0001:00054f6f       __set_statfp               00455f6f f   libcmt:fpctrl.obj
 0001:00054fd0       __cintrindisp2             00455fd0 f   libcmt:87cdisp.obj
 0001:0005500e       __cintrindisp1             0045600e f   libcmt:87cdisp.obj
 0001:0005504b       __ctrandisp2               0045604b f   libcmt:87cdisp.obj
 0001:000551cb       __ctrandisp1               004561cb f   libcmt:87cdisp.obj
 0001:000551fe       __fload                    004561fe f   libcmt:87cdisp.obj
 0001:00055240       _fdiv_main_routine         00456240 f   libcmt:adj_fdiv.obj
 0001:00055357       __adj_fdiv_r               00456357 f   libcmt:adj_fdiv.obj
 0001:000557f6       __fdivp_sti_st             004567f6 f   libcmt:adj_fdiv.obj
 0001:00055809       __fdivrp_sti_st            00456809 f   libcmt:adj_fdiv.obj
 0001:0005581c       __adj_fdiv_m32             0045681c f   libcmt:adj_fdiv.obj
 0001:00055868       __adj_fdiv_m64             00456868 f   libcmt:adj_fdiv.obj
 0001:000558b4       __adj_fdiv_m16i            004568b4 f   libcmt:adj_fdiv.obj
 0001:000558e8       __adj_fdiv_m32i            004568e8 f   libcmt:adj_fdiv.obj
 0001:0005591c       __adj_fdivr_m32            0045691c f   libcmt:adj_fdiv.obj
 0001:00055968       __adj_fdivr_m64            00456968 f   libcmt:adj_fdiv.obj
 0001:000559b4       __adj_fdivr_m16i           004569b4 f   libcmt:adj_fdiv.obj
 0001:000559e8       __adj_fdivr_m32i           004569e8 f   libcmt:adj_fdiv.obj
 0001:00055a1c       __safe_fdiv                00456a1c f   libcmt:adj_fdiv.obj
 0001:00055a31       __safe_fdivr               00456a31 f   libcmt:adj_fdiv.obj
 0001:00055a46       __fprem_common             00456a46 f   libcmt:adj_fdiv.obj
 0001:00055c4c       __adj_fprem                00456c4c f   libcmt:adj_fdiv.obj
 0001:00055cfe       __fprem1_common            00456cfe f   libcmt:adj_fdiv.obj
 0001:00055f04       __adj_fprem1               00456f04 f   libcmt:adj_fdiv.obj
 0001:00055fb9       __safe_fprem               00456fb9 f   libcmt:adj_fdiv.obj
 0001:00055fbf       __safe_fprem1              00456fbf f   libcmt:adj_fdiv.obj
 0001:00055fc5       __adj_fpatan               00456fc5 f   libcmt:adj_fdiv.obj
 0001:00055fc8       __adj_fptan                00456fc8 f   libcmt:adj_fdiv.obj
 0001:00055fcb       __mtinitlocks              00456fcb f   libcmt:mlock.obj
 0001:00055ff4       __lock                     00456ff4 f   libcmt:mlock.obj
 0001:00056055       __unlock                   00457055 f   libcmt:mlock.obj
 0001:0005606a       __mbsnbicoll               0045706a f   libcmt:mbsnbico.obj
 0001:000560a9       ___wtomb_environ           004570a9 f   libcmt:wtombenv.obj
 0001:00056117       ___crtsetenv               00457117 f   libcmt:setenv.obj
 0001:00056360       _strcpy                    00457360 f   libcmt:strcat.obj
 0001:00056370       _strcat                    00457370 f   libcmt:strcat.obj
 0001:00056450       ___InternalCxxFrameHandler 00457450 f   libcmt:frame.obj
 0001:000567a5       ___FrameUnwindToState      004577a5 f   libcmt:frame.obj
 0001:00056bdd       ?_DestructExceptionObject@@YAXPAUEHExceptionRecord@@E@Z 00457bdd f   libcmt:frame.obj
 0001:00056c70       __CallSettingFrame@12      00457c70 f   libcmt:lowhelpr.obj
 0001:00056c97       __NLG_Return               00457c97 f   libcmt:lowhelpr.obj
 0001:00056cbc       ?terminate@@YAXXZ          00457cbc f   libcmt:hooks.obj
 0001:00056d1d       ?_inconsistency@@YAXXZ     00457d1d f   libcmt:hooks.obj
 0001:00056d73       __fltin2                   00457d73 f   libcmt:cfin.obj
 0001:00056df2       __isctype                  00457df2 f   libcmt:isctype.obj
 0001:00056e70       _strcmp                    00457e70 f   libcmt:strcmp.obj
 0001:00056ef4       ___crtLCMapStringA         00457ef4 f   libcmt:a_map.obj
 0001:00057150       __strcmpi                  00458150 f   libcmt:stricmp.obj
 0001:00057150       _stricmp                   00458150 f   libcmt:stricmp.obj
 0001:00057150       __stricmp                  00458150 f   libcmt:stricmp.obj
 0001:00057220       __aulldiv                  00458220 f   libcmt:ulldiv.obj
 0001:00057290       __aullrem                  00458290 f   libcmt:ullrem.obj
 0001:00057305       ___sbh_heap_init           00458305 f   libcmt:sbheap.obj
 0001:0005734d       ___sbh_find_block          0045834d f   libcmt:sbheap.obj
 0001:00057378       ___sbh_free_block          00458378 f   libcmt:sbheap.obj
 0001:000576a1       ___sbh_alloc_block         004586a1 f   libcmt:sbheap.obj
 0001:000579aa       ___sbh_alloc_new_region    004589aa f   libcmt:sbheap.obj
 0001:00057a5b       ___sbh_alloc_new_group     00458a5b f   libcmt:sbheap.obj
 0001:00057b56       ___sbh_resize_block        00458b56 f   libcmt:sbheap.obj
 0001:00057e4c       ___old_sbh_new_region      00458e4c f   libcmt:sbheap.obj
 0001:00057f90       ___old_sbh_release_region  00458f90 f   libcmt:sbheap.obj
 0001:00057fe6       ___old_sbh_decommit_pages  00458fe6 f   libcmt:sbheap.obj
 0001:000580a8       ___old_sbh_find_block      004590a8 f   libcmt:sbheap.obj
 0001:000580ff       ___old_sbh_free_block      004590ff f   libcmt:sbheap.obj
 0001:00058144       ___old_sbh_alloc_block     00459144 f   libcmt:sbheap.obj
 0001:0005834c       ___old_sbh_alloc_block_from_page 0045934c f   libcmt:sbheap.obj
 0001:00058470       ___old_sbh_resize_block    00459470 f   libcmt:sbheap.obj
 0001:00058519       __callnewh                 00459519 f   libcmt:handler.obj
 0001:00058534       __output                   00459534 f   libcmt:output.obj
 0001:00058d3e       _calloc                    00459d3e f   libcmt:calloc.obj
 0001:00058e7b       __fcloseall                00459e7b f   libcmt:closeall.obj
 0001:00058efc       __fflush_lk                00459efc f   libcmt:fflush.obj
 0001:00058f2a       __flush                    00459f2a f   libcmt:fflush.obj
 0001:00058f86       __flushall                 00459f86 f   libcmt:fflush.obj
 0001:00059033       __filbuf                   0045a033 f   libcmt:_filbuf.obj
 0001:00059110       __strnicmp                 0045a110 f   libcmt:strnicmp.obj
 0001:00059211       __rt_probe_read4@4         0045a211 f   libcmt:sehsupp.obj
 0001:00059276       __input                    0045a276 f   libcmt:input.obj
 0001:00059d30       _strpbrk                   0045ad30 f   libcmt:strpbrk.obj
 0001:00059d70       __strrev                   0045ad70 f   libcmt:strrev.obj
 0001:00059da0       _strspn                    0045ada0 f   libcmt:strspn.obj
 0001:00059de0       _strcspn                   0045ade0 f   libcmt:strcspn.obj
 0001:00059e1e       __flsbuf                   0045ae1e f   libcmt:_flsbuf.obj
 0001:00059f36       ___crtGetStringTypeA       0045af36 f   libcmt:a_str.obj
 0001:0005a07f       ?__CxxUnhandledExceptionFilter@@YGJPAU_EXCEPTION_POINTERS@@@Z 0045b07f f   libcmt:unhandld.obj
 0001:0005a0c5       ?__CxxSetUnhandledExceptionFilter@@YAXXZ 0045b0c5 f   libcmt:unhandld.obj
 0001:0005a0d6       ?__CxxRestoreUnhandledExceptionFilter@@YAXXZ 0045b0d6 f   libcmt:unhandld.obj
 0001:0005a0e3       ___loctotime_t             0045b0e3 f   libcmt:dtoxtime.obj
 0001:0005a1a5       ___tzset                   0045b1a5 f   libcmt:tzset.obj
 0001:0005a45a       __isindst                  0045b45a f   libcmt:tzset.obj
 0001:0005a767       __ismbblead                0045b767 f   libcmt:ismbbyte.obj
 0001:0005a7a9       ___crtMessageBoxA          0045b7a9 f   libcmt:crtmbox.obj
 0001:0005a832       __control87                0045b832 f   libcmt:ieee87.obj
 0001:0005a867       __controlfp                0045b867 f   libcmt:ieee87.obj
 0001:0005a998       _tolower                   0045b998 f   libcmt:tolower.obj
 0001:0005aa07       __tolower_lk               0045ba07 f   libcmt:tolower.obj
 0001:0005aad2       __ZeroTail                 0045bad2 f   libcmt:intrncvt.obj
 0001:0005ab1b       __IncMan                   0045bb1b f   libcmt:intrncvt.obj
 0001:0005ab71       __RoundMan                 0045bb71 f   libcmt:intrncvt.obj
 0001:0005abfd       __CopyMan                  0045bbfd f   libcmt:intrncvt.obj
 0001:0005ac18       __FillZeroMan              0045bc18 f   libcmt:intrncvt.obj
 0001:0005ac24       __IsZeroMan                0045bc24 f   libcmt:intrncvt.obj
 0001:0005ac3f       __ShrMan                   0045bc3f f   libcmt:intrncvt.obj
 0001:0005accc       __ld12cvt                  0045bccc f   libcmt:intrncvt.obj
 0001:0005ae38       __ld12tod                  0045be38 f   libcmt:intrncvt.obj
 0001:0005ae4e       __ld12tof                  0045be4e f   libcmt:intrncvt.obj
 0001:0005ae64       __atodbl                   0045be64 f   libcmt:intrncvt.obj
 0001:0005ae91       __atoflt                   0045be91 f   libcmt:intrncvt.obj
 0001:0005aebe       __fptostr                  0045bebe f   libcmt:_fptostr.obj
 0001:0005af35       __fltout2                  0045bf35 f   libcmt:cfout.obj
 0001:0005af91       ___dtold                   0045bf91 f   libcmt:cfout.obj
 0001:0005b047       __fptrap                   0045c047 f   libcmt:crt0fp.obj
 0001:0005b050       __87except                 0045c050 f   libcmt:87except.obj
 0001:0005b120       __matherr                  0045c120 f   libcmt:matherr.obj
 0001:0005b123       ___crtCompareStringA       0045c123 f   libcmt:a_cmp.obj
 0001:0005b3a0       ?_ValidateRead@@YAHPBXI@Z  0045c3a0 f   libcmt:validate.obj
 0001:0005b3bc       ?_ValidateWrite@@YAHPAXI@Z 0045c3bc f   libcmt:validate.obj
 0001:0005b3d8       ?_ValidateExecute@@YAHP6GHXZ@Z 0045c3d8 f   libcmt:validate.obj
 0001:0005b3f0       _abort                     0045c3f0 f   libcmt:abort.obj
 0001:0005b407       ___strgtold12              0045c407 f   libcmt:strgtold.obj
 0001:0005b8d8       __isatty                   0045c8d8 f   libcmt:isatty.obj
 0001:0005b901       _wctomb                    0045c901 f   libcmt:wctomb.obj
 0001:0005b95a       __wctomb_lk                0045c95a f   libcmt:wctomb.obj
 0001:0005b9c3       _fclose                    0045c9c3 f   libcmt:fclose.obj
 0001:0005b9f4       __fclose_lk                0045c9f4 f   libcmt:fclose.obj
 0001:0005ba40       __commit                   0045ca40 f   libcmt:commit.obj
 0001:0005bad3       __write                    0045cad3 f   libcmt:write.obj
 0001:0005bb38       __write_lk                 0045cb38 f   libcmt:write.obj
 0001:0005bcc3       __read                     0045ccc3 f   libcmt:read.obj
 0001:0005bd28       __read_lk                  0045cd28 f   libcmt:read.obj
 0001:0005bf01       __getbuf                   0045cf01 f   libcmt:_getbuf.obj
 0001:0005bf45       _mbtowc                    0045cf45 f   libcmt:mbtowc.obj
 0001:0005bfa2       __mbtowc_lk                0045cfa2 f   libcmt:mbtowc.obj
 0001:0005c070       __allshl                   0045d070 f   libcmt:llshl.obj
 0001:0005c08f       __ungetc_lk                0045d08f f   libcmt:ungetc.obj
 0001:0005c0fd       __lseek                    0045d0fd f   libcmt:lseek.obj
 0001:0005c162       __lseek_lk                 0045d162 f   libcmt:lseek.obj
 0001:0005c1d5       _raise                     0045d1d5 f   libcmt:winsig.obj
 0001:0005c394       ___addl                    0045d394 f   libcmt:mantold.obj
 0001:0005c3b5       ___add_12                  0045d3b5 f   libcmt:mantold.obj
 0001:0005c413       ___shl_12                  0045d413 f   libcmt:mantold.obj
 0001:0005c441       ___shr_12                  0045d441 f   libcmt:mantold.obj
 0001:0005c46e       ___mtold12                 0045d46e f   libcmt:mantold.obj
 0001:0005c535       _$I10_OUTPUT               0045d535 f   libcmt:x10fout.obj
 0001:0005c7c8       ___ld12mul                 0045d7c8 f   libcmt:tenpow.obj
 0001:0005c9e8       ___multtenpow12            0045d9e8 f   libcmt:tenpow.obj
 0001:0005ca64       __close                    0045da64 f   libcmt:close.obj
 0001:0005cac1       __close_lk                 0045dac1 f   libcmt:close.obj
 0001:0005cb44       __freebuf                  0045db44 f   libcmt:_freebuf.obj
 0001:0005cb6f       __free_osfhnd              0045db6f f   libcmt:osfinfo.obj
 0001:0005cbee       __get_osfhandle            0045dbee f   libcmt:osfinfo.obj
 0001:0005cc30       __lock_fhandle             0045dc30 f   libcmt:osfinfo.obj
 0001:0005cc8f       __unlock_fhandle           0045dc8f f   libcmt:osfinfo.obj
 0001:0005ccb2       _ImageList_Read@4          0045dcb2 f   comctl32:COMCTL32.dll
 0001:0005ccb8       ?_Xlen@std@@YAXXZ          0045dcb8 f   libcpmt:string.obj
 0001:0005cd12       ??0logic_error@std@@QAE@ABV?$basic_string@DU?$char_traits@D@std@@V?$allocator@D@2@@1@@Z 0045dd12 f i libcpmt:string.obj
 0001:0005cd76       ?what@logic_error@std@@UBEPBDXZ 0045dd76 f i libcpmt:string.obj
 0001:0005cd83       ?_Doraise@logic_error@std@@MBEXXZ 0045dd83 f i libcpmt:string.obj
 0001:0005cda0       ??1logic_error@std@@UAE@XZ 0045dda0 f i libcpmt:string.obj
 0001:0005cddd       ??_Glogic_error@std@@UAEPAXI@Z 0045dddd f i libcpmt:string.obj
 0001:0005cddd       ??_Elogic_error@std@@UAEPAXI@Z 0045dddd f i libcpmt:string.obj
 0001:0005cdf9       ??0logic_error@std@@QAE@ABV01@@Z 0045ddf9 f i libcpmt:string.obj
 0001:0005ce56       ??1length_error@std@@UAE@XZ 0045de56 f i libcpmt:string.obj
 0001:0005ce93       ?_Doraise@length_error@std@@MBEXXZ 0045de93 f i libcpmt:string.obj
 0001:0005ceb0       ??_Glength_error@std@@UAEPAXI@Z 0045deb0 f i libcpmt:string.obj
 0001:0005ceb0       ??_Elength_error@std@@UAEPAXI@Z 0045deb0 f i libcpmt:string.obj
 0001:0005cecc       ??0length_error@std@@QAE@ABV01@@Z 0045decc f i libcpmt:string.obj
 0001:0005cee4       ?_Xran@std@@YAXXZ          0045dee4 f   libcpmt:string.obj
 0001:0005cf3e       ??1out_of_range@std@@UAE@XZ 0045df3e f i libcpmt:string.obj
 0001:0005cf7b       ?_Doraise@out_of_range@std@@MBEXXZ 0045df7b f i libcpmt:string.obj
 0001:0005cf98       ??_Gout_of_range@std@@UAEPAXI@Z 0045df98 f i libcpmt:string.obj
 0001:0005cf98       ??_Eout_of_range@std@@UAEPAXI@Z 0045df98 f i libcpmt:string.obj
 0001:0005cfb4       ??0out_of_range@std@@QAE@ABV01@@Z 0045dfb4 f i libcpmt:string.obj
 0001:0005cfcc       ??1?$basic_string@DU?$char_traits@D@std@@V?$allocator@D@2@@std@@QAE@XZ 0045dfcc f i libcpmt:string.obj
 0001:0005cfd4       ?assign@?$basic_string@DU?$char_traits@D@std@@V?$allocator@D@2@@std@@QAEAAV12@ABV12@II@Z 0045dfd4 f i libcpmt:string.obj
 0001:0005d0a2       ?_Tidy@?$basic_string@DU?$char_traits@D@std@@V?$allocator@D@2@@std@@AAEX_N@Z 0045e0a2 f i libcpmt:string.obj
 0001:0005d0de       ?assign@?$basic_string@DU?$char_traits@D@std@@V?$allocator@D@2@@std@@QAEAAV12@PBDI@Z 0045e0de f i libcpmt:string.obj
 0001:0005d113       ?erase@?$basic_string@DU?$char_traits@D@std@@V?$allocator@D@2@@std@@QAEAAV12@II@Z 0045e113 f i libcpmt:string.obj
 0001:0005d17a       ?_Grow@?$basic_string@DU?$char_traits@D@std@@V?$allocator@D@2@@std@@AAE_NI_N@Z 0045e17a f i libcpmt:string.obj
 0001:0005d1ff       ?_Copy@?$basic_string@DU?$char_traits@D@std@@V?$allocator@D@2@@std@@AAEXI@Z 0045e1ff f i libcpmt:string.obj
 0001:0005d2bc       ?_Split@?$basic_string@DU?$char_traits@D@std@@V?$allocator@D@2@@std@@AAEXXZ 0045e2bc f i libcpmt:string.obj
 0001:0005d32e       ??1CNoTrackObject@@UAE@XZ  0045e32e f i libcpmt:string.obj
 0001:0005d32e       ?id@?$collate@D@std@@$E    0045e32e f i libcpmt:string.obj
 0001:0005d32e       ?id@?$ctype@G@std@@$E      0045e32e f i libcpmt:string.obj
 0001:0005d330       _RtlUnwind@16              0045e330 f   kernel32:KERNEL32.dll
 0001:0005d336       _GetFileTitleA@12          0045e336 f   comdlg32:comdlg32.dll
 0001:0005d33c       _GetSaveFileNameA@4        0045e33c f   comdlg32:comdlg32.dll
 0001:0005d342       _GetOpenFileNameA@4        0045e342 f   comdlg32:comdlg32.dll
 0001:0005d348       _ChooseFontA@4             0045e348 f   comdlg32:comdlg32.dll
 0001:0005d34e       _ChooseColorA@4            0045e34e f   comdlg32:comdlg32.dll
 0001:0005d354       _WinMain@16                0045e354 f   nafxcw:appmodul.obj
 0001:0005d36c       ?AfxInitialize@@YGHHK@Z    0045e36c f   nafxcw:appmodul.obj
 0001:0005d38a       ?_AfxTermAppState@@YAXXZ   0045e38a f   nafxcw:appmodul.obj
 0001:0005d3bf       ??_Eexception@@UAEPAXI@Z   0045e3bf f i libcmt:stdexcpt.obj
 0001:0005d3bf       ??_Gexception@@UAEPAXI@Z   0045e3bf f i libcmt:stdexcpt.obj
 0001:0005d3db       ??0exception@@QAE@ABQBD@Z  0045e3db f   libcmt:stdexcpt.obj
 0001:0005d418       ??0exception@@QAE@ABV0@@Z  0045e418 f   libcmt:stdexcpt.obj
 0001:0005d462       ??1exception@@UAE@XZ       0045e462 f   libcmt:stdexcpt.obj
 0001:0005d478       ?what@exception@@UBEPBDXZ  0045e478 f   libcmt:stdexcpt.obj
 0001:0005d490       __memicmp                  0045e490 f   libcmt:memicmp.obj
 0001:0005d490       _memicmp                   0045e490 f   libcmt:memicmp.obj
 0001:0005d581       ___termcon                 0045e581 f   libcmt:initcon.obj
 0001:0005d5ae       ??0CString@@QAE@DH@Z       0045e5ae f   nafxcw:strex.obj
 0001:0005d5e2       ??4CString@@QAEABV0@D@Z    0045e5e2 f   nafxcw:strex.obj
 0001:0005d5f7       ?Right@CString@@QBE?AV1@H@Z 0045e5f7 f   nafxcw:strex.obj
 0001:0005d673       ?Left@CString@@QBE?AV1@H@Z 0045e673 f   nafxcw:strex.obj
 0001:0005d6eb       ?Find@CString@@QBEHPBD@Z   0045e6eb f   nafxcw:strex.obj
 0001:0005d6f9       ?Find@CString@@QBEHPBDH@Z  0045e6f9 f   nafxcw:strex.obj
 0001:0005d724       ?FormatV@CString@@QAEXPBDPAD@Z 0045e724 f   nafxcw:strex.obj
 0001:0005da71       ?Format@CString@@QAAXPBDZZ 0045ea71 f   nafxcw:strex.obj
 0001:0005da84       ?TrimRight@CString@@QAEXXZ 0045ea84 f   nafxcw:strex.obj
 0001:0005dad0       ?InitString@CSimpleException@@QAEXXZ 0045ead0 f   nafxcw:except.obj
 0001:0005daf9       ?GetErrorMessage@CSimpleException@@UAEHPADIPAI@Z 0045eaf9 f   nafxcw:except.obj
 0001:0005db3c       ?AfxThrowMemoryException@@YGXXZ 0045eb3c f   nafxcw:except.obj
 0001:0005db55       ?AfxThrowNotSupportedException@@YGXXZ 0045eb55 f   nafxcw:except.obj
 0001:0005db6e       ??0CFileDialog@@QAE@HPBD0K0PAVCWnd@@@Z 0045eb6e f   nafxcw:dlgfile.obj
 0001:0005dcb4       ??_ECFileDialog@@UAEPAXI@Z 0045ecb4 f i nafxcw:dlgfile.obj
 0001:0005dcb4       ??_GCFileDialog@@UAEPAXI@Z 0045ecb4 f i nafxcw:dlgfile.obj
 0001:0005dcd0       ?DoModal@CFileDialog@@UAEHXZ 0045ecd0 f   nafxcw:dlgfile.obj
 0001:0005ddab       ?GetPathName@CFileDialog@@QBE?AVCString@@XZ 0045edab f   nafxcw:dlgfile.obj
 0001:0005debb       ?OnShareViolation@CFileDialog@@MAEIPBD@Z 0045eebb f   nafxcw:dlgfile.obj
 0001:0005dec0       ?OnFileNameOK@CFileDialog@@MAEHXZ 0045eec0 f   nafxcw:dlgfile.obj
 0001:0005dec0       ?OnColorOK@CColorDialog@@MAEHXZ 0045eec0 f   nafxcw:dlgfile.obj
 0001:0005dec3       ?OnLBSelChangedNotify@CFileDialog@@MAEXIII@Z 0045eec3 f   nafxcw:dlgfile.obj
 0001:0005dec6       ?OnInitDone@CFileDialog@@MAEXXZ 0045eec6 f   nafxcw:dlgfile.obj
 0001:0005dedf       ?OnFolderChange@CFileDialog@@MAEXXZ 0045eedf f   nafxcw:dlgfile.obj
 0001:0005dedf       ?OnFileNameChange@CFileDialog@@MAEXXZ 0045eedf f   nafxcw:dlgfile.obj
 0001:0005dedf       ?OnTypeChange@CFileDialog@@MAEXXZ 0045eedf f   nafxcw:dlgfile.obj
 0001:0005dee0       ?OnNotify@CFileDialog@@MAEHIJPAJ@Z 0045eee0 f   nafxcw:dlgfile.obj
 0001:0005dfbe       ??0CFontDialog@@QAE@PAUtagLOGFONTA@@KPAVCDC@@PAVCWnd@@@Z 0045efbe f   nafxcw:dlgfnt.obj
 0001:0005e09a       ??_ECColorDialog@@UAEPAXI@Z 0045f09a f i nafxcw:dlgfnt.obj
 0001:0005e09a       ??_GCFontDialog@@UAEPAXI@Z 0045f09a f i nafxcw:dlgfnt.obj
 0001:0005e09a       ??_GCColorDialog@@UAEPAXI@Z 0045f09a f i nafxcw:dlgfnt.obj
 0001:0005e09a       ??_ECFontDialog@@UAEPAXI@Z 0045f09a f i nafxcw:dlgfnt.obj
 0001:0005e0b6       ?DoModal@CFontDialog@@UAEHXZ 0045f0b6 f   nafxcw:dlgfnt.obj
 0001:0005e0fe       ?GetCurrentFont@CFontDialog@@QAEXPAUtagLOGFONTA@@@Z 0045f0fe f   nafxcw:dlgfnt.obj
 0001:0005e12f       ??0_AFX_COLOR_STATE@@QAE@XZ 0045f12f f   nafxcw:dlgclr.obj
 0001:0005e149       ??_G_AFX_COLOR_STATE@@UAEPAXI@Z 0045f149 f i nafxcw:dlgclr.obj
 0001:0005e149       ??_E_AFX_COLOR_STATE@@UAEPAXI@Z 0045f149 f i nafxcw:dlgclr.obj
 0001:0005e164       ??1_AFX_COLOR_STATE@@UAE@XZ 0045f164 f i nafxcw:dlgclr.obj
 0001:0005e165       ?GetMessageMap@CColorDialog@@MBEPBUAFX_MSGMAP@@XZ 0045f165 f   nafxcw:dlgclr.obj
 0001:0005e16b       ??0CColorDialog@@QAE@KKPAVCWnd@@@Z 0045f16b f   nafxcw:dlgclr.obj
 0001:0005e1fb       ?DoModal@CColorDialog@@UAEHXZ 0045f1fb f   nafxcw:dlgclr.obj
 0001:0005e227       ?GetSavedCustomColors@CColorDialog@@SGPAKXZ 0045f227 f   nafxcw:dlgclr.obj
 0001:0005e23a       ?OnCtlColor@CColorDialog@@IAEPAUHBRUSH__@@PAVCDC@@PAVCWnd@@I@Z 0045f23a f   nafxcw:dlgclr.obj
 0001:0005e242       ?GetMessageMap@CCommonDialog@@MBEPBUAFX_MSGMAP@@XZ 0045f242 f   nafxcw:dlgcomm.obj
 0001:0005e248       ?_AfxCommDlgProc@@YGIPAUHWND__@@IIJ@Z 0045f248 f   nafxcw:dlgcomm.obj
 0001:0005e3df       ?OnOK@CCommonDialog@@MAEXXZ 0045f3df f   nafxcw:dlgcomm.obj
 0001:0005e3f6       ?OnCancel@CCommonDialog@@MAEXXZ 0045f3f6 f   nafxcw:dlgcomm.obj
 0001:0005e3fb       ?OnHelpInfo@CCommonDialog@@IAEHPAUtagHELPINFO@@@Z 0045f3fb f   nafxcw:dlgcomm.obj
 0001:0005e403       ??0CTime@@QAE@HHHHHHH@Z    0045f403 f   nafxcw:timecore.obj
 0001:0005e44f       ??0CTime@@QAE@ABU_SYSTEMTIME@@H@Z 0045f44f f   nafxcw:timecore.obj
 0001:0005e49b       ??0CTime@@QAE@ABU_FILETIME@@H@Z 0045f49b f   nafxcw:timecore.obj
 0001:0005e4e7       ?OnCreate@CToolBarCtrl@@IAEHPAUtagCREATESTRUCTA@@@Z 0045f4e7 f   nafxcw:winctrl2.obj
 0001:0005e510       ?GetMessageMap@CListCtrl@@MBEPBUAFX_MSGMAP@@XZ 0045f510 f   nafxcw:winctrl2.obj
 0001:0005e516       ?Create@CListCtrl@@QAEHKABUtagRECT@@PAVCWnd@@I@Z 0045f516 f   nafxcw:winctrl2.obj
 0001:0005e547       ??1CListCtrl@@UAE@XZ       0045f547 f   nafxcw:winctrl2.obj
 0001:0005e57f       ?HitTest@CListCtrl@@QBEHVCPoint@@PAI@Z 0045f57f f   nafxcw:winctrl2.obj
 0001:0005e5b5       ?SetItemState@CListCtrl@@QAEHHII@Z 0045f5b5 f   nafxcw:winctrl2.obj
 0001:0005e5e0       ?GetItemText@CListCtrl@@QBE?AVCString@@HH@Z 0045f5e0 f   nafxcw:winctrl2.obj
 0001:0005e685       ?GetItemText@CListCtrl@@QBEHHHPADH@Z 0045f685 f   nafxcw:winctrl2.obj
 0001:0005e6ca       ?GetItemData@CListCtrl@@QBEKH@Z 0045f6ca f   nafxcw:winctrl2.obj
 0001:0005e70c       ?DrawItem@CListCtrl@@UAEXPAUtagDRAWITEMSTRUCT@@@Z 0045f70c f   nafxcw:winctrl2.obj
 0001:0005e70f       ?OnChildNotify@CListCtrl@@MAEHIIJPAJ@Z 0045f70f f   nafxcw:winctrl2.obj
 0001:0005e73d       ?RemoveImageList@CListCtrl@@IAEXH@Z 0045f73d f   nafxcw:winctrl2.obj
 0001:0005e776       ?OnNcDestroy@CListCtrl@@IAEXXZ 0045f776 f   nafxcw:winctrl2.obj
 0001:0005e79b       ?GetItemText@CTreeCtrl@@QBE?AVCString@@PAU_TREEITEM@@@Z 0045f79b f   nafxcw:winctrl2.obj
 0001:0005e83b       ?GetItemImage@CTreeCtrl@@QBEHPAU_TREEITEM@@AAH1@Z 0045f83b f   nafxcw:winctrl2.obj
 0001:0005e87a       ?GetItemState@CTreeCtrl@@QBEIPAU_TREEITEM@@I@Z 0045f87a f   nafxcw:winctrl2.obj
 0001:0005e8b2       ?ItemHasChildren@CTreeCtrl@@QBEHPAU_TREEITEM@@@Z 0045f8b2 f   nafxcw:winctrl2.obj
 0001:0005e8e0       ?SetItem@CTreeCtrl@@QAEHPAU_TREEITEM@@IPBDHHIIJ@Z 0045f8e0 f   nafxcw:winctrl2.obj
 0001:0005e92e       ?HitTest@CTreeCtrl@@QBEPAU_TREEITEM@@VCPoint@@PAI@Z 0045f92e f   nafxcw:winctrl2.obj
 0001:0005e964       ?RemoveImageList@CTreeCtrl@@IAEXH@Z 0045f964 f   nafxcw:winctrl2.obj
 0001:0005e99d       ?OnDestroy@CTreeCtrl@@QAEXXZ 0045f99d f   nafxcw:winctrl2.obj
 0001:0005e9b9       ?GetRange@CSpinButtonCtrl@@QBEXAAH0@Z 0045f9b9 f   nafxcw:winctrl2.obj
 0001:0005e9e5       ??1CProgressCtrl@@UAE@XZ   0045f9e5 f   nafxcw:winctrl2.obj
 0001:0005ea1d       ?OnDestroy@CTabCtrl@@IAEXXZ 0045fa1d f   nafxcw:winctrl2.obj
 0001:0005ea57       ?afxMapHIMAGELIST@@YGPAVCHandleMap@@H@Z 0045fa57 f   nafxcw:winctrl2.obj
 0001:0005eac9       ??0CImageList@@QAE@XZ      0045fac9 f   nafxcw:winctrl2.obj
 0001:0005ead6       ??_GCImageList@@UAEPAXI@Z  0045fad6 f i nafxcw:winctrl2.obj
 0001:0005ead6       ??_ECImageList@@UAEPAXI@Z  0045fad6 f i nafxcw:winctrl2.obj
 0001:0005eaf2       ??1CImageList@@UAE@XZ      0045faf2 f   nafxcw:winctrl2.obj
 0001:0005eb1b       ?Detach@CImageList@@QAEPAU_IMAGELIST@@XZ 0045fb1b f   nafxcw:winctrl2.obj
 0001:0005eb45       ?DeleteImageList@CImageList@@QAEHXZ 0045fb45 f   nafxcw:winctrl2.obj
 0001:0005eb5b       ?FromHandle@CImageList@@SGPAV1@PAU_IMAGELIST@@@Z 0045fb5b f   nafxcw:winctrl2.obj
 0001:0005eb70       ?FromHandlePermanent@CImageList@@SGPAV1@PAU_IMAGELIST@@@Z 0045fb70 f   nafxcw:winctrl2.obj
 0001:0005eb8e       ?Attach@CImageList@@QAEHPAU_IMAGELIST@@@Z 0045fb8e f   nafxcw:winctrl2.obj
 0001:0005ebbb       ?Read@CImageList@@QAEHPAVCArchive@@@Z 0045fbbb f   nafxcw:winctrl2.obj
 0001:0005ebe8       ?Create@CImageList@@QAEHPAV1@@Z 0045fbe8 f   nafxcw:winctrl7.obj
 0001:0005ec04       ?GetMessageMap@CToolTipCtrl@@MBEPBUAFX_MSGMAP@@XZ 0045fc04 f   nafxcw:tooltip.obj
 0001:0005ec0a       ??0CToolTipCtrl@@QAE@XZ    0045fc0a f   nafxcw:tooltip.obj
 0001:0005ec43       ??_GCToolTipCtrl@@UAEPAXI@Z 0045fc43 f i nafxcw:tooltip.obj
 0001:0005ec43       ??_ECToolTipCtrl@@UAEPAXI@Z 0045fc43 f i nafxcw:tooltip.obj
 0001:0005ec5f       ?Create@CToolTipCtrl@@QAEHPAVCWnd@@K@Z 0045fc5f f   nafxcw:tooltip.obj
 0001:0005ecb4       ??1CToolTipCtrl@@UAE@XZ    0045fcb4 f   nafxcw:tooltip.obj
 0001:0005ecfb       ?DestroyToolTipCtrl@CToolTipCtrl@@UAEHXZ 0045fcfb f   nafxcw:tooltip.obj
 0001:0005ed15       ?OnAddTool@CToolTipCtrl@@IAEJIJ@Z 0045fd15 f   nafxcw:tooltip.obj
 0001:0005ed89       ?OnDisableModal@CToolTipCtrl@@IAEJIJ@Z 0045fd89 f   nafxcw:tooltip.obj
 0001:0005eda0       ?OnEnable@CToolTipCtrl@@IAEXH@Z 0045fda0 f   nafxcw:tooltip.obj
 0001:0005edb7       ?OnWindowFromPoint@CToolTipCtrl@@IAEJIJ@Z 0045fdb7 f   nafxcw:tooltip.obj
 0001:0005ee2a       ?AddTool@CToolTipCtrl@@QAEHPAVCWnd@@PBDPBUtagRECT@@I@Z 0045fe2a f   nafxcw:tooltip.obj
 0001:0005ee78       ?FillInToolInfo@CToolTipCtrl@@QBEXAAUtagTOOLINFOA@@PAVCWnd@@I@Z 0045fe78 f   nafxcw:tooltip.obj
 0001:0005eecb       ?GetHeaderCtrl@CListCtrl@@QAEPAVCHeaderCtrl@@XZ 0045fecb f   nafxcw:winctrl6.obj
 0001:0005eee9       ??0CArchiveStream@@QAE@PAVCArchive@@@Z 0045fee9 f   nafxcw:arcstrm.obj
 0001:0005eefb       ?AddRef@CArchiveStream@@UAGKXZ 0045fefb f   nafxcw:arcstrm.obj
 0001:0005ef01       ?Release@CArchiveStream@@UAGKXZ 0045ff01 f   nafxcw:arcstrm.obj
 0001:0005ef06       ?QueryInterface@CArchiveStream@@UAGJABU_GUID@@PAPAX@Z 0045ff06 f   nafxcw:arcstrm.obj
 0001:0005ef4a       ?Read@CArchiveStream@@UAGJPAXKPAK@Z 0045ff4a f   nafxcw:arcstrm.obj
 0001:0005efa2       ?Write@CArchiveStream@@UAGJPBXKPAK@Z 0045ffa2 f   nafxcw:arcstrm.obj
 0001:0005effb       ?Seek@CArchiveStream@@UAGJT_LARGE_INTEGER@@KPAT_ULARGE_INTEGER@@@Z 0045fffb f   nafxcw:arcstrm.obj
 0001:0005f07b       ?Revert@CArchiveStream@@UAGJXZ 0046007b f   nafxcw:arcstrm.obj
 0001:0005f083       ?UnlockRegion@CArchiveStream@@UAGJT_ULARGE_INTEGER@@0K@Z 00460083 f   nafxcw:arcstrm.obj
 0001:0005f083       ?CopyTo@CArchiveStream@@UAGJPAUIStream@@T_ULARGE_INTEGER@@PAT3@2@Z 00460083 f   nafxcw:arcstrm.obj
 0001:0005f083       ?LockRegion@CArchiveStream@@UAGJT_ULARGE_INTEGER@@0K@Z 00460083 f   nafxcw:arcstrm.obj
 0001:0005f08b       ?SetSize@CArchiveStream@@UAGJT_ULARGE_INTEGER@@@Z 0046008b f   nafxcw:arcstrm.obj
 0001:0005f08b       ?Stat@CArchiveStream@@UAGJPAUtagSTATSTG@@K@Z 0046008b f   nafxcw:arcstrm.obj
 0001:0005f093       ?Commit@CArchiveStream@@UAGJK@Z 00460093 f   nafxcw:arcstrm.obj
 0001:0005f093       ?Clone@CArchiveStream@@UAGJPAPAUIStream@@@Z 00460093 f   nafxcw:arcstrm.obj
 0001:0005f09b       ??0CPtrArray@@QAE@XZ       0046009b f   nafxcw:array_p.obj
 0001:0005f0b2       ??_ECPtrArray@@UAEPAXI@Z   004600b2 f i nafxcw:array_p.obj
 0001:0005f0b2       ??_GCPtrArray@@UAEPAXI@Z   004600b2 f i nafxcw:array_p.obj
 0001:0005f0ce       ??1CPtrArray@@UAE@XZ       004600ce f   nafxcw:array_p.obj
 0001:0005f0fb       ??0CStringArray@@QAE@XZ    004600fb f   nafxcw:array_s.obj
 0001:0005f112       ??_ECStringArray@@UAEPAXI@Z 00460112 f i nafxcw:array_s.obj
 0001:0005f112       ??_GCStringArray@@UAEPAXI@Z 00460112 f i nafxcw:array_s.obj
 0001:0005f12e       ??1CStringArray@@UAE@XZ    0046012e f   nafxcw:array_s.obj
 0001:0005f18e       ?SetSize@CStringArray@@QAEXHH@Z 0046018e f   nafxcw:array_s.obj
 0001:0005f2d7       ?SetAtGrow@CStringArray@@QAEXHPBD@Z 004602d7 f   nafxcw:array_s.obj
 0001:0005f303       ?RemoveAt@CStringArray@@QAEXHH@Z 00460303 f   nafxcw:array_s.obj
 0001:0005f35f       ?Serialize@CStringArray@@UAEXAAVCArchive@@@Z 0046035f f   nafxcw:array_s.obj
 0001:0005f3c8       ??0CDWordArray@@QAE@XZ     004603c8 f   nafxcw:array_d.obj
 0001:0005f3df       ??_ECDWordArray@@UAEPAXI@Z 004603df f i nafxcw:array_d.obj
 0001:0005f3df       ??_GCDWordArray@@UAEPAXI@Z 004603df f i nafxcw:array_d.obj
 0001:0005f3fb       ??1CDWordArray@@UAE@XZ     004603fb f   nafxcw:array_d.obj
 0001:0005f428       ?SetSize@CDWordArray@@QAEXHH@Z 00460428 f   nafxcw:array_d.obj
 0001:0005f428       ?SetSize@CPtrArray@@QAEXHH@Z 00460428 f   nafxcw:array_d.obj
 0001:0005f541       ?Copy@CDWordArray@@QAEXABV1@@Z 00460541 f   nafxcw:array_d.obj
 0001:0005f56d       ?SetAtGrow@CDWordArray@@QAEXHK@Z 0046056d f   nafxcw:array_d.obj
 0001:0005f594       ?RemoveAt@CDWordArray@@QAEXHH@Z 00460594 f   nafxcw:array_d.obj
 0001:0005f5cb       ?Serialize@CDWordArray@@UAEXAAVCArchive@@@Z 004605cb f   nafxcw:array_d.obj
 0001:0005f620       ??0CWordArray@@QAE@XZ      00460620 f   nafxcw:array_w.obj
 0001:0005f637       ??_GCWordArray@@UAEPAXI@Z  00460637 f i nafxcw:array_w.obj
 0001:0005f637       ??_ECWordArray@@UAEPAXI@Z  00460637 f i nafxcw:array_w.obj
 0001:0005f653       ??1CWordArray@@UAE@XZ      00460653 f   nafxcw:array_w.obj
 0001:0005f680       ?SetSize@CWordArray@@QAEXHH@Z 00460680 f   nafxcw:array_w.obj
 0001:0005f793       ?Serialize@CWordArray@@UAEXAAVCArchive@@@Z 00460793 f   nafxcw:array_w.obj
 0001:0005f7e6       ?RemoveAll@CPtrList@@QAEXXZ 004607e6 f   nafxcw:list_p.obj
 0001:0005f806       ?FreeNode@CPtrList@@IAEXPAUCNode@1@@Z 00460806 f   nafxcw:list_p.obj
 0001:0005f81f       ?RemoveHead@CPtrList@@QAEPAXXZ 0046081f f   nafxcw:list_p.obj
 0001:0005f843       ?Create@CPlex@@SGPAU1@AAPAU1@II@Z 00460843 f   nafxcw:plex.obj
 0001:0005f863       ?FreeDataChain@CPlex@@QAEXXZ 00460863 f   nafxcw:plex.obj
 0001:0005f879       ??0CMapPtrToPtr@@QAE@H@Z   00460879 f   nafxcw:map_pp.obj
 0001:0005f8a0       ??_GCMapPtrToPtr@@UAEPAXI@Z 004608a0 f i nafxcw:map_pp.obj
 0001:0005f8a0       ??_ECMapPtrToPtr@@UAEPAXI@Z 004608a0 f i nafxcw:map_pp.obj
 0001:0005f8bc       ?RemoveAll@CMapPtrToPtr@@QAEXXZ 004608bc f   nafxcw:map_pp.obj
 0001:0005f8e7       ??1CMapPtrToPtr@@UAE@XZ    004608e7 f   nafxcw:map_pp.obj
 0001:0005f910       ?NewAssoc@CMapPtrToPtr@@IAEPAUCAssoc@1@XZ 00460910 f   nafxcw:map_pp.obj
 0001:0005f95d       ?FreeAssoc@CMapPtrToPtr@@IAEXPAUCAssoc@1@@Z 0046095d f   nafxcw:map_pp.obj
 0001:0005f976       ?GetAssocAt@CMapPtrToPtr@@IBEPAUCAssoc@1@PAXAAI@Z 00460976 f   nafxcw:map_pp.obj
 0001:0005f9a8       ?GetValueAt@CMapPtrToPtr@@QBEPAXPAX@Z 004609a8 f   nafxcw:map_pp.obj
 0001:0005f9db       ??ACMapPtrToPtr@@QAEAAPAXPAX@Z 004609db f   nafxcw:map_pp.obj
 0001:0005fa2b       ?RemoveKey@CMapPtrToPtr@@QAEHPAX@Z 00460a2b f   nafxcw:map_pp.obj
 0001:0005fa6d       ?GetNextAssoc@CMapPtrToPtr@@QBEXAAPAU__POSITION@@AAPAX1@Z 00460a6d f   nafxcw:map_pp.obj
 0001:0005fadf       ??0CMapStringToPtr@@QAE@H@Z 00460adf f   nafxcw:map_sp.obj
 0001:0005fb06       ??_ECMapStringToPtr@@UAEPAXI@Z 00460b06 f i nafxcw:map_sp.obj
 0001:0005fb06       ??_GCMapStringToPtr@@UAEPAXI@Z 00460b06 f i nafxcw:map_sp.obj
 0001:0005fb22       ?InitHashTable@CMapPtrToPtr@@QAEXIH@Z 00460b22 f   nafxcw:map_sp.obj
 0001:0005fb22       ?InitHashTable@CMapStringToPtr@@QAEXIH@Z 00460b22 f   nafxcw:map_sp.obj
 0001:0005fb67       ?RemoveAll@CMapStringToPtr@@QAEXXZ 00460b67 f   nafxcw:map_sp.obj
 0001:0005fbb9       ??1CMapStringToPtr@@UAE@XZ 00460bb9 f   nafxcw:map_sp.obj
 0001:0005fbe2       ?NewAssoc@CMapStringToPtr@@IAEPAUCAssoc@1@XZ 00460be2 f   nafxcw:map_sp.obj
 0001:0005fc44       ?GetAssocAt@CMapStringToPtr@@IBEPAUCAssoc@1@PBDAAI@Z 00460c44 f   nafxcw:map_sp.obj
 0001:0005fc9a       ?Lookup@CMapStringToPtr@@QBEHPBDAAPAX@Z 00460c9a f   nafxcw:map_sp.obj
 0001:0005fcbc       ?LookupKey@CMapStringToPtr@@QBEHPBDAAPBD@Z 00460cbc f   nafxcw:map_sp.obj
 0001:0005fcde       ??ACMapStringToPtr@@QAEAAPAXPBD@Z 00460cde f   nafxcw:map_sp.obj
 0001:0005fd40       ?AfxNewHandler@@YAHI@Z     00460d40 f   nafxcw:afxmem.obj
 0001:0005fd48       ?AfxSetNewHandler@@YGP6AHI@ZP6AHI@Z@Z 00460d48 f   nafxcw:afxmem.obj
 0001:0005fd5a       ??2@YAPAXI@Z               00460d5a f   nafxcw:afxmem.obj
 0001:0005fd83       ??3@YAXPAX@Z               00460d83 f   nafxcw:afxmem.obj
 0001:0005fd8e       ??0CString@@QAE@ABV0@@Z    00460d8e f   nafxcw:strcore.obj
 0001:0005fe86       ?AllocBuffer@CString@@IAEXH@Z 00460e86 f   nafxcw:strcore.obj
 0001:0005ff08       ?FreeData@CString@@KIXPAUCStringData@@@Z 00460f08 f   nafxcw:strcore.obj
 0001:0005ff50       ?Release@CString@@IAEXXZ   00460f50 f   nafxcw:strcore.obj
 0001:0005ff81       ?Release@CString@@KGXPAUCStringData@@@Z 00460f81 f   nafxcw:strcore.obj
 0001:0005ffa4       ?Empty@CString@@QAEXXZ     00460fa4 f   nafxcw:strcore.obj
 0001:0005ffc2       ?CopyBeforeWrite@CString@@IAEXXZ 00460fc2 f   nafxcw:strcore.obj
 0001:0005fff0       ?AllocBeforeWrite@CString@@IAEXH@Z 00460ff0 f   nafxcw:strcore.obj
 0001:00060019       ??1CString@@QAE@XZ         00461019 f   nafxcw:strcore.obj
 0001:00060043       ?AllocCopy@CString@@IBEXAAV1@HHH@Z 00461043 f   nafxcw:strcore.obj
 0001:00060087       ??0CString@@QAE@PBD@Z      00461087 f   nafxcw:strcore.obj
 0001:000600d9       ?AssignCopy@CString@@IAEXHPBD@Z 004610d9 f   nafxcw:strcore.obj
 0001:00060106       ??4CString@@QAEABV0@ABV0@@Z 00461106 f   nafxcw:strcore.obj
 0001:00060156       ??4CString@@QAEABV0@PBD@Z  00461156 f   nafxcw:strcore.obj
 0001:0006017d       ??4CString@@QAEABV0@PBG@Z  0046117d f   nafxcw:strcore.obj
 0001:000601be       ?ConcatCopy@CString@@IAEXHPBDH0@Z 004611be f   nafxcw:strcore.obj
 0001:000601fc       ??H@YG?AVCString@@ABV0@0@Z 004611fc f   nafxcw:strcore.obj
 0001:00060262       ??H@YG?AVCString@@ABV0@PBD@Z 00461262 f   nafxcw:strcore.obj
 0001:000602d6       ??H@YG?AVCString@@PBDABV0@@Z 004612d6 f   nafxcw:strcore.obj
 0001:0006034a       ?ConcatInPlace@CString@@IAEXHPBD@Z 0046134a f   nafxcw:strcore.obj
 0001:000603a9       ??YCString@@QAEABV0@PBD@Z  004613a9 f   nafxcw:strcore.obj
 0001:000603d0       ??YCString@@QAEABV0@D@Z    004613d0 f   nafxcw:strcore.obj
 0001:000603e5       ??YCString@@QAEABV0@ABV0@@Z 004613e5 f   nafxcw:strcore.obj
 0001:000603fd       ?GetBuffer@CString@@QAEPADH@Z 004613fd f   nafxcw:strcore.obj
 0001:0006044c       ?ReleaseBuffer@CString@@QAEXH@Z 0046144c f   nafxcw:strcore.obj
 0001:00060474       ?GetBufferSetLength@CString@@QAEPADH@Z 00461474 f   nafxcw:strcore.obj
 0001:00060494       ?Find@CString@@QBEHD@Z     00461494 f   nafxcw:strcore.obj
 0001:000604a2       ?Find@CString@@QBEHDH@Z    004614a2 f   nafxcw:strcore.obj
 0001:000604cf       ?_wcstombsz@@YAHPADPBGI@Z  004614cf f   nafxcw:strcore.obj
 0001:00060505       ?AfxA2WHelper@@YGPAGPAGPBDH@Z 00461505 f   nafxcw:strcore.obj
 0001:0006052e       ??0CException@@QAE@XZ      0046152e f   nafxcw:except.obj
 0001:00060538       ??0CException@@QAE@H@Z     00461538 f   nafxcw:except.obj
 0001:00060544       ?Delete@CException@@QAEXXZ 00461544 f   nafxcw:except.obj
 0001:00060556       ?ReportError@CException@@UAEHII@Z 00461556 f   nafxcw:except.obj
 0001:000605ab       ??0AFX_EXCEPTION_LINK@@QAE@XZ 004615ab f   nafxcw:except.obj
 0001:000605c1       ?AfxGetExceptionContext@@YAPAUAFX_EXCEPTION_CONTEXT@@XZ 004615c1 f i nafxcw:except.obj
 0001:000605e9       ?AfxTryCleanup@@YGXXZ      004615e9 f   nafxcw:except.obj
 0001:00060607       ??0CFile@@QAE@XZ           00461607 f   nafxcw:filecore.obj
 0001:00060621       ??_GCFile@@UAEPAXI@Z       00461621 f i nafxcw:filecore.obj
 0001:00060621       ??_ECFile@@UAEPAXI@Z       00461621 f i nafxcw:filecore.obj
 0001:0006063d       ??0CFile@@QAE@H@Z          0046163d f   nafxcw:filecore.obj
 0001:0006065c       ??1CFile@@UAE@XZ           0046165c f   nafxcw:filecore.obj
 0001:000606a4       ?Duplicate@CFile@@UBEPAV1@XZ 004616a4 f   nafxcw:filecore.obj
 0001:00060719       ?Open@CFile@@UAEHPBDIPAVCFileException@@@Z 00461719 f   nafxcw:filecore.obj
 0001:00060836       ?Read@CFile@@UAEIPAXI@Z    00461836 f   nafxcw:filecore.obj
 0001:00060870       ?Write@CFile@@UAEXPBXI@Z   00461870 f   nafxcw:filecore.obj
 0001:000608bb       ?Seek@CFile@@UAEJJI@Z      004618bb f   nafxcw:filecore.obj
 0001:000608ea       ?GetPosition@CFile@@UBEKXZ 004618ea f   nafxcw:filecore.obj
 0001:00060913       ?Flush@CFile@@UAEXXZ       00461913 f   nafxcw:filecore.obj
 0001:00060934       ?Close@CFile@@UAEXXZ       00461934 f   nafxcw:filecore.obj
 0001:00060975       ?Abort@CFile@@UAEXXZ       00461975 f   nafxcw:filecore.obj
 0001:00060995       ?LockRange@CFile@@UAEXKK@Z 00461995 f   nafxcw:filecore.obj
 0001:000609be       ?UnlockRange@CFile@@UAEXKK@Z 004619be f   nafxcw:filecore.obj
 0001:000609e7       ?SetLength@CFile@@UAEXK@Z  004619e7 f   nafxcw:filecore.obj
 0001:00060a13       ?GetLength@CFile@@UBEKXZ   00461a13 f   nafxcw:filecore.obj
 0001:00060a40       ?GetBufferPtr@CFile@@UAEIIIPAPAX0@Z 00461a40 f   nafxcw:filecore.obj
 0001:00060a45       ?AfxFullPath@@YGHPADPBD@Z  00461a45 f   nafxcw:filecore.obj
 0001:00060b15       ?AfxGetRoot@@YGXPBDAAVCString@@@Z 00461b15 f   nafxcw:filecore.obj
 0001:00060bdb       ?AfxGetFileTitle@@YGIPBDPADI@Z 00461bdb f   nafxcw:filecore.obj
 0001:00060c31       ?AfxDlgProc@@YGHPAUHWND__@@IIJ@Z 00461c31 f   nafxcw:dlgcore.obj
 0001:00060c6b       ?GetMessageMap@CDialog@@MBEPBUAFX_MSGMAP@@XZ 00461c6b f   nafxcw:dlgcore.obj
 0001:00060c71       ?PreTranslateMessage@CDialog@@UAEHPAUtagMSG@@@Z 00461c71 f   nafxcw:dlgcore.obj
 0001:00060d0a       ?OnCmdMsg@CDialog@@UAEHIHPAXPAUAFX_CMDHANDLERINFO@@@Z 00461d0a f   nafxcw:dlgcore.obj
 0001:00060d8f       ??_GCDialog@@UAEPAXI@Z     00461d8f f i nafxcw:dlgcore.obj
 0001:00060d8f       ??_ECDialog@@UAEPAXI@Z     00461d8f f i nafxcw:dlgcore.obj
 0001:00060dab       ??1CDialog@@UAE@XZ         00461dab f   nafxcw:dlgcore.obj
 0001:00060de9       ?CreateDlgIndirect@CWnd@@IAEHPBUDLGTEMPLATE@@PAV1@PAUHINSTANCE__@@@Z 00461de9 f   nafxcw:dlgcore.obj
 0001:0006100b       ?SetOccDialogInfo@CDialog@@MAEHPAU_AFX_OCC_DIALOG_INFO@@@Z 0046200b f   nafxcw:dlgcore.obj
 0001:00061018       ??0CDialog@@QAE@IPAVCWnd@@@Z 00462018 f   nafxcw:dlgcore.obj
 0001:00061051       ?PreModal@CDialog@@IAEPAUHWND__@@XZ 00462051 f   nafxcw:dlgcore.obj
 0001:0006108b       ?PostModal@CDialog@@IAEXXZ 0046208b f   nafxcw:dlgcore.obj
 0001:000610cd       ?DoModal@CDialog@@UAEHXZ   004620cd f   nafxcw:dlgcore.obj
 0001:0006122d       ?EndDialog@CDialog@@QAEXH@Z 0046222d f   nafxcw:dlgcore.obj
 0001:00061250       ?HandleSetFont@CDialog@@IAEJIJ@Z 00462250 f   nafxcw:dlgcore.obj
 0001:00061274       ?PostNcDestroy@CWnd@@MAEXXZ 00462274 f   nafxcw:dlgcore.obj
 0001:00061274       ?PreSubclassWindow@CWnd@@UAEXXZ 00462274 f   nafxcw:dlgcore.obj
 0001:00061274       ?PreInitDialog@CDialog@@MAEXXZ 00462274 f   nafxcw:dlgcore.obj
 0001:00061275       ?HandleInitDialog@CDialog@@IAEJIJ@Z 00462275 f   nafxcw:dlgcore.obj
 0001:000612fd       ?AfxHelpEnabled@@YGHXZ     004622fd f   nafxcw:dlgcore.obj
 0001:00061353       ?OnInitDialog@CDialog@@UAEHXZ 00462353 f   nafxcw:dlgcore.obj
 0001:000613b8       ?OnOK@CDialog@@MAEXXZ      004623b8 f   nafxcw:dlgcore.obj
 0001:000613d1       ?OnCancel@CDialog@@MAEXXZ  004623d1 f   nafxcw:dlgcore.obj
 0001:000613d9       ?CheckAutoCenter@CDialog@@UAEHXZ 004623d9 f   nafxcw:dlgcore.obj
 0001:00061455       ?OnCtlColor@CDialog@@IAEPAUHBRUSH__@@PAVCDC@@PAVCWnd@@I@Z 00462455 f   nafxcw:dlgcore.obj
 0001:00061469       ?OnCommandHelp@CDialog@@IAEJIJ@Z 00462469 f   nafxcw:dlgcore.obj
 0001:000614a7       ?OnHelpHitTest@CDialog@@IAEJIJ@Z 004624a7 f   nafxcw:dlgcore.obj
 0001:000615c8       ??0CWnd@@QAE@XZ            004625c8 f   nafxcw:wincore.obj
 0001:000615ea       ??_GCWnd@@UAEPAXI@Z        004625ea f i nafxcw:wincore.obj
 0001:000615ea       ??_ECWnd@@UAEPAXI@Z        004625ea f i nafxcw:wincore.obj
 0001:00061606       ??0CWnd@@AAE@PAUHWND__@@@Z 00462606 f   nafxcw:wincore.obj
 0001:00061632       ?_AfxModifyStyle@@YGHPAUHWND__@@HKKI@Z 00462632 f   nafxcw:wincore.obj
 0001:00061681       ?ModifyStyle@CWnd@@SGHPAUHWND__@@KKI@Z 00462681 f   nafxcw:wincore.obj
 0001:0006169b       ?ModifyStyleEx@CWnd@@SGHPAUHWND__@@KKI@Z 0046269b f   nafxcw:wincore.obj
 0001:000616b5       ?_AfxPreInitDialog@@YGXPAVCWnd@@PAUtagRECT@@PAK@Z 004626b5 f   nafxcw:wincore.obj
 0001:000616d8       ?_AfxPostInitDialog@@YGXPAVCWnd@@ABUtagRECT@@K@Z 004626d8 f   nafxcw:wincore.obj
 0001:00061751       ?_AfxHandleActivate@@YGXPAVCWnd@@I0@Z 00462751 f   nafxcw:wincore.obj
 0001:000617b2       ?_AfxHandleSetCursor@@YGHPAVCWnd@@II@Z 004627b2 f   nafxcw:wincore.obj
 0001:00061828       ?AfxCallWndProc@@YGJPAVCWnd@@PAUHWND__@@IIJ@Z 00462828 f   nafxcw:wincore.obj
 0001:0006191b       ?GetCurrentMessage@CWnd@@KGPBUtagMSG@@XZ 0046291b f   nafxcw:wincore.obj
 0001:00061950       ?Default@CWnd@@IAEJXZ      00462950 f   nafxcw:wincore.obj
 0001:00061977       ?afxMapHWND@@YGPAVCHandleMap@@H@Z 00462977 f   nafxcw:wincore.obj
 0001:000619e9       ?FromHandle@CWnd@@SGPAV1@PAUHWND__@@@Z 004629e9 f   nafxcw:wincore.obj
 0001:00061a10       ?FromHandlePermanent@CWnd@@SGPAV1@PAUHWND__@@@Z 00462a10 f   nafxcw:wincore.obj
 0001:00061a2e       ?Attach@CWnd@@QAEHPAUHWND__@@@Z 00462a2e f   nafxcw:wincore.obj
 0001:00061a67       ?Detach@CWnd@@QAEPAUHWND__@@XZ 00462a67 f   nafxcw:wincore.obj
 0001:00061a95       ?AfxWndProc@@YGJPAUHWND__@@IIJ@Z 00462a95 f   nafxcw:wincore.obj
 0001:00061ac4       ?AfxGetAfxWndProc@@YGP6GJPAUHWND__@@IIJ@ZXZ 00462ac4 f   nafxcw:wincore.obj
 0001:00061aca       ?_AfxActivationWndProc@@YGJPAUHWND__@@IIJ@Z 00462aca f   nafxcw:wincore.obj
 0001:00061c29       ?_AfxGrayBackgroundWndProc@@YGJPAUHWND__@@IIJ@Z 00462c29 f   nafxcw:wincore.obj
 0001:00061ca5       ?_AfxCbtFilterHook@@YGJHIJ@Z 00462ca5 f   nafxcw:wincore.obj
 0001:00061e9b       ?AfxHookWindowCreate@@YGXPAVCWnd@@@Z 00462e9b f   nafxcw:wincore.obj
 0001:00061ee7       ?AfxUnhookWindowCreate@@YGHXZ 00462ee7 f   nafxcw:wincore.obj
 0001:00061f29       ?CreateEx@CWnd@@QAEHKPBD0KHHHHPAUHWND__@@PAUHMENU__@@PAX@Z 00462f29 f   nafxcw:wincore.obj
 0001:00061fef       ?PreCreateWindow@CWnd@@UAEHAAUtagCREATESTRUCTA@@@Z 00462fef f   nafxcw:wincore.obj
 0001:0006200f       ?Create@CWnd@@UAEHPBD0KABUtagRECT@@PAV1@IPAUCCreateContext@@@Z 0046300f f   nafxcw:wincore.obj
 0001:0006205b       ??1CWnd@@UAE@XZ            0046305b f   nafxcw:wincore.obj
 0001:000620d7       ?OnDestroy@CWnd@@IAEXXZ    004630d7 f   nafxcw:wincore.obj
 0001:000620f5       ?OnNcDestroy@CWnd@@IAEXXZ  004630f5 f   nafxcw:wincore.obj
 0001:00062207       ?OnFinalRelease@CWnd@@UAEXXZ 00463207 f   nafxcw:wincore.obj
 0001:00062218       ?DestroyWindow@CWnd@@UAEHXZ 00463218 f   nafxcw:wincore.obj
 0001:00062265       ?DefWindowProcA@CWnd@@MAEJIIJ@Z 00463265 f   nafxcw:wincore.obj
 0001:000622ac       ?GetSuperWndProcAddr@CWnd@@MAEPAP6GJPAUHWND__@@IIJ@ZXZ 004632ac f   nafxcw:wincore.obj
 0001:000622b0       ?PreTranslateMessage@CWnd@@UAEHPAUtagMSG@@@Z 004632b0 f   nafxcw:wincore.obj
 0001:000622cf       ?CancelToolTips@CWnd@@SGXH@Z 004632cf f   nafxcw:wincore.obj
 0001:00062326       ?OnToolHitTest@CWnd@@UBEHVCPoint@@PAUtagTOOLINFOA@@@Z 00463326 f   nafxcw:wincore.obj
 0001:00062397       ?GetWindowTextA@CWnd@@QBEXAAVCString@@@Z 00463397 f   nafxcw:wincore.obj
 0001:000623df       ?OnDrawItem@CWnd@@IAEXHPAUtagDRAWITEMSTRUCT@@@Z 004633df f   nafxcw:wincore.obj
 0001:0006241c       ?OnCompareItem@CWnd@@IAEHHPAUtagCOMPAREITEMSTRUCT@@@Z 0046341c f   nafxcw:wincore.obj
 0001:00062446       ?OnDeleteItem@CWnd@@IAEXHPAUtagDELETEITEMSTRUCT@@@Z 00463446 f   nafxcw:wincore.obj
 0001:00062466       ?OnVKeyToItem@CWnd@@IAEHIPAVCListBox@@I@Z 00463466 f   nafxcw:wincore.obj
 0001:00062466       ?OnCharToItem@CWnd@@IAEHIPAVCListBox@@I@Z 00463466 f   nafxcw:wincore.obj
 0001:00062491       ?_AfxFindPopupMenuFromID@@YGPAVCMenu@@PAV1@I@Z 00463491 f   nafxcw:wincore.obj
 0001:000624f4       ?OnMeasureItem@CWnd@@IAEXHPAUtagMEASUREITEMSTRUCT@@@Z 004634f4 f   nafxcw:wincore.obj
 0001:0006256c       ?AfxRegisterClass@@YGHPAUtagWNDCLASSA@@@Z 0046356c f   nafxcw:wincore.obj
 0001:0006260d       ?AfxRegisterWndClass@@YGPBDIPAUHICON__@@PAUHBRUSH__@@0@Z 0046360d f   nafxcw:wincore.obj
 0001:000626c1       ?OnNTCtlColor@CWnd@@IAEJIJ@Z 004636c1 f   nafxcw:wincore.obj
 0001:00062707       ?WinHelpA@CWnd@@UAEXKI@Z   00463707 f   nafxcw:wincore.obj
 0001:000627e9       ?GetMessageMap@CWnd@@MBEPBUAFX_MSGMAP@@XZ 004637e9 f   nafxcw:wincore.obj
 0001:000627ef       ?AfxFindMessageEntry@@YGPBUAFX_MSGMAP_ENTRY@@PBU1@III@Z 004637ef f   nafxcw:wincore.obj
 0001:0006282f       ?WindowProc@CWnd@@MAEJIIJ@Z 0046382f f   nafxcw:wincore.obj
 0001:00062873       ?OnWndMsg@CWnd@@MAEHIIJPAJ@Z 00463873 f   nafxcw:wincore.obj
 0001:00062de5       ??0CTestCmdUI@@QAE@XZ      00463de5 f   nafxcw:wincore.obj
 0001:00062dfe       ?Enable@CTestCmdUI@@UAEXH@Z 00463dfe f   nafxcw:wincore.obj
 0001:00062e0f       ?OnCommand@CWnd@@MAEHIJ@Z  00463e0f f   nafxcw:wincore.obj
 0001:00062e9b       ?OnNotify@CWnd@@MAEHIJPAJ@Z 00463e9b f   nafxcw:wincore.obj
 0001:00062f15       ?GetParentFrame@CWnd@@QBEPAVCFrameWnd@@XZ 00463f15 f   nafxcw:wincore.obj
 0001:00062f53       ?AfxGetParentOwner@@YGPAUHWND__@@PAU1@@Z 00463f53 f   nafxcw:wincore.obj
 0001:00062f98       ?GetTopLevelParent@CWnd@@QBEPAV1@XZ 00463f98 f   nafxcw:wincore.obj
 0001:00062fc0       ?GetTopLevelFrame@CWnd@@QBEPAVCFrameWnd@@XZ 00463fc0 f   nafxcw:wincore.obj
 0001:00063001       ?MessageBoxA@CWnd@@QAEHPBD0I@Z 00464001 f   nafxcw:wincore.obj
 0001:00063033       ?GetDescendantWindow@CWnd@@SGPAV1@PAUHWND__@@HH@Z 00464033 f   nafxcw:wincore.obj
 0001:000630ac       ?SendMessageToDescendants@CWnd@@SGXPAUHWND__@@IIJHH@Z 004640ac f   nafxcw:wincore.obj
 0001:00063129       ?SetScrollPos@CWnd@@QAEHHHH@Z 00464129 f   nafxcw:wincore.obj
 0001:00063159       ?GetScrollPos@CWnd@@QBEHH@Z 00464159 f   nafxcw:wincore.obj
 0001:00063181       ?SetScrollRange@CWnd@@QAEXHHHH@Z 00464181 f   nafxcw:wincore.obj
 0001:000631b4       ?GetScrollRange@CWnd@@QBEXHPAH0@Z 004641b4 f   nafxcw:wincore.obj
 0001:000631e4       ?CalcWindowRect@CWnd@@UAEXPAUtagRECT@@I@Z 004641e4 f   nafxcw:wincore.obj
 0001:0006320f       ?WalkPreTranslateTree@CWnd@@SGHPAUHWND__@@PAUtagMSG@@@Z 0046420f f   nafxcw:wincore.obj
 0001:00063251       ?SendChildNotifyLastMsg@CWnd@@QAEHPAJ@Z 00464251 f   nafxcw:wincore.obj
 0001:0006327e       ?ReflectLastMsg@CWnd@@KGHPAUHWND__@@PAJ@Z 0046427e f   nafxcw:wincore.obj
 0001:00063322       ?OnChildNotify@CWnd@@MAEHIIJPAJ@Z 00464322 f   nafxcw:wincore.obj
 0001:0006337d       ?ReflectChildNotify@CWnd@@IAEHIIJPAJ@Z 0046437d f   nafxcw:wincore.obj
 0001:00063465       ?OnParentNotify@CWnd@@IAEXIJ@Z 00464465 f   nafxcw:wincore.obj
 0001:00063492       ?OnActivateTopLevel@CWnd@@IAEJIJ@Z 00464492 f   nafxcw:wincore.obj
 0001:000634b4       ?OnSysColorChange@CWnd@@IAEXXZ 004644b4 f   nafxcw:wincore.obj
 0001:00063531       ?OnSettingChange@CWnd@@IAEXIPBD@Z 00464531 f   nafxcw:wincore.obj
 0001:00063584       ?OnDevModeChange@CWnd@@IAEXPAD@Z 00464584 f   nafxcw:wincore.obj
 0001:000635cf       ?OnHelpInfo@CWnd@@IAEHPAUtagHELPINFO@@@Z 004645cf f   nafxcw:wincore.obj
 0001:00063633       ?OnDisplayChange@CWnd@@IAEJIJ@Z 00464633 f   nafxcw:wincore.obj
 0001:0006367c       ?OnDragList@CWnd@@IAEJIJ@Z 0046467c f   nafxcw:wincore.obj
 0001:000636a6       ?OnVScroll@CWnd@@IAEXIIPAVCScrollBar@@@Z 004646a6 f   nafxcw:wincore.obj
 0001:000636a6       ?OnHScroll@CWnd@@IAEXIIPAVCScrollBar@@@Z 004646a6 f   nafxcw:wincore.obj
 0001:000636c7       ?OnEnterIdle@CWnd@@IAEXIPAV1@@Z 004646c7 f   nafxcw:wincore.obj
 0001:00063711       ?OnCtlColor@CWnd@@IAEPAUHBRUSH__@@PAVCDC@@PAV1@I@Z 00464711 f   nafxcw:wincore.obj
 0001:00063738       ?OnGrayCtlColor@CWnd@@QAEPAUHBRUSH__@@PAVCDC@@PAV1@I@Z 00464738 f   nafxcw:wincore.obj
 0001:0006379b       ?GrayCtlColor@CWnd@@SGHPAUHDC__@@PAUHWND__@@IPAUHBRUSH__@@K@Z 0046479b f   nafxcw:wincore.obj
 0001:00063810       ?OnQuery3dControls@CWnd@@IAEJIJ@Z 00464810 f   nafxcw:wincore.obj
 0001:00063818       ?UpdateData@CWnd@@QAEHH@Z  00464818 f   nafxcw:wincore.obj
 0001:000638ba       ??0CDataExchange@@QAE@PAVCWnd@@H@Z 004648ba f   nafxcw:wincore.obj
 0001:000638d0       ?CenterWindow@CWnd@@QAEXPAV1@@Z 004648d0 f   nafxcw:wincore.obj
 0001:00063a85       ?OnCreateAggregates@CCmdTarget@@UAEHXZ 00464a85 f   nafxcw:wincore.obj
 0001:00063a85       ?CheckAutoCenter@CWnd@@UAEHXZ 00464a85 f   nafxcw:wincore.obj
 0001:00063a89       ?ExecuteDlgInit@CWnd@@QAEHPBD@Z 00464a89 f   nafxcw:wincore.obj
 0001:00063ad9       ?ExecuteDlgInit@CWnd@@QAEHPAX@Z 00464ad9 f   nafxcw:wincore.obj
 0001:00063bab       ?PreTranslateInput@CWnd@@QAEHPAUtagMSG@@@Z 00464bab f   nafxcw:wincore.obj
 0001:00063bdb       ?RunModalLoop@CWnd@@QAEHK@Z 00464bdb f   nafxcw:wincore.obj
 0001:00063d3a       ?ContinueModal@CWnd@@UAEHXZ 00464d3a f   nafxcw:wincore.obj
 0001:00063d41       ?EndModalLoop@CWnd@@UAEXH@Z 00464d41 f   nafxcw:wincore.obj
 0001:00063d65       ?GetConnectionHook@CCmdTarget@@MAEPAUIConnectionPoint@@ABU_GUID@@@Z 00464d65 f   nafxcw:wincore.obj
 0001:00063d65       ?GetScrollBarCtrl@CWnd@@UBEPAVCScrollBar@@H@Z 00464d65 f   nafxcw:wincore.obj
 0001:00063d65       ?GetInterfaceHook@CCmdTarget@@UAEPAUIUnknown@@PBX@Z 00464d65 f   nafxcw:wincore.obj
 0001:00063d65       ?SetOccDialogInfo@CWnd@@MAEHPAU_AFX_OCC_DIALOG_INFO@@@Z 00464d65 f   nafxcw:wincore.obj
 0001:00063d65       ?GetDispatchIID@CCmdTarget@@UAEHPAU_GUID@@@Z 00464d65 f   nafxcw:wincore.obj
 0001:00063d65       ?GetExtraConnectionPoints@CCmdTarget@@MAEHPAVCPtrArray@@@Z 00464d65 f   nafxcw:wincore.obj
 0001:00063d6a       ?_AfxRegisterWithIcon@@YGHPAUtagWNDCLASSA@@PBDI@Z 00464d6a f   nafxcw:wincore.obj
 0001:00063dab       ?_AfxInitCommonControls@@YGJPAUtagINITCOMMONCONTROLSEX@@J@Z 00464dab f   nafxcw:wincore.obj
 0001:00063e22       ?AfxEndDeferRegisterClass@@YGHJ@Z 00464e22 f   nafxcw:wincore.obj
 0001:000640d9       ?IsTracking@CFrameWnd@@QBEHXZ 004650d9 f   nafxcw:wincore.obj
 0001:000640f8       ?SubclassWindow@CWnd@@QAEHPAUHWND__@@@Z 004650f8 f   nafxcw:wincore.obj
 0001:0006413b       ??3CTempWnd@@SAXPAX@Z      0046513b f i nafxcw:wincore.obj
 0001:0006414a       ?OnAmbientProperty@CWnd@@UAEHPAVCOleControlSite@@JPAUtagVARIANT@@@Z 0046514a f   nafxcw:winocc.obj
 0001:00064161       ?GetDlgItem@CWnd@@QBEPAV1@H@Z 00465161 f   nafxcw:winocc.obj
 0001:0006418b       ?GetDlgItem@CWnd@@QBEXHPAPAUHWND__@@@Z 0046518b f   nafxcw:winocc.obj
 0001:000641b9       ?ScrollWindowEx@CWnd@@QAEHHHPBUtagRECT@@0PAVCRgn@@PAU2@I@Z 004651b9 f   nafxcw:winocc.obj
 0001:00064208       ?IsDialogMessageA@CWnd@@QAEHPAUtagMSG@@@Z 00465208 f   nafxcw:winocc.obj
 0001:0006423b       ?GetStyle@CWnd@@QBEKXZ     0046523b f   nafxcw:winocc.obj
 0001:00064255       ?GetExStyle@CWnd@@QBEKXZ   00465255 f   nafxcw:winocc.obj
 0001:0006426f       ?ModifyStyle@CWnd@@QAEHKKI@Z 0046526f f   nafxcw:winocc.obj
 0001:000642a0       ?ModifyStyleEx@CWnd@@QAEHKKI@Z 004652a0 f   nafxcw:winocc.obj
 0001:000642d1       ?SetWindowTextA@CWnd@@QAEXPBD@Z 004652d1 f   nafxcw:winocc.obj
 0001:000642f8       ?GetDlgCtrlID@CWnd@@QBEHXZ 004652f8 f   nafxcw:winocc.obj
 0001:00064313       ?MoveWindow@CWnd@@QAEXHHHHH@Z 00465313 f   nafxcw:winocc.obj
 0001:00064354       ?SetWindowPos@CWnd@@QAEHPBV1@HHHHI@Z 00465354 f   nafxcw:winocc.obj
 0001:000643a3       ?ShowWindow@CWnd@@QAEHH@Z  004653a3 f   nafxcw:winocc.obj
 0001:000643ca       ?IsWindowEnabled@CWnd@@QBEHXZ 004653ca f   nafxcw:winocc.obj
 0001:000643e5       ?EnableWindow@CWnd@@QAEHH@Z 004653e5 f   nafxcw:winocc.obj
 0001:0006440c       ?SetFocus@CWnd@@QAEPAV1@XZ 0046540c f   nafxcw:winocc.obj
 0001:0006442d       ?AttachControlSite@CWnd@@IAEXPAVCHandleMap@@@Z 0046542d f   nafxcw:winocc.obj
 0001:0006446a       ?AttachControlSite@CWnd@@QAEXPAV1@@Z 0046546a f   nafxcw:winocc.obj
 0001:00064489       ?GetFileName@CFile@@UBE?AVCString@@XZ 00465489 f   nafxcw:filest.obj
 0001:0006450b       ?GetFileTitle@CFile@@UBE?AVCString@@XZ 0046550b f   nafxcw:filest.obj
 0001:0006458d       ?GetFilePath@CFile@@UBE?AVCString@@XZ 0046558d f   nafxcw:filest.obj
 0001:000645bc       ?GetStatus@CFile@@QBEHAAUCFileStatus@@@Z 004655bc f   nafxcw:filest.obj
 0001:00064696       ?GetMessageMap@CWinApp@@MBEPBUAFX_MSGMAP@@XZ 00465696 f   nafxcw:appcore.obj
 0001:0006469c       ?Run@CWinApp@@UAEHXZ       0046569c f   nafxcw:appcore.obj
 0001:000646be       ?WinHelpA@CWinApp@@UAEXKI@Z 004656be f   nafxcw:appcore.obj
 0001:000646f5       ?ProcessWndProcException@CWinApp@@UAEJPAVCException@@PBUtagMSG@@@Z 004656f5 f   nafxcw:appcore.obj
 0001:0006476c       ?OnIdle@CWinApp@@UAEHJ@Z   0046576c f   nafxcw:appcore.obj
 0001:000647d6       ?DevModeChange@CWinApp@@QAEXPAD@Z 004657d6 f   nafxcw:appcore.obj
 0001:00064883       ??0CCmdTarget@@QAE@XZ      00465883 f   nafxcw:cmdtarg.obj
 0001:0006489d       ??1CCmdTarget@@UAE@XZ      0046589d f   nafxcw:cmdtarg.obj
 0001:000648c8       ?_AfxDispatchCmdMsg@@YGHPAVCCmdTarget@@IHP81@AEXXZPAXIPAUAFX_CMDHANDLERINFO@@@Z 004658c8 f   nafxcw:cmdtarg.obj
 0001:000649cf       ?OnCmdMsg@CCmdTarget@@UAEHIHPAXPAUAFX_CMDHANDLERINFO@@@Z 004659cf f   nafxcw:cmdtarg.obj
 0001:00064ade       ?IsInvokeAllowed@CCmdTarget@@UAEHJ@Z 00465ade f   nafxcw:cmdtarg.obj
 0001:00064ae4       ?GetTypeLib@CCmdTarget@@UAEJKPAPAUITypeLib@@@Z 00465ae4 f   nafxcw:cmdtarg.obj
 0001:00064aec       ?BeginWaitCursor@CCmdTarget@@QAEXXZ 00465aec f   nafxcw:cmdtarg.obj
 0001:00064b01       ?EndWaitCursor@CCmdTarget@@QAEXXZ 00465b01 f   nafxcw:cmdtarg.obj
 0001:00064b16       ?GetMessageMap@CCmdTarget@@MBEPBUAFX_MSGMAP@@XZ 00465b16 f   nafxcw:cmdtarg.obj
 0001:00064b1c       ?GetDispatchMap@CCmdTarget@@MBEPBUAFX_DISPMAP@@XZ 00465b1c f   nafxcw:cmdtarg.obj
 0001:00064b22       ?GetEventSinkMap@CCmdTarget@@MBEPBUAFX_EVENTSINKMAP@@XZ 00465b22 f   nafxcw:cmdtarg.obj
 0001:00064b28       ?GetInterfaceMap@CCmdTarget@@MBEPBUAFX_INTERFACEMAP@@XZ 00465b28 f   nafxcw:cmdtarg.obj
 0001:00064b2e       ?OnFinalRelease@CCmdTarget@@UAEXXZ 00465b2e f   nafxcw:cmdtarg.obj
 0001:00064b60       ?GetConnectionMap@CCmdTarget@@MBEPBUAFX_CONNECTIONMAP@@XZ 00465b60 f   nafxcw:cmdtarg.obj
 0001:00064b66       ?GetCommandMap@CCmdTarget@@MBEPBUAFX_OLECMDMAP@@XZ 00465b66 f   nafxcw:cmdtarg.obj
 0001:00064b6c       ??0CCmdUI@@QAE@XZ          00465b6c f   nafxcw:cmdtarg.obj
 0001:00064b92       ?Enable@CCmdUI@@UAEXH@Z    00465b92 f   nafxcw:cmdtarg.obj
 0001:00064c22       ?SetCheck@CCmdUI@@UAEXH@Z  00465c22 f   nafxcw:cmdtarg.obj
 0001:00064c84       ?SetRadio@CCmdUI@@UAEXH@Z  00465c84 f   nafxcw:cmdtarg.obj
 0001:00064cda       ?SetText@CCmdUI@@UAEXPBD@Z 00465cda f   nafxcw:cmdtarg.obj
 0001:00064d31       ?AfxGetThread@@YGPAVCWinThread@@XZ 00465d31 f   nafxcw:thrdcore.obj
 0001:00064d46       ?AfxInitThread@@YGXXZ      00465d46 f   nafxcw:thrdcore.obj
 0001:00064da5       ?Delete@CWinThread@@UAEXXZ 00465da5 f   nafxcw:thrdcore.obj
 0001:00064db7       ?GetTypeLibCache@CCmdTarget@@UAEPAVCTypeLibCache@@XZ 00465db7 f   nafxcw:thrdcore.obj
 0001:00064db7       ?GetTypeInfoCount@CCmdTarget@@UAEIXZ 00465db7 f   nafxcw:thrdcore.obj
 0001:00064db7       ?IsFrameWnd@CWnd@@UBEHXZ   00465db7 f   nafxcw:thrdcore.obj
 0001:00064db7       ?InitInstance@CWinThread@@UAEHXZ 00465db7 f   nafxcw:thrdcore.obj
 0001:00064dba       ?Run@CWinThread@@UAEHXZ    00465dba f   nafxcw:thrdcore.obj
 0001:00064e39       ?IsIdleMessage@CWinThread@@UAEHPAUtagMSG@@@Z 00465e39 f   nafxcw:thrdcore.obj
 0001:00064e92       ?ExitInstance@CWinThread@@UAEHXZ 00465e92 f   nafxcw:thrdcore.obj
 0001:00064e96       ?OnIdle@CWinThread@@UAEHJ@Z 00465e96 f   nafxcw:thrdcore.obj
 0001:00064fa1       ?DispatchThreadMessageEx@CWinThread@@IAEHPAUtagMSG@@@Z 00465fa1 f   nafxcw:thrdcore.obj
 0001:0006501c       ?PreTranslateMessage@CWinThread@@UAEHPAUtagMSG@@@Z 0046601c f   nafxcw:thrdcore.obj
 0001:00065079       ?ProcessWndProcException@CWinThread@@UAEJPAVCException@@PBUtagMSG@@@Z 00466079 f   nafxcw:thrdcore.obj
 0001:0006509e       ?_AfxMsgFilterHook@@YGJHIJ@Z 0046609e f   nafxcw:thrdcore.obj
 0001:000650f6       ?IsHelpKey@@YGHPAUtagMSG@@@Z 004660f6 f   nafxcw:thrdcore.obj
 0001:00065141       ?ProcessMessageFilter@CWinThread@@UAEHHPAUtagMSG@@@Z 00466141 f   nafxcw:thrdcore.obj
 0001:0006528b       ?GetMainWnd@CWinThread@@UAEPAVCWnd@@XZ 0046628b f   nafxcw:thrdcore.obj
 0001:000652a6       ?PumpMessage@CWinThread@@UAEHXZ 004662a6 f   nafxcw:thrdcore.obj
 0001:000652e6       ?afxMapHMENU@@YGPAVCHandleMap@@H@Z 004662e6 f   nafxcw:winmenu.obj
 0001:00065358       ?FromHandle@CMenu@@SGPAV1@PAUHMENU__@@@Z 00466358 f   nafxcw:winmenu.obj
 0001:0006536d       ?FromHandlePermanent@CMenu@@SGPAV1@PAUHMENU__@@@Z 0046636d f   nafxcw:winmenu.obj
 0001:0006538b       ?Detach@CMenu@@QAEPAUHMENU__@@XZ 0046638b f   nafxcw:winmenu.obj
 0001:000653b5       ?DestroyMenu@CMenu@@QAEHXZ 004663b5 f   nafxcw:winmenu.obj
 0001:000653cb       ?SetText@CTestCmdUI@@UAEXPBD@Z 004663cb f   nafxcw:winmenu.obj
 0001:000653cb       ?SetRadio@CTestCmdUI@@UAEXH@Z 004663cb f   nafxcw:winmenu.obj
 0001:000653cb       ?MeasureItem@CMenu@@UAEXPAUtagMEASUREITEMSTRUCT@@@Z 004663cb f   nafxcw:winmenu.obj
 0001:000653cb       ?OnSetFont@CDialog@@UAEXPAVCFont@@@Z 004663cb f   nafxcw:winmenu.obj
 0001:000653cb       ?SetCheck@CTestCmdUI@@UAEXH@Z 004663cb f   nafxcw:winmenu.obj
 0001:000653cb       ?DrawItem@CMenu@@UAEXPAUtagDRAWITEMSTRUCT@@@Z 004663cb f   nafxcw:winmenu.obj
 0001:000653ce       ?ThrowOsError@CFileException@@SGXJPBD@Z 004663ce f   nafxcw:filex.obj
 0001:000653ef       ?GetErrorMessage@CFileException@@UAEHPADIPAI@Z 004663ef f   nafxcw:filex.obj
 0001:0006548f       ?AfxThrowFileException@@YGXHJPBD@Z 0046648f f   nafxcw:filex.obj
 0001:000654fa       ?OsErrorToException@CFileException@@SGHJ@Z 004664fa f   nafxcw:filex.obj
 0001:00065778       ?LoadStringA@CString@@QAEHI@Z 00466778 f   nafxcw:winstr.obj
 0001:000657fc       ?AfxLoadString@@YGHIPADI@Z 004667fc f   nafxcw:winstr.obj
 0001:00065823       ?IsKindOf@CObject@@QBEHPBUCRuntimeClass@@@Z 00466823 f   nafxcw:objcore.obj
 0001:00065835       ?AfxDynamicDownCast@@YAPAVCObject@@PAUCRuntimeClass@@PAV1@@Z 00466835 f   nafxcw:objcore.obj
 0001:00065855       ?CreateObject@CRuntimeClass@@QAEPAVCObject@@XZ 00466855 f   nafxcw:objcore.obj
 0001:0006589b       ?AfxClassInit@@YGXPAUCRuntimeClass@@@Z 0046689b f   nafxcw:objcore.obj
 0001:000658c1       ?IsDerivedFrom@CRuntimeClass@@QBEHPBU1@@Z 004668c1 f   nafxcw:objcore.obj
 0001:000658da       ?AfxLockTempMaps@@YGXXZ    004668da f   nafxcw:winhand.obj
 0001:000658e3       ?AfxUnlockTempMaps@@YGHH@Z 004668e3 f   nafxcw:winhand.obj
 0001:000659dd       ??0CHandleMap@@QAE@PAUCRuntimeClass@@IH@Z 004669dd f   nafxcw:winhand.obj
 0001:00065a42       ?FromHandle@CHandleMap@@QAEPAVCObject@@PAX@Z 00466a42 f   nafxcw:winhand.obj
 0001:00065b01       ?DeleteTemp@CHandleMap@@QAEXXZ 00466b01 f   nafxcw:winhand.obj
 0001:00065b66       ??0CDialogTemplate@@QAE@PBUDLGTEMPLATE@@@Z 00466b66 f   nafxcw:dlgtempl.obj
 0001:00065b95       ?SetTemplate@CDialogTemplate@@IAEHPBUDLGTEMPLATE@@I@Z 00466b95 f   nafxcw:dlgtempl.obj
 0001:00065bf5       ??1CDialogTemplate@@QAE@XZ 00466bf5 f   nafxcw:dlgtempl.obj
 0001:00065c03       ?Detach@CDialogTemplate@@QAEPAXXZ 00466c03 f   nafxcw:dlgtempl.obj
 0001:00065c09       ?GetFontSizeField@CDialogTemplate@@KAPAEPBUDLGTEMPLATE@@@Z 00466c09 f   nafxcw:dlgtempl.obj
 0001:00065c5f       ?GetTemplateSize@CDialogTemplate@@KAIPBUDLGTEMPLATE@@@Z 00466c5f f   nafxcw:dlgtempl.obj
 0001:00065d17       ?GetFont@CDialogTemplate@@SAHPBUDLGTEMPLATE@@AAVCString@@AAG@Z 00466d17 f   nafxcw:dlgtempl.obj
 0001:00065d86       ?SetFont@CDialogTemplate@@QAEHPBDG@Z 00466d86 f   nafxcw:dlgtempl.obj
 0001:00065ea0       ?SetSystemFont@CDialogTemplate@@QAEHG@Z 00466ea0 f   nafxcw:dlgtempl.obj
 0001:00065f31       ?UpdateSysColors@AUX_DATA@@QAEXXZ 00466f31 f   nafxcw:auxdata.obj
 0001:00065f75       ?UpdateSysMetrics@AUX_DATA@@QAEXXZ 00466f75 f   nafxcw:auxdata.obj
 0001:00065fcd       ?AfxWinMain@@YGHPAUHINSTANCE__@@0PADH@Z 00466fcd f   nafxcw:winmain.obj
 0001:00066043       ??0CDC@@QAE@XZ             00467043 f   nafxcw:wingdi.obj
 0001:00066057       ??_GCDC@@UAEPAXI@Z         00467057 f i nafxcw:wingdi.obj
 0001:00066057       ??_ECDC@@UAEPAXI@Z         00467057 f i nafxcw:wingdi.obj
 0001:00066073       ?afxMapHDC@@YGPAVCHandleMap@@H@Z 00467073 f   nafxcw:wingdi.obj
 0001:000660e5       ?FromHandle@CDC@@SGPAV1@PAUHDC__@@@Z 004670e5 f   nafxcw:wingdi.obj
 0001:000660fa       ?Attach@CDC@@QAEHPAUHDC__@@@Z 004670fa f   nafxcw:wingdi.obj
 0001:00066131       ?Detach@CDC@@QAEPAUHDC__@@XZ 00467131 f   nafxcw:wingdi.obj
 0001:00066162       ?DeleteDC@CDC@@QAEHXZ      00467162 f   nafxcw:wingdi.obj
 0001:00066178       ??1CDC@@UAE@XZ             00467178 f   nafxcw:wingdi.obj
 0001:000661ae       ?SetAttribDC@CDC@@UAEXPAUHDC__@@@Z 004671ae f   nafxcw:wingdi.obj
 0001:000661b8       ?SetOutputDC@CDC@@UAEXPAUHDC__@@@Z 004671b8 f   nafxcw:wingdi.obj
 0001:000661c2       ?ReleaseAttribDC@CDC@@UAEXXZ 004671c2 f   nafxcw:wingdi.obj
 0001:000661c7       ?ReleaseOutputDC@CDC@@UAEXXZ 004671c7 f   nafxcw:wingdi.obj
 0001:000661cc       ?SaveDC@CDC@@UAEHXZ        004671cc f   nafxcw:wingdi.obj
 0001:000661fd       ?RestoreDC@CDC@@UAEHH@Z    004671fd f   nafxcw:wingdi.obj
 0001:0006623b       ?SelectGdiObject@CDC@@KGPAVCGdiObject@@PAUHDC__@@PAX@Z 0046723b f   nafxcw:wingdi.obj
 0001:00066252       ?SelectStockObject@CDC@@UAEPAVCGdiObject@@H@Z 00467252 f   nafxcw:wingdi.obj
 0001:0006628e       ?SelectObject@CDC@@QAEPAVCPen@@PAV2@@Z 0046728e f   nafxcw:wingdi.obj
 0001:0006628e       ?SelectObject@CDC@@QAEPAVCBrush@@PAV2@@Z 0046728e f   nafxcw:wingdi.obj
 0001:0006628e       ?SelectObject@CDC@@UAEPAVCFont@@PAV2@@Z 0046728e f   nafxcw:wingdi.obj
 0001:000662d4       ?SelectObject@CDC@@QAEHPAVCRgn@@@Z 004672d4 f   nafxcw:wingdi.obj
 0001:00066319       ?SelectPalette@CDC@@QAEPAVCPalette@@PAV2@H@Z 00467319 f   nafxcw:wingdi.obj
 0001:0006633b       ?SetBkColor@CDC@@UAEKK@Z   0046733b f   nafxcw:wingdi.obj
 0001:0006636a       ?SetBkMode@CDC@@QAEHH@Z    0046736a f   nafxcw:wingdi.obj
 0001:00066398       ?SetPolyFillMode@CDC@@QAEHH@Z 00467398 f   nafxcw:wingdi.obj
 0001:000663c6       ?SetROP2@CDC@@QAEHH@Z      004673c6 f   nafxcw:wingdi.obj
 0001:000663f4       ?SetStretchBltMode@CDC@@QAEHH@Z 004673f4 f   nafxcw:wingdi.obj
 0001:00066422       ?SetTextColor@CDC@@UAEKK@Z 00467422 f   nafxcw:wingdi.obj
 0001:00066451       ?SetMapMode@CDC@@UAEHH@Z   00467451 f   nafxcw:wingdi.obj
 0001:0006647f       ?SetViewportOrg@CDC@@UAE?AVCPoint@@HH@Z 0046747f f   nafxcw:wingdi.obj
 0001:000664cb       ?OffsetViewportOrg@CDC@@UAE?AVCPoint@@HH@Z 004674cb f   nafxcw:wingdi.obj
 0001:00066517       ?SetViewportExt@CDC@@UAE?AVCSize@@HH@Z 00467517 f   nafxcw:wingdi.obj
 0001:00066563       ?ScaleViewportExt@CDC@@UAE?AVCSize@@HHHH@Z 00467563 f   nafxcw:wingdi.obj
 0001:000665bb       ?SetWindowOrg@CDC@@QAE?AVCPoint@@HH@Z 004675bb f   nafxcw:wingdi.obj
 0001:00066607       ?SetWindowExt@CDC@@UAE?AVCSize@@HH@Z 00467607 f   nafxcw:wingdi.obj
 0001:00066653       ?ScaleWindowExt@CDC@@UAE?AVCSize@@HHHH@Z 00467653 f   nafxcw:wingdi.obj
 0001:000666ab       ?GetClipBox@CDC@@UBEHPAUtagRECT@@@Z 004676ab f   nafxcw:wingdi.obj
 0001:000666bb       ?SelectClipRgn@CDC@@QAEHPAVCRgn@@@Z 004676bb f   nafxcw:wingdi.obj
 0001:000666fb       ?ExcludeClipRect@CDC@@QAEHHHHH@Z 004676fb f   nafxcw:wingdi.obj
 0001:0006673d       ?ExcludeClipRect@CDC@@QAEHPBUtagRECT@@@Z 0046773d f   nafxcw:wingdi.obj
 0001:0006677f       ?MoveTo@CDC@@QAE?AVCPoint@@HH@Z 0046777f f   nafxcw:wingdi.obj
 0001:000667cb       ?LineTo@CDC@@QAEHHH@Z      004677cb f   nafxcw:wingdi.obj
 0001:00066800       ?ScreenToClient@CWnd@@QBEXPAUtagRECT@@@Z 00467800 f   nafxcw:wingdi.obj
 0001:0006683c       ?ClientToScreen@CWnd@@QBEXPAUtagRECT@@@Z 0046783c f   nafxcw:wingdi.obj
 0001:00066878       ?SelectClipRgn@CDC@@QAEHPAVCRgn@@H@Z 00467878 f   nafxcw:wingdi.obj
 0001:000668c0       ?LPtoDP@CDC@@QBEXPAUtagSIZE@@@Z 004678c0 f   nafxcw:wingdi.obj
 0001:00066929       ?DPtoLP@CDC@@QBEXPAUtagSIZE@@@Z 00467929 f   nafxcw:wingdi.obj
 0001:00066992       ??0CClientDC@@QAE@PAVCWnd@@@Z 00467992 f   nafxcw:wingdi.obj
 0001:000669e8       ??_GCClientDC@@UAEPAXI@Z   004679e8 f i nafxcw:wingdi.obj
 0001:000669e8       ??_ECClientDC@@UAEPAXI@Z   004679e8 f i nafxcw:wingdi.obj
 0001:00066a04       ??1CClientDC@@UAE@XZ       00467a04 f   nafxcw:wingdi.obj
 0001:00066a46       ??0CWindowDC@@QAE@PAVCWnd@@@Z 00467a46 f   nafxcw:wingdi.obj
 0001:00066a9c       ??_ECWindowDC@@UAEPAXI@Z   00467a9c f i nafxcw:wingdi.obj
 0001:00066a9c       ??_GCWindowDC@@UAEPAXI@Z   00467a9c f i nafxcw:wingdi.obj
 0001:00066ab8       ??1CWindowDC@@UAE@XZ       00467ab8 f   nafxcw:wingdi.obj
 0001:00066afa       ??0CPaintDC@@QAE@PAVCWnd@@@Z 00467afa f   nafxcw:wingdi.obj
 0001:00066b50       ??_ECPaintDC@@UAEPAXI@Z    00467b50 f i nafxcw:wingdi.obj
 0001:00066b50       ??_GCPaintDC@@UAEPAXI@Z    00467b50 f i nafxcw:wingdi.obj
 0001:00066b6c       ??1CPaintDC@@UAE@XZ        00467b6c f   nafxcw:wingdi.obj
 0001:00066bb3       ?afxMapHGDIOBJ@@YGPAVCHandleMap@@H@Z 00467bb3 f   nafxcw:wingdi.obj
 0001:00066c25       ?FromHandle@CGdiObject@@SGPAV1@PAX@Z 00467c25 f   nafxcw:wingdi.obj
 0001:00066c3a       ?Attach@CGdiObject@@QAEHPAX@Z 00467c3a f   nafxcw:wingdi.obj
 0001:00066c67       ?Detach@CGdiObject@@QAEPAXXZ 00467c67 f   nafxcw:wingdi.obj
 0001:00066c91       ?DeleteObject@CGdiObject@@QAEHXZ 00467c91 f   nafxcw:wingdi.obj
 0001:00066ca7       ??0CPen@@QAE@HHK@Z         00467ca7 f   nafxcw:wingdi.obj
 0001:00066cf7       ??0CBrush@@QAE@K@Z         00467cf7 f   nafxcw:wingdi.obj
 0001:00066d41       ?AfxThrowResourceException@@YGXXZ 00467d41 f   nafxcw:wingdi.obj
 0001:00066d5a       ??6@YGAAVCArchive@@AAV0@ABVCString@@@Z 00467d5a f   nafxcw:arccore.obj
 0001:00066dd3       ?_AfxReadStringLength@@YGIAAVCArchive@@@Z 00467dd3 f   nafxcw:arccore.obj
 0001:00066e2a       ??5@YGAAVCArchive@@AAV0@AAVCString@@@Z 00467e2a f   nafxcw:arccore.obj
 0001:00066ec2       ??0CArchive@@QAE@PAVCFile@@IHPAX@Z 00467ec2 f   nafxcw:arccore.obj
 0001:00066f9e       ??1CArchive@@QAE@XZ        00467f9e f   nafxcw:arccore.obj
 0001:00066fe4       ?Abort@CArchive@@QAEXXZ    00467fe4 f   nafxcw:arccore.obj
 0001:00067026       ?Close@CArchive@@QAEXXZ    00468026 f   nafxcw:arccore.obj
 0001:00067034       ?Read@CArchive@@QAEIPAXI@Z 00468034 f   nafxcw:arccore.obj
 0001:00067143       ?Write@CArchive@@QAEXPBXI@Z 00468143 f   nafxcw:arccore.obj
 0001:000671d3       ?Flush@CArchive@@QAEXXZ    004681d3 f   nafxcw:arccore.obj
 0001:0006724f       ?FillBuffer@CArchive@@QAEXI@Z 0046824f f   nafxcw:arccore.obj
 0001:00067311       ?WriteCount@CArchive@@QAEXK@Z 00468311 f   nafxcw:arccore.obj
 0001:0006733f       ?ReadCount@CArchive@@QAEKXZ 0046833f f   nafxcw:arccore.obj
 0001:0006736f       ?GetErrorMessage@CArchiveException@@UAEHPADIPAI@Z 0046836f f   nafxcw:arcex.obj
 0001:0006740f       ?AfxThrowArchiveException@@YGXHPBD@Z 0046840f f   nafxcw:arcex.obj
 0001:00067474       ?OnAppExit@CWinApp@@IAEXXZ 00468474 f   nafxcw:appui.obj
 0001:00067487       ?_AfxIsComboBoxControl@@YGHPAUHWND__@@I@Z 00468487 f   nafxcw:winutil.obj
 0001:000674d1       ?_AfxCompareClassName@@YGHPAUHWND__@@PBD@Z 004684d1 f   nafxcw:winutil.obj
 0001:000674fc       ?_AfxChildWindowFromPoint@@YGPAUHWND__@@PAU1@UtagPOINT@@@Z 004684fc f   nafxcw:winutil.obj
 0001:00067571       ?AfxSetWindowText@@YGXPAUHWND__@@PBD@Z 00468571 f   nafxcw:winutil.obj
 0001:000675c9       ?AfxDeleteObject@@YGXPAPAX@Z 004685c9 f   nafxcw:winutil.obj
 0001:000675e2       ?AfxCancelModes@@YGXPAUHWND__@@@Z 004685e2 f   nafxcw:winutil.obj
 0001:00067659       ?AfxGlobalFree@@YGXPAX@Z   00468659 f   nafxcw:winutil.obj
 0001:0006768f       ?AfxCriticalNewHandler@@YAHI@Z 0046868f f   nafxcw:winutil.obj
 0001:000676e1       ??0CMemFile@@QAE@I@Z       004686e1 f   nafxcw:filemem.obj
 0001:00067711       ??_ECMemFile@@UAEPAXI@Z    00468711 f i nafxcw:filemem.obj
 0001:00067711       ??_GCMemFile@@UAEPAXI@Z    00468711 f i nafxcw:filemem.obj
 0001:0006772d       ?Attach@CMemFile@@QAEXPAEII@Z 0046872d f   nafxcw:filemem.obj
 0001:00067758       ?Detach@CMemFile@@QAEPAEXZ 00468758 f   nafxcw:filemem.obj
 0001:0006776a       ??1CMemFile@@UAE@XZ        0046876a f   nafxcw:filemem.obj
 0001:000677b6       ?Alloc@CMemFile@@MAEPAEK@Z 004687b6 f   nafxcw:filemem.obj
 0001:000677c3       ?Realloc@CMemFile@@MAEPAEPAEK@Z 004687c3 f   nafxcw:filemem.obj
 0001:000677d5       ?Memcpy@CMemFile@@MAEPAEPAEPBEI@Z 004687d5 f   nafxcw:filemem.obj
 0001:000677fa       ?Free@CMemFile@@MAEXPAE@Z  004687fa f   nafxcw:filemem.obj
 0001:00067807       ?GetPosition@CMemFile@@UBEKXZ 00468807 f   nafxcw:filemem.obj
 0001:0006780b       ?GrowFile@CMemFile@@MAEXK@Z 0046880b f   nafxcw:filemem.obj
 0001:00067864       ?SetLength@CMemFile@@UAEXK@Z 00468864 f   nafxcw:filemem.obj
 0001:00067887       ?Read@CMemFile@@UAEIPAXI@Z 00468887 f   nafxcw:filemem.obj
 0001:000678c8       ?Write@CMemFile@@UAEXPBXI@Z 004688c8 f   nafxcw:filemem.obj
 0001:0006790a       ?Seek@CMemFile@@UAEJJI@Z   0046890a f   nafxcw:filemem.obj
 0001:00067950       ?Flush@CMemFile@@UAEXXZ    00468950 f   nafxcw:filemem.obj
 0001:00067951       ?Close@CMemFile@@UAEXXZ    00468951 f   nafxcw:filemem.obj
 0001:0006797b       ?Abort@CMemFile@@UAEXXZ    0046897b f   nafxcw:filemem.obj
 0001:00067980       ?UnlockRange@CMemFile@@UAEXKK@Z 00468980 f   nafxcw:filemem.obj
 0001:00067980       ?LockRange@CMemFile@@UAEXKK@Z 00468980 f   nafxcw:filemem.obj
 0001:00067988       ?Duplicate@CMemFile@@UBEPAVCFile@@XZ 00468988 f   nafxcw:filemem.obj
 0001:00067990       ?GetBufferPtr@CMemFile@@UAEIIIPAPAX0@Z 00468990 f   nafxcw:filemem.obj
 0001:00067a37       ?EnableModeless@CWinApp@@QAEXH@Z 00468a37 f   nafxcw:appui1.obj
 0001:00067a65       ?DoMessageBox@CWinApp@@UAEHPBDII@Z 00468a65 f   nafxcw:appui1.obj
 0001:00067b4c       ?AfxMessageBox@@YGHPBDII@Z 00468b4c f   nafxcw:appui1.obj
 0001:00067b84       ?AfxMessageBox@@YGHIII@Z   00468b84 f   nafxcw:appui1.obj
 0001:00067bdd       ?GetSafeOwner_@CWnd@@SGPAUHWND__@@PAU2@PAPAU2@@Z 00468bdd f   nafxcw:appui1.obj
 0001:00067c79       ?GetRoutingFrame_@CCmdTarget@@KGPAVCFrameWnd@@XZ 00468c79 f   nafxcw:appui1.obj
 0001:00067c85       ?DoWaitCursor@CWinApp@@UAEXH@Z 00468c85 f   nafxcw:appui.obj
 0001:00067ce4       ?SaveAllModified@CWinApp@@UAEHXZ 00468ce4 f   nafxcw:appui.obj
 0001:00067cf7       ?AddToRecentFileList@CWinApp@@UAEXPBD@Z 00468cf7 f   nafxcw:appui.obj
 0001:00067d0d       ?OpenDocumentFile@CWinApp@@UAEPAVCDocument@@PBD@Z 00468d0d f   nafxcw:appui.obj
 0001:00067d1f       ?OnUpdateRecentFileMenu@CWinApp@@IAEXPAVCCmdUI@@@Z 00468d1f f   nafxcw:appui.obj
 0001:00067d41       ?OnDDECommand@CWinApp@@UAEHPAD@Z 00468d41 f   nafxcw:appui.obj
 0001:00067d5b       ?OnOpenRecentFile@CWinApp@@IAEHI@Z 00468d5b f   nafxcw:appui.obj
 0001:00067d8e       ?PrepareCtrl@CDataExchange@@QAEPAUHWND__@@H@Z 00468d8e f   nafxcw:dlgdata.obj
 0001:00067dbd       ?DDX_Control@@YGXPAVCDataExchange@@HAAVCWnd@@@Z 00468dbd f   nafxcw:dlgdata.obj
 0001:00067e09       ?WriteProfileInt@CWinApp@@QAEHPBD0H@Z 00468e09 f   nafxcw:appui3.obj
 0001:00067e7e       ?AfxFormatStrings@@YGXAAVCString@@IPBQBDH@Z 00468e7e f   nafxcw:apphelp.obj
 0001:00067eb8       ?AfxFormatStrings@@YGXAAVCString@@PBDPBQBDH@Z 00468eb8 f   nafxcw:apphelp.obj
 0001:00067fb7       ?AfxFormatString1@@YGXAAVCString@@IPBD@Z 00468fb7 f   nafxcw:apphelp.obj
 0001:00067fce       ??1CStatic@@UAE@XZ         00468fce f   nafxcw:winctrl1.obj
 0001:00068006       ??1CButton@@UAE@XZ         00469006 f   nafxcw:winctrl1.obj
 0001:0006803e       ?OnChildNotify@CButton@@MAEHIIJPAJ@Z 0046903e f   nafxcw:winctrl1.obj
 0001:0006806c       ?GetText@CListBox@@QBEXHAAVCString@@@Z 0046906c f   nafxcw:winctrl1.obj
 0001:000680af       ??1CComboBox@@UAE@XZ       004690af f   nafxcw:winctrl1.obj
 0001:000680e7       ?CompareItem@CComboBox@@UAEHPAUtagCOMPAREITEMSTRUCT@@@Z 004690e7 f   nafxcw:winctrl1.obj
 0001:000680ec       ?DrawItem@CComboBox@@UAEXPAUtagDRAWITEMSTRUCT@@@Z 004690ec f   nafxcw:winctrl1.obj
 0001:000680ec       ?DeleteItem@CComboBox@@UAEXPAUtagDELETEITEMSTRUCT@@@Z 004690ec f   nafxcw:winctrl1.obj
 0001:000680ec       ?MeasureItem@CComboBox@@UAEXPAUtagMEASUREITEMSTRUCT@@@Z 004690ec f   nafxcw:winctrl1.obj
 0001:000680ec       ?DrawItem@CButton@@UAEXPAUtagDRAWITEMSTRUCT@@@Z 004690ec f   nafxcw:winctrl1.obj
 0001:000680ef       ?OnChildNotify@CComboBox@@MAEHIIJPAJ@Z 004690ef f   nafxcw:winctrl1.obj
 0001:00068156       ?Create@CEdit@@QAEHKABUtagRECT@@PAVCWnd@@I@Z 00469156 f   nafxcw:winctrl1.obj
 0001:00068177       ??1CEdit@@UAE@XZ           00469177 f   nafxcw:winctrl1.obj
 0001:000681af       ??0_AFX_CHECKLIST_STATE@@QAE@XZ 004691af f   nafxcw:winctrl3.obj
 0001:00068251       ??_G_AFX_CHECKLIST_STATE@@UAEPAXI@Z 00469251 f i nafxcw:winctrl3.obj
 0001:00068251       ??_E_AFX_CHECKLIST_STATE@@UAEPAXI@Z 00469251 f i nafxcw:winctrl3.obj
 0001:0006826c       ??1_AFX_CHECKLIST_STATE@@UAE@XZ 0046926c f   nafxcw:winctrl3.obj
 0001:00068281       ?SetCheck@CCheckListBox@@QAEXHH@Z 00469281 f   nafxcw:winctrl3.obj
 0001:000682fc       ?GetCheck@CCheckListBox@@QAEHH@Z 004692fc f   nafxcw:winctrl3.obj
 0001:00068321       ?IsEnabled@CCheckListBox@@QAEHH@Z 00469321 f   nafxcw:winctrl3.obj
 0001:00068348       ?CalcMinimumItemHeight@CCheckListBox@@IAEHXZ 00469348 f   nafxcw:winctrl3.obj
 0001:000683e3       ?InvalidateCheck@CCheckListBox@@IAEXH@Z 004693e3 f   nafxcw:winctrl3.obj
 0001:00068435       ?CheckFromPoint@CCheckListBox@@IAEHVCPoint@@AAH@Z 00469435 f   nafxcw:winctrl3.obj
 0001:00068535       ?SetSelectionCheck@CCheckListBox@@IAEXH@Z 00469535 f   nafxcw:winctrl3.obj
 0001:000685ad       ?OnLButtonDown@CCheckListBox@@IAEXIVCPoint@@@Z 004695ad f   nafxcw:winctrl3.obj
 0001:000686aa       ?OnLButtonDblClk@CCheckListBox@@IAEXIVCPoint@@@Z 004696aa f   nafxcw:winctrl3.obj
 0001:000686e4       ?OnKeyDown@CCheckListBox@@IAEXIII@Z 004696e4 f   nafxcw:winctrl3.obj
 0001:00068851       ?OnCreate@CCheckListBox@@IAEHPAUtagCREATESTRUCTA@@@Z 00469851 f   nafxcw:winctrl3.obj
 0001:00068891       ?OnSetFont@CCheckListBox@@IAEJIJ@Z 00469891 f   nafxcw:winctrl3.obj
 0001:000688c8       ?OnLBAddString@CCheckListBox@@IAEJIJ@Z 004698c8 f   nafxcw:winctrl3.obj
 0001:00068930       ?OnLBFindString@CCheckListBox@@IAEJIJ@Z 00469930 f   nafxcw:winctrl3.obj
 0001:000689b1       ?OnLBFindStringExact@CCheckListBox@@IAEJIJ@Z 004699b1 f   nafxcw:winctrl3.obj
 0001:00068a32       ?OnLBGetItemData@CCheckListBox@@IAEJIJ@Z 00469a32 f   nafxcw:winctrl3.obj
 0001:00068a56       ?OnLBGetText@CCheckListBox@@IAEJIJ@Z 00469a56 f   nafxcw:winctrl3.obj
 0001:00068a7f       ?OnLBInsertString@CCheckListBox@@IAEJIJ@Z 00469a7f f   nafxcw:winctrl3.obj
 0001:00068ae7       ?OnLBSelectString@CCheckListBox@@IAEJIJ@Z 00469ae7 f   nafxcw:winctrl3.obj
 0001:00068b77       ?OnLBSetItemData@CCheckListBox@@IAEJIJ@Z 00469b77 f   nafxcw:winctrl3.obj
 0001:00068beb       ?OnLBSetItemHeight@CCheckListBox@@IAEJIJ@Z 00469beb f   nafxcw:winctrl3.obj
 0001:00068c24       ?AfxWingdixTerm@@YAXXZ     00469c24 f   nafxcw:wingdix.obj
 0001:00068c45       ?FillSolidRect@CDC@@QAEXPBUtagRECT@@K@Z 00469c45 f   nafxcw:wingdix.obj
 0001:00068c6f       ?FillSolidRect@CDC@@QAEXHHHHK@Z 00469c6f f   nafxcw:wingdix.obj
 0001:00068cbb       ??0CSharedFile@@QAE@II@Z   00469cbb f   nafxcw:fileshrd.obj
 0001:00068ce5       ??_ECSharedFile@@UAEPAXI@Z 00469ce5 f i nafxcw:fileshrd.obj
 0001:00068ce5       ??_GCSharedFile@@UAEPAXI@Z 00469ce5 f i nafxcw:fileshrd.obj
 0001:00068d01       ??1CSharedFile@@UAE@XZ     00469d01 f   nafxcw:fileshrd.obj
 0001:00068d3f       ?Alloc@CSharedFile@@MAEPAEK@Z 00469d3f f   nafxcw:fileshrd.obj
 0001:00068d61       ?Realloc@CSharedFile@@MAEPAEPAEK@Z 00469d61 f   nafxcw:fileshrd.obj
 0001:00068d99       ?Free@CSharedFile@@MAEXPAE@Z 00469d99 f   nafxcw:fileshrd.obj
 0001:00068db2       ?Detach@CSharedFile@@QAEPAXXZ 00469db2 f   nafxcw:fileshrd.obj
 0001:00068dc1       ?AfxOleCanExitApp@@YGHXZ   00469dc1 f   nafxcw:olelock.obj
 0001:00068dd1       ?AfxOleGetUserCtrl@@YGHXZ  00469dd1 f   nafxcw:olelock.obj
 0001:00068dda       ?GetRuntimeClass@CMemoryException@@UBEPAUCRuntimeClass@@XZ 00469dda f   nafxcw:except.obj
 0001:00068e12       ?GetRuntimeClass@CNotSupportedException@@UBEPAUCRuntimeClass@@XZ 00469e12 f   nafxcw:except.obj
 0001:00068e4a       ?CreateObject@?$CThreadLocal@V_AFX_THREAD_STATE@@@@SGPAVCNoTrackObject@@XZ 00469e4a f i nafxcw:except.obj
 0001:00068e7e       ?GetRuntimeClass@CFile@@UBEPAUCRuntimeClass@@XZ 00469e7e f   nafxcw:filecore.obj
 0001:00068e84       ?GetRuntimeClass@CMemFile@@UBEPAUCRuntimeClass@@XZ 00469e84 f   nafxcw:filemem.obj
 0001:00068e8a       ?GetRuntimeClass@CResourceException@@UBEPAUCRuntimeClass@@XZ 00469e8a f   nafxcw:wingdi.obj
 0001:00068ec2       ?GetRuntimeClass@CUserException@@UBEPAUCRuntimeClass@@XZ 00469ec2 f   nafxcw:wingdi.obj
 0001:00068efa       ?CreateObject@CDC@@SGPAVCObject@@XZ 00469efa f   nafxcw:wingdi.obj
 0001:00068f11       ?GetRuntimeClass@CDC@@UBEPAUCRuntimeClass@@XZ 00469f11 f   nafxcw:wingdi.obj
 0001:00068f17       ?GetRuntimeClass@CClientDC@@UBEPAUCRuntimeClass@@XZ 00469f17 f   nafxcw:wingdi.obj
 0001:00068f1d       ?GetRuntimeClass@CWindowDC@@UBEPAUCRuntimeClass@@XZ 00469f1d f   nafxcw:wingdi.obj
 0001:00068f23       ?GetRuntimeClass@CPaintDC@@UBEPAUCRuntimeClass@@XZ 00469f23 f   nafxcw:wingdi.obj
 0001:00068f29       ?CreateObject@CGdiObject@@SGPAVCObject@@XZ 00469f29 f   nafxcw:wingdi.obj
 0001:00068f43       ?GetRuntimeClass@CGdiObject@@UBEPAUCRuntimeClass@@XZ 00469f43 f   nafxcw:wingdi.obj
 0001:00068f49       ?GetRuntimeClass@CPen@@UBEPAUCRuntimeClass@@XZ 00469f49 f   nafxcw:wingdi.obj
 0001:00068f4f       ?GetRuntimeClass@CBrush@@UBEPAUCRuntimeClass@@XZ 00469f4f f   nafxcw:wingdi.obj
 0001:00068f55       ?GetRuntimeClass@CFont@@UBEPAUCRuntimeClass@@XZ 00469f55 f   nafxcw:wingdi.obj
 0001:00068f5b       ?GetRuntimeClass@CBitmap@@UBEPAUCRuntimeClass@@XZ 00469f5b f   nafxcw:wingdi.obj
 0001:00068f61       ?GetRuntimeClass@CPalette@@UBEPAUCRuntimeClass@@XZ 00469f61 f   nafxcw:wingdi.obj
 0001:00068f67       ?GetRuntimeClass@CRgn@@UBEPAUCRuntimeClass@@XZ 00469f67 f   nafxcw:wingdi.obj
 0001:00068f6d       ?CreateObject@CTempDC@@SGPAVCObject@@XZ 00469f6d f   nafxcw:wingdi.obj
 0001:00068f93       ??_GCTempDC@@UAEPAXI@Z     00469f93 f i nafxcw:wingdi.obj
 0001:00068f93       ??_ECTempDC@@UAEPAXI@Z     00469f93 f i nafxcw:wingdi.obj
 0001:00068fb3       ??1CTempDC@@UAE@XZ         00469fb3 f i nafxcw:wingdi.obj
 0001:00068fb8       ?GetRuntimeClass@CTempDC@@UBEPAUCRuntimeClass@@XZ 00469fb8 f   nafxcw:wingdi.obj
 0001:00068fbe       ?CreateObject@CTempGdiObject@@SGPAVCObject@@XZ 00469fbe f   nafxcw:wingdi.obj
 0001:00068fda       ??_ECTempGdiObject@@UAEPAXI@Z 00469fda f i nafxcw:wingdi.obj
 0001:00068fda       ??_GCTempGdiObject@@UAEPAXI@Z 00469fda f i nafxcw:wingdi.obj
 0001:00068ffa       ??1CTempGdiObject@@UAE@XZ  00469ffa f i nafxcw:wingdi.obj
 0001:00069023       ?GetRuntimeClass@CTempGdiObject@@UBEPAUCRuntimeClass@@XZ 0046a023 f   nafxcw:wingdi.obj
 0001:000690a9       ?GetRuntimeClass@CDialog@@UBEPAUCRuntimeClass@@XZ 0046a0a9 f   nafxcw:dlgcore.obj
 0001:000690af       ?CreateObject@CWnd@@SGPAVCObject@@XZ 0046a0af f   nafxcw:wincore.obj
 0001:000690e1       ?GetRuntimeClass@CWnd@@UBEPAUCRuntimeClass@@XZ 0046a0e1 f   nafxcw:wincore.obj
 0001:000690e7       ?CreateObject@CTempWnd@@SGPAVCObject@@XZ 0046a0e7 f   nafxcw:wincore.obj
 0001:00069127       ??_GCTempWnd@@UAEPAXI@Z    0046a127 f i nafxcw:wincore.obj
 0001:00069127       ??_ECTempWnd@@UAEPAXI@Z    0046a127 f i nafxcw:wincore.obj
 0001:00069147       ??1CTempWnd@@UAE@XZ        0046a147 f i nafxcw:wincore.obj
 0001:0006914c       ?GetRuntimeClass@CTempWnd@@UBEPAUCRuntimeClass@@XZ 0046a14c f   nafxcw:wincore.obj
 0001:00069192       ?CreateObject@?$CProcessLocal@V_AFX_WIN_STATE@@@@SGPAVCNoTrackObject@@XZ 0046a192 f i nafxcw:wincore.obj
 0001:000691c3       ?CreateObject@?$CProcessLocal@V_AFX_CTL3D_STATE@@@@SGPAVCNoTrackObject@@XZ 0046a1c3 f i nafxcw:wincore.obj
 0001:000691d8       ??_E_AFX_CTL3D_STATE@@UAEPAXI@Z 0046a1d8 f i nafxcw:wincore.obj
 0001:000691d8       ??_G_AFX_CTL3D_STATE@@UAEPAXI@Z 0046a1d8 f i nafxcw:wincore.obj
 0001:000691f3       ?GetRuntimeClass@CPtrArray@@UBEPAUCRuntimeClass@@XZ 0046a1f3 f   nafxcw:array_p.obj
 0001:000691f9       ?GetRuntimeClass@CStatic@@UBEPAUCRuntimeClass@@XZ 0046a1f9 f   nafxcw:winctrl1.obj
 0001:000691ff       ?GetRuntimeClass@CButton@@UBEPAUCRuntimeClass@@XZ 0046a1ff f   nafxcw:winctrl1.obj
 0001:00069205       ?GetRuntimeClass@CComboBox@@UBEPAUCRuntimeClass@@XZ 0046a205 f   nafxcw:winctrl1.obj
 0001:0006920b       ?GetRuntimeClass@CEdit@@UBEPAUCRuntimeClass@@XZ 0046a20b f   nafxcw:winctrl1.obj
 0001:00069232       ?CreateObject@?$CProcessLocal@V_AFX_CHECKLIST_STATE@@@@SGPAVCNoTrackObject@@XZ 0046a232 f i nafxcw:winctrl3.obj
 0001:00069263       ?GetRuntimeClass@CFileDialog@@UBEPAUCRuntimeClass@@XZ 0046a263 f   nafxcw:dlgfile.obj
 0001:00069269       ??0_AFX_THREAD_STATE@@QAE@XZ 0046a269 f   nafxcw:afxstate.obj
 0001:00069280       ??_G_AFX_THREAD_STATE@@UAEPAXI@Z 0046a280 f i nafxcw:afxstate.obj
 0001:00069280       ??_E_AFX_THREAD_STATE@@UAEPAXI@Z 0046a280 f i nafxcw:afxstate.obj
 0001:0006929b       ??1_AFX_THREAD_STATE@@UAE@XZ 0046a29b f   nafxcw:afxstate.obj
 0001:0006930f       ?AfxGetThreadState@@YGPAV_AFX_THREAD_STATE@@XZ 0046a30f f   nafxcw:afxstate.obj
 0001:00069340       ??0AFX_MODULE_STATE@@QAE@H@Z 0046a340 f   nafxcw:afxstate.obj
 0001:000693a3       ??_GAFX_MODULE_STATE@@UAEPAXI@Z 0046a3a3 f i nafxcw:afxstate.obj
 0001:000693a3       ??_EAFX_MODULE_STATE@@UAEPAXI@Z 0046a3a3 f i nafxcw:afxstate.obj
 0001:000693be       ??1AFX_MODULE_STATE@@UAE@XZ 0046a3be f   nafxcw:afxstate.obj
 0001:00069433       ??1?$CThreadLocal@V_AFX_THREAD_STATE@@@@QAE@XZ 0046a433 f i nafxcw:afxstate.obj
 0001:00069433       ??1?$CThreadLocal@V_AFX_CTL3D_THREAD@@@@QAE@XZ 0046a433 f i nafxcw:afxstate.obj
 0001:00069433       ??1?$CThreadLocal@VAFX_MODULE_THREAD_STATE@@@@QAE@XZ 0046a433 f i nafxcw:afxstate.obj
 0001:00069438       ??0AFX_MODULE_THREAD_STATE@@QAE@XZ 0046a438 f   nafxcw:afxstate.obj
 0001:00069457       ??_EAFX_MODULE_THREAD_STATE@@UAEPAXI@Z 0046a457 f i nafxcw:afxstate.obj
 0001:00069457       ??_GAFX_MODULE_THREAD_STATE@@UAEPAXI@Z 0046a457 f i nafxcw:afxstate.obj
 0001:00069472       ??1AFX_MODULE_THREAD_STATE@@UAE@XZ 0046a472 f   nafxcw:afxstate.obj
 0001:00069541       ?AfxGetModuleState@@YGPAVAFX_MODULE_STATE@@XZ 0046a541 f   nafxcw:afxstate.obj
 0001:00069567       ?AfxGetModuleThreadState@@YGPAVAFX_MODULE_THREAD_STATE@@XZ 0046a567 f   nafxcw:afxstate.obj
 0001:0006957e       ?Unlock@CTypeLibCache@@QAEXXZ 0046a57e f   nafxcw:afxstate.obj
 0001:000695b3       ?CreateObject@?$CThreadLocal@VAFX_MODULE_THREAD_STATE@@@@SGPAVCNoTrackObject@@XZ 0046a5b3 f i nafxcw:afxstate.obj
 0001:000695c9       ?CreateObject@?$CProcessLocal@V_AFX_BASE_MODULE_STATE@@@@SGPAVCNoTrackObject@@XZ 0046a5c9 f i nafxcw:afxstate.obj
 0001:000695f1       ??_G_AFX_BASE_MODULE_STATE@@UAEPAXI@Z 0046a5f1 f i nafxcw:afxstate.obj
 0001:000695f1       ??_E_AFX_BASE_MODULE_STATE@@UAEPAXI@Z 0046a5f1 f i nafxcw:afxstate.obj
 0001:0006960c       ??1_AFX_BASE_MODULE_STATE@@UAE@XZ 0046a60c f i nafxcw:afxstate.obj
 0001:00069611       ?CreateObject@CStringArray@@SGPAVCObject@@XZ 0046a611 f   nafxcw:array_s.obj
 0001:00069628       ?GetRuntimeClass@CStringArray@@UBEPAUCRuntimeClass@@XZ 0046a628 f   nafxcw:array_s.obj
 0001:0006963e       ?AddHead@CSimpleList@@QAEXPAX@Z 0046a63e f   nafxcw:afxtls.obj
 0001:00069651       ?Remove@CSimpleList@@QAEHPAX@Z 0046a651 f   nafxcw:afxtls.obj
 0001:00069697       ??2CNoTrackObject@@SGPAXI@Z 0046a697 f   nafxcw:afxtls.obj
 0001:000696b5       ??3CNoTrackObject@@SGXPAX@Z 0046a6b5 f   nafxcw:afxtls.obj
 0001:000696c9       ??0CThreadSlotData@@QAE@XZ 0046a6c9 f   nafxcw:afxtls.obj
 0001:0006970b       ??1CThreadSlotData@@QAE@XZ 0046a70b f   nafxcw:afxtls.obj
 0001:00069762       ?AllocSlot@CThreadSlotData@@QAEHXZ 0046a762 f   nafxcw:afxtls.obj
 0001:00069874       ?FreeSlot@CThreadSlotData@@QAEXH@Z 0046a874 f   nafxcw:afxtls.obj
 0001:000698d1       ?SetValue@CThreadSlotData@@QAEXHPAX@Z 0046a8d1 f   nafxcw:afxtls.obj
 0001:000699bb       ??_GCThreadData@@UAEPAXI@Z 0046a9bb f i nafxcw:afxtls.obj
 0001:000699bb       ??_ECThreadData@@UAEPAXI@Z 0046a9bb f i nafxcw:afxtls.obj
 0001:000699d6       ??1CThreadData@@UAE@XZ     0046a9d6 f i nafxcw:afxtls.obj
 0001:000699d7       ?DeleteValues@CThreadSlotData@@QAEXPAUCThreadData@@PAUHINSTANCE__@@@Z 0046a9d7 f   nafxcw:afxtls.obj
 0001:00069a70       ?DeleteValues@CThreadSlotData@@QAEXPAUHINSTANCE__@@H@Z 0046aa70 f   nafxcw:afxtls.obj
 0001:00069ac9       ?GetData@CThreadLocalObject@@QAEPAVCNoTrackObject@@P6GPAV2@XZ@Z 0046aac9 f   nafxcw:afxtls.obj
 0001:00069b40       ??1CThreadLocalObject@@QAE@XZ 0046ab40 f   nafxcw:afxtls.obj
 0001:00069b5e       ?GetData@CProcessLocalObject@@QAEPAVCNoTrackObject@@P6GPAV2@XZ@Z 0046ab5e f   nafxcw:afxtls.obj
 0001:00069bb9       ??1CProcessLocalObject@@QAE@XZ 0046abb9 f   nafxcw:afxtls.obj
 0001:00069bde       ?AfxTermLocalData@@YGXPAUHINSTANCE__@@H@Z 0046abde f   nafxcw:afxtls.obj
 0001:00069bf8       ?AfxTlsRelease@@YGXXZ      0046abf8 f   nafxcw:afxtls.obj
 0001:00069c20       ??0_AFX_WIN_STATE@@QAE@XZ  0046ac20 f   nafxcw:appcore.obj
 0001:00069c29       ??_G_AFX_WIN_STATE@@UAEPAXI@Z 0046ac29 f i nafxcw:appcore.obj
 0001:00069c29       ??_E_AFX_WIN_STATE@@UAEPAXI@Z 0046ac29 f i nafxcw:appcore.obj
 0001:00069c44       ??0CWinApp@@QAE@PBD@Z      0046ac44 f   nafxcw:appcore.obj
 0001:00069d2e       ??_GCWinApp@@UAEPAXI@Z     0046ad2e f i nafxcw:appcore.obj
 0001:00069d2e       ??_ECWinApp@@UAEPAXI@Z     0046ad2e f i nafxcw:appcore.obj
 0001:00069d4a       ?InitApplication@CWinApp@@UAEHXZ 0046ad4a f   nafxcw:appcore.obj
 0001:00069d8a       ?InitInstance@CWinApp@@UAEHXZ 0046ad8a f   nafxcw:appcore.obj
 0001:00069d8e       ??1CWinApp@@UAE@XZ         0046ad8e f   nafxcw:appcore.obj
 0001:00069ec4       ?SaveStdProfileSettings@CWinApp@@IAEXXZ 0046aec4 f   nafxcw:appcore.obj
 0001:00069ef4       ?ExitInstance@CWinApp@@UAEHXZ 0046aef4 f   nafxcw:appcore.obj
 0001:00069f2a       ?GetRuntimeClass@CWinApp@@UBEPAUCRuntimeClass@@XZ 0046af2a f   nafxcw:appcore.obj
 0001:00069f51       ??1?$CProcessLocal@V_AFX_WIN_STATE@@@@QAE@XZ 0046af51 f i nafxcw:appcore.obj
 0001:00069f51       ??1?$CProcessLocal@V_AFX_COLOR_STATE@@@@QAE@XZ 0046af51 f i nafxcw:appcore.obj
 0001:00069f51       ??1?$CProcessLocal@V_AFX_CHECKLIST_STATE@@@@QAE@XZ 0046af51 f i nafxcw:appcore.obj
 0001:00069f51       ??1?$CProcessLocal@V_AFX_CTL3D_STATE@@@@QAE@XZ 0046af51 f i nafxcw:appcore.obj
 0001:00069f51       ??1?$CProcessLocal@V_AFX_BASE_MODULE_STATE@@@@QAE@XZ 0046af51 f i nafxcw:appcore.obj
 0001:00069f56       ?GetRuntimeClass@CProgressCtrl@@UBEPAUCRuntimeClass@@XZ 0046af56 f   nafxcw:winctrl2.obj
 0001:00069f5c       ?GetRuntimeClass@CListCtrl@@UBEPAUCRuntimeClass@@XZ 0046af5c f   nafxcw:winctrl2.obj
 0001:00069f62       ?CreateObject@CImageList@@SGPAVCObject@@XZ 0046af62 f   nafxcw:winctrl2.obj
 0001:00069f79       ?GetRuntimeClass@CImageList@@UBEPAUCRuntimeClass@@XZ 0046af79 f   nafxcw:winctrl2.obj
 0001:00069f7f       ?CreateObject@CTempImageList@@SGPAVCObject@@XZ 0046af7f f   nafxcw:winctrl2.obj
 0001:00069fa5       ??_GCTempImageList@@UAEPAXI@Z 0046afa5 f i nafxcw:winctrl2.obj
 0001:00069fa5       ??_ECTempImageList@@UAEPAXI@Z 0046afa5 f i nafxcw:winctrl2.obj
 0001:00069fc5       ??1CTempImageList@@UAE@XZ  0046afc5 f i nafxcw:winctrl2.obj
 0001:00069fca       ?GetRuntimeClass@CTempImageList@@UBEPAUCRuntimeClass@@XZ 0046afca f   nafxcw:winctrl2.obj
 0001:0006a010       ?GetRuntimeClass@CArchiveException@@UBEPAUCRuntimeClass@@XZ 0046b010 f   nafxcw:arcex.obj
 0001:0006a016       ?GetRuntimeClass@CSharedFile@@UBEPAUCRuntimeClass@@XZ 0046b016 f   nafxcw:fileshrd.obj
 0001:0006a01c       ?_AfxLoadDotBitmap@@YGXXZ  0046b01c f   nafxcw:cmdtarg.obj
 0001:0006a0fc       ?GetRuntimeClass@CFontDialog@@UBEPAUCRuntimeClass@@XZ 0046b0fc f   nafxcw:dlgfnt.obj
 0001:0006a102       ??_GCWinThread@@UAEPAXI@Z  0046b102 f i nafxcw:thrdcore.obj
 0001:0006a102       ??_ECWinThread@@UAEPAXI@Z  0046b102 f i nafxcw:thrdcore.obj
 0001:0006a11e       ??0CWinThread@@QAE@XZ      0046b11e f   nafxcw:thrdcore.obj
 0001:0006a15b       ?CommonConstruct@CWinThread@@QAEXXZ 0046b15b f   nafxcw:thrdcore.obj
 0001:0006a18d       ?GetRuntimeClass@CWinThread@@UBEPAUCRuntimeClass@@XZ 0046b18d f   nafxcw:thrdcore.obj
 0001:0006a193       ?CreateObject@?$CThreadLocal@V_AFX_CTL3D_THREAD@@@@SGPAVCNoTrackObject@@XZ 0046b193 f i nafxcw:thrdcore.obj
 0001:0006a1a8       ??_G_AFX_CTL3D_THREAD@@UAEPAXI@Z 0046b1a8 f i nafxcw:thrdcore.obj
 0001:0006a1a8       ??_E_AFX_CTL3D_THREAD@@UAEPAXI@Z 0046b1a8 f i nafxcw:thrdcore.obj
 0001:0006a1c3       ?CreateObject@CMenu@@SGPAVCObject@@XZ 0046b1c3 f   nafxcw:winmenu.obj
 0001:0006a1dd       ?GetRuntimeClass@CMenu@@UBEPAUCRuntimeClass@@XZ 0046b1dd f   nafxcw:winmenu.obj
 0001:0006a1e3       ?CreateObject@CTempMenu@@SGPAVCObject@@XZ 0046b1e3 f   nafxcw:winmenu.obj
 0001:0006a1ff       ??_GCTempMenu@@UAEPAXI@Z   0046b1ff f i nafxcw:winmenu.obj
 0001:0006a1ff       ??_ECTempMenu@@UAEPAXI@Z   0046b1ff f i nafxcw:winmenu.obj
 0001:0006a21f       ??1CTempMenu@@UAE@XZ       0046b21f f i nafxcw:winmenu.obj
 0001:0006a248       ?GetRuntimeClass@CTempMenu@@UBEPAUCRuntimeClass@@XZ 0046b248 f   nafxcw:winmenu.obj
 0001:0006a28e       ?CreateObject@CDWordArray@@SGPAVCObject@@XZ 0046b28e f   nafxcw:array_d.obj
 0001:0006a2a5       ?GetRuntimeClass@CDWordArray@@UBEPAUCRuntimeClass@@XZ 0046b2a5 f   nafxcw:array_d.obj
 0001:0006a2bb       ?CreateObject@CWordArray@@SGPAVCObject@@XZ 0046b2bb f   nafxcw:array_w.obj
 0001:0006a2d2       ?GetRuntimeClass@CWordArray@@UBEPAUCRuntimeClass@@XZ 0046b2d2 f   nafxcw:array_w.obj
 0001:0006a2e8       ?GetRuntimeClass@CFileException@@UBEPAUCRuntimeClass@@XZ 0046b2e8 f   nafxcw:filex.obj
 0001:0006a2ee       ?GetRuntimeClass@CMapPtrToPtr@@UBEPAUCRuntimeClass@@XZ 0046b2ee f   nafxcw:map_pp.obj
 0001:0006a2f4       ?GetRuntimeClass@CToolTipCtrl@@UBEPAUCRuntimeClass@@XZ 0046b2f4 f   nafxcw:tooltip.obj
 0001:0006a2fa       ?GetRuntimeClass@CColorDialog@@UBEPAUCRuntimeClass@@XZ 0046b2fa f   nafxcw:dlgclr.obj
 0001:0006a321       ?CreateObject@?$CProcessLocal@V_AFX_COLOR_STATE@@@@SGPAVCNoTrackObject@@XZ 0046b321 f i nafxcw:dlgclr.obj
 0001:0006a337       ?AfxWinInit@@YGHPAUHINSTANCE__@@0PADH@Z 0046b337 f   nafxcw:appinit.obj
 0001:0006a39a       ?SetCurrentHandles@CWinApp@@QAEXXZ 0046b39a f   nafxcw:appinit.obj
 0001:0006a4b7       ?AfxGetFileName@@YGIPBDPADI@Z 0046b4b7 f   nafxcw:appinit.obj
 0001:0006a50d       ??1_AFX_CTL3D_STATE@@UAE@XZ 0046b50d f   nafxcw:app3d.obj
 0001:0006a54e       ??1_AFX_CTL3D_THREAD@@UAE@XZ 0046b54e f   nafxcw:app3d.obj
 0001:0006a584       ?AfxGetCtl3dState@@YGPAV_AFX_CTL3D_STATE@@XZ 0046b584 f   nafxcw:app3d.obj
 0001:0006a600       ?AfxEnableWin40Compatibility@@YGXXZ 0046b600 f   nafxcw:auxdata.obj
 0001:0006a630       ?AfxEnableWin31Compatibility@@YGXXZ 0046b630 f   nafxcw:auxdata.obj
 0001:0006a652       ??0AUX_DATA@@QAE@XZ        0046b652 f   nafxcw:auxdata.obj
 0001:0006a6ed       ?_AfxInitDBCS@@YGHXZ       0046b6ed f   nafxcw:afxdbcs.obj
 0001:0006a720       ?AfxCriticalInit@@YGHXZ    0046b720 f   nafxcw:afxcrit.obj
 0001:0006a765       ?AfxCriticalTerm@@YGXXZ    0046b765 f   nafxcw:afxcrit.obj
 0001:0006a7b3       ?AfxLockGlobals@@YGXH@Z    0046b7b3 f   nafxcw:afxcrit.obj
 0001:0006a823       ?AfxUnlockGlobals@@YGXH@Z  0046b823 f   nafxcw:afxcrit.obj
 0001:0006a844       ?GetAppRegistryKey@CWinApp@@QAEPAUHKEY__@@XZ 0046b844 f   nafxcw:appui3.obj
 0001:0006a8d8       ?GetSectionKey@CWinApp@@QAEPAUHKEY__@@PBD@Z 0046b8d8 f   nafxcw:appui3.obj
 0001:0006a91e       ?GetRuntimeClass@CMapStringToPtr@@UBEPAUCRuntimeClass@@XZ 0046b91e f   nafxcw:map_sp.obj
 0001:0006a924       ??1_AFX_WIN_STATE@@UAE@XZ  0046b924 f   nafxcw:appcore.obj
 0001:0006a951       ?AfxPostQuitMessage@@YGXH@Z 0046b951 f   nafxcw:appcore.obj
 0001:0006a974       ??1CWinThread@@UAE@XZ      0046b974 f   nafxcw:thrdcore.obj
 0001:0006a9c3       ??1AUX_DATA@@QAE@XZ        0046b9c3 f   nafxcw:auxdata.obj
 0001:0006a9cd       ?AfxWinTerm@@YGXXZ         0046b9cd f   nafxcw:appterm.obj
 0002:00000000       __imp__RegCloseKey@4       00470000     advapi32:ADVAPI32.dll
 0002:00000004       __imp__RegOpenKeyExA@20    00470004     advapi32:ADVAPI32.dll
 0002:00000008       __imp__RegSetValueExA@24   00470008     advapi32:ADVAPI32.dll
 0002:0000000c       __imp__RegQueryValueA@16   0047000c     advapi32:ADVAPI32.dll
 0002:00000010       __imp__RegCreateKeyExA@36  00470010     advapi32:ADVAPI32.dll
 0002:00000014       \177ADVAPI32_NULL_THUNK_DATA 00470014     advapi32:ADVAPI32.dll
 0002:00000018       __imp__ImageList_Destroy@4 00470018     comctl32:COMCTL32.dll
 0002:0000001c       __imp__InitCommonControls@0 0047001c     comctl32:COMCTL32.dll
 0002:00000020       __imp__ImageList_SetBkColor@8 00470020     comctl32:COMCTL32.dll
 0002:00000024       __imp__ImageList_GetImageCount@4 00470024     comctl32:COMCTL32.dll
 0002:00000028       __imp__ImageList_Read@4    00470028     comctl32:COMCTL32.dll
 0002:0000002c       __imp__ImageList_Duplicate@4 0047002c     comctl32:COMCTL32.dll
 0002:00000030       \177COMCTL32_NULL_THUNK_DATA 00470030     comctl32:COMCTL32.dll
 0002:00000034       __imp__DeleteObject@4      00470034     gdi32:GDI32.dll
 0002:00000038       __imp__CreateDIBitmap@24   00470038     gdi32:GDI32.dll
 0002:0000003c       __imp__GetSystemPaletteEntries@16 0047003c     gdi32:GDI32.dll
 0002:00000040       __imp__CreatePalette@4     00470040     gdi32:GDI32.dll
 0002:00000044       __imp__StretchBlt@44       00470044     gdi32:GDI32.dll
 0002:00000048       __imp__SelectPalette@12    00470048     gdi32:GDI32.dll
 0002:0000004c       __imp__RealizePalette@4    0047004c     gdi32:GDI32.dll
 0002:00000050       __imp__GetDIBits@28        00470050     gdi32:GDI32.dll
 0002:00000054       __imp__GetWindowExtEx@8    00470054     gdi32:GDI32.dll
 0002:00000058       __imp__GetViewportOrgEx@8  00470058     gdi32:GDI32.dll
 0002:0000005c       __imp__GetWindowOrgEx@8    0047005c     gdi32:GDI32.dll
 0002:00000060       __imp__BeginPath@4         00470060     gdi32:GDI32.dll
 0002:00000064       __imp__EndPath@4           00470064     gdi32:GDI32.dll
 0002:00000068       __imp__PathToRegion@4      00470068     gdi32:GDI32.dll
 0002:0000006c       __imp__CreateEllipticRgn@16 0047006c     gdi32:GDI32.dll
 0002:00000070       __imp__CreateRoundRectRgn@24 00470070     gdi32:GDI32.dll
 0002:00000074       __imp__GetTextColor@4      00470074     gdi32:GDI32.dll
 0002:00000078       __imp__GetBkMode@4         00470078     gdi32:GDI32.dll
 0002:0000007c       __imp__GetBkColor@4        0047007c     gdi32:GDI32.dll
 0002:00000080       __imp__GetROP2@4           00470080     gdi32:GDI32.dll
 0002:00000084       __imp__GetStretchBltMode@4 00470084     gdi32:GDI32.dll
 0002:00000088       __imp__GetPolyFillMode@4   00470088     gdi32:GDI32.dll
 0002:0000008c       __imp__CreateCompatibleBitmap@12 0047008c     gdi32:GDI32.dll
 0002:00000090       __imp__CreateDCA@16        00470090     gdi32:GDI32.dll
 0002:00000094       __imp__CreateBitmap@20     00470094     gdi32:GDI32.dll
 0002:00000098       __imp__SelectObject@8      00470098     gdi32:GDI32.dll
 0002:0000009c       __imp__GetObjectA@12       0047009c     gdi32:GDI32.dll
 0002:000000a0       __imp__CreatePen@12        004700a0     gdi32:GDI32.dll
 0002:000000a4       __imp__SelectClipRgn@8     004700a4     gdi32:GDI32.dll
 0002:000000a8       __imp__FillRgn@12          004700a8     gdi32:GDI32.dll
 0002:000000ac       __imp__CreateRectRgn@16    004700ac     gdi32:GDI32.dll
 0002:000000b0       __imp__CombineRgn@16       004700b0     gdi32:GDI32.dll
 0002:000000b4       __imp__CreateSolidBrush@4  004700b4     gdi32:GDI32.dll
 0002:000000b8       __imp__GetStockObject@4    004700b8     gdi32:GDI32.dll
 0002:000000bc       __imp__CreateFontIndirectA@4 004700bc     gdi32:GDI32.dll
 0002:000000c0       __imp__EndPage@4           004700c0     gdi32:GDI32.dll
 0002:000000c4       __imp__EndDoc@4            004700c4     gdi32:GDI32.dll
 0002:000000c8       __imp__DeleteDC@4          004700c8     gdi32:GDI32.dll
 0002:000000cc       __imp__StartDocA@8         004700cc     gdi32:GDI32.dll
 0002:000000d0       __imp__StartPage@4         004700d0     gdi32:GDI32.dll
 0002:000000d4       __imp__BitBlt@36           004700d4     gdi32:GDI32.dll
 0002:000000d8       __imp__CreateCompatibleDC@4 004700d8     gdi32:GDI32.dll
 0002:000000dc       __imp__Ellipse@20          004700dc     gdi32:GDI32.dll
 0002:000000e0       __imp__Rectangle@20        004700e0     gdi32:GDI32.dll
 0002:000000e4       __imp__LPtoDP@12           004700e4     gdi32:GDI32.dll
 0002:000000e8       __imp__DPtoLP@12           004700e8     gdi32:GDI32.dll
 0002:000000ec       __imp__GetCurrentObject@8  004700ec     gdi32:GDI32.dll
 0002:000000f0       __imp__RoundRect@28        004700f0     gdi32:GDI32.dll
 0002:000000f4       __imp__GetTextExtentPoint32A@16 004700f4     gdi32:GDI32.dll
 0002:000000f8       __imp__GetDeviceCaps@8     004700f8     gdi32:GDI32.dll
 0002:000000fc       __imp__SaveDC@4            004700fc     gdi32:GDI32.dll
 0002:00000100       __imp__RestoreDC@8         00470100     gdi32:GDI32.dll
 0002:00000104       __imp__SetBkMode@8         00470104     gdi32:GDI32.dll
 0002:00000108       __imp__SetPolyFillMode@8   00470108     gdi32:GDI32.dll
 0002:0000010c       __imp__SetROP2@8           0047010c     gdi32:GDI32.dll
 0002:00000110       __imp__SetTextColor@8      00470110     gdi32:GDI32.dll
 0002:00000114       __imp__SetMapMode@8        00470114     gdi32:GDI32.dll
 0002:00000118       __imp__SetViewportOrgEx@16 00470118     gdi32:GDI32.dll
 0002:0000011c       __imp__OffsetViewportOrgEx@16 0047011c     gdi32:GDI32.dll
 0002:00000120       __imp__SetViewportExtEx@16 00470120     gdi32:GDI32.dll
 0002:00000124       __imp__ScaleViewportExtEx@24 00470124     gdi32:GDI32.dll
 0002:00000128       __imp__SetWindowOrgEx@16   00470128     gdi32:GDI32.dll
 0002:0000012c       __imp__SetWindowExtEx@16   0047012c     gdi32:GDI32.dll
 0002:00000130       __imp__ScaleWindowExtEx@24 00470130     gdi32:GDI32.dll
 0002:00000134       __imp__GetClipBox@8        00470134     gdi32:GDI32.dll
 0002:00000138       __imp__ExcludeClipRect@20  00470138     gdi32:GDI32.dll
 0002:0000013c       __imp__MoveToEx@16         0047013c     gdi32:GDI32.dll
 0002:00000140       __imp__LineTo@12           00470140     gdi32:GDI32.dll
 0002:00000144       __imp__CreatePolygonRgn@12 00470144     gdi32:GDI32.dll
 0002:00000148       __imp__GetClipRgn@8        00470148     gdi32:GDI32.dll
 0002:0000014c       __imp__SetStretchBltMode@8 0047014c     gdi32:GDI32.dll
 0002:00000150       __imp__CreateRectRgnIndirect@4 00470150     gdi32:GDI32.dll
 0002:00000154       __imp__SetBkColor@8        00470154     gdi32:GDI32.dll
 0002:00000158       __imp__PatBlt@24           00470158     gdi32:GDI32.dll
 0002:0000015c       __imp__GetTextMetricsA@8   0047015c     gdi32:GDI32.dll
 0002:00000160       __imp__Escape@20           00470160     gdi32:GDI32.dll
 0002:00000164       __imp__ExtTextOutA@32      00470164     gdi32:GDI32.dll
 0002:00000168       __imp__TextOutA@20         00470168     gdi32:GDI32.dll
 0002:0000016c       __imp__RectVisible@8       0047016c     gdi32:GDI32.dll
 0002:00000170       __imp__PtVisible@12        00470170     gdi32:GDI32.dll
 0002:00000174       __imp__GetViewportExtEx@8  00470174     gdi32:GDI32.dll
 0002:00000178       __imp__ExtSelectClipRgn@12 00470178     gdi32:GDI32.dll
 0002:0000017c       \177GDI32_NULL_THUNK_DATA  0047017c     gdi32:GDI32.dll
 0002:00000180       __imp__LockFile@20         00470180     kernel32:KERNEL32.dll
 0002:00000184       __imp__FlushFileBuffers@4  00470184     kernel32:KERNEL32.dll
 0002:00000188       __imp__SetFilePointer@16   00470188     kernel32:KERNEL32.dll
 0002:0000018c       __imp__GetCurrentProcess@0 0047018c     kernel32:KERNEL32.dll
 0002:00000190       __imp__DuplicateHandle@28  00470190     kernel32:KERNEL32.dll
 0002:00000194       __imp__lstrcpynA@12        00470194     kernel32:KERNEL32.dll
 0002:00000198       __imp__SetLastError@4      00470198     kernel32:KERNEL32.dll
 0002:0000019c       __imp__FileTimeToLocalFileTime@8 0047019c     kernel32:KERNEL32.dll
 0002:000001a0       __imp__FileTimeToSystemTime@8 004701a0     kernel32:KERNEL32.dll
 0002:000001a4       __imp__LocalFree@4         004701a4     kernel32:KERNEL32.dll
 0002:000001a8       __imp__MultiByteToWideChar@24 004701a8     kernel32:KERNEL32.dll
 0002:000001ac       __imp__InterlockedDecrement@4 004701ac     kernel32:KERNEL32.dll
 0002:000001b0       __imp__WideCharToMultiByte@32 004701b0     kernel32:KERNEL32.dll
 0002:000001b4       __imp__CreateSemaphoreA@16 004701b4     kernel32:KERNEL32.dll
 0002:000001b8       __imp__SetStdHandle@8      004701b8     kernel32:KERNEL32.dll
 0002:000001bc       __imp__IsBadCodePtr@4      004701bc     kernel32:KERNEL32.dll
 0002:000001c0       __imp__IsBadReadPtr@8      004701c0     kernel32:KERNEL32.dll
 0002:000001c4       __imp__CompareStringW@24   004701c4     kernel32:KERNEL32.dll
 0002:000001c8       __imp__CompareStringA@24   004701c8     kernel32:KERNEL32.dll
 0002:000001cc       __imp__SetUnhandledExceptionFilter@4 004701cc     kernel32:KERNEL32.dll
 0002:000001d0       __imp__GetStringTypeW@16   004701d0     kernel32:KERNEL32.dll
 0002:000001d4       __imp__GetStringTypeA@20   004701d4     kernel32:KERNEL32.dll
 0002:000001d8       __imp__IsBadWritePtr@8     004701d8     kernel32:KERNEL32.dll
 0002:000001dc       __imp__VirtualAlloc@16     004701dc     kernel32:KERNEL32.dll
 0002:000001e0       __imp__LCMapStringW@24     004701e0     kernel32:KERNEL32.dll
 0002:000001e4       __imp__LCMapStringA@24     004701e4     kernel32:KERNEL32.dll
 0002:000001e8       __imp__SetEnvironmentVariableA@8 004701e8     kernel32:KERNEL32.dll
 0002:000001ec       __imp__VirtualFree@12      004701ec     kernel32:KERNEL32.dll
 0002:000001f0       __imp__HeapCreate@12       004701f0     kernel32:KERNEL32.dll
 0002:000001f4       __imp__HeapDestroy@4       004701f4     kernel32:KERNEL32.dll
 0002:000001f8       __imp__GetEnvironmentVariableA@12 004701f8     kernel32:KERNEL32.dll
 0002:000001fc       __imp__GetFileType@4       004701fc     kernel32:KERNEL32.dll
 0002:00000200       __imp__GetStdHandle@4      00470200     kernel32:KERNEL32.dll
 0002:00000204       __imp__SetHandleCount@4    00470204     kernel32:KERNEL32.dll
 0002:00000208       __imp__GetEnvironmentStringsW@0 00470208     kernel32:KERNEL32.dll
 0002:0000020c       __imp__GetEnvironmentStrings@0 0047020c     kernel32:KERNEL32.dll
 0002:00000210       __imp__FreeEnvironmentStringsW@4 00470210     kernel32:KERNEL32.dll
 0002:00000214       __imp__FreeEnvironmentStringsA@4 00470214     kernel32:KERNEL32.dll
 0002:00000218       __imp__UnhandledExceptionFilter@4 00470218     kernel32:KERNEL32.dll
 0002:0000021c       __imp__GetACP@0            0047021c     kernel32:KERNEL32.dll
 0002:00000220       __imp__HeapSize@12         00470220     kernel32:KERNEL32.dll
 0002:00000224       __imp__ResumeThread@4      00470224     kernel32:KERNEL32.dll
 0002:00000228       __imp__ReleaseSemaphore@12 00470228     kernel32:KERNEL32.dll
 0002:0000022c       __imp__EnterCriticalSection@4 0047022c     kernel32:KERNEL32.dll
 0002:00000230       __imp__LeaveCriticalSection@4 00470230     kernel32:KERNEL32.dll
 0002:00000234       __imp__GetProfileStringA@20 00470234     kernel32:KERNEL32.dll
 0002:00000238       __imp__WriteFile@20        00470238     kernel32:KERNEL32.dll
 0002:0000023c       __imp__ReadFile@20         0047023c     kernel32:KERNEL32.dll
 0002:00000240       __imp__GetLastError@0      00470240     kernel32:KERNEL32.dll
 0002:00000244       __imp__WaitForMultipleObjects@16 00470244     kernel32:KERNEL32.dll
 0002:00000248       __imp__CreateFileA@28      00470248     kernel32:KERNEL32.dll
 0002:0000024c       __imp__SetEvent@4          0047024c     kernel32:KERNEL32.dll
 0002:00000250       __imp__FindResourceA@12    00470250     kernel32:KERNEL32.dll
 0002:00000254       __imp__LoadResource@8      00470254     kernel32:KERNEL32.dll
 0002:00000258       __imp__LockResource@4      00470258     kernel32:KERNEL32.dll
 0002:0000025c       __imp__GetModuleFileNameA@12 0047025c     kernel32:KERNEL32.dll
 0002:00000260       __imp__GetCurrentThreadId@0 00470260     kernel32:KERNEL32.dll
 0002:00000264       __imp__ExitProcess@4       00470264     kernel32:KERNEL32.dll
 0002:00000268       __imp__GlobalSize@4        00470268     kernel32:KERNEL32.dll
 0002:0000026c       __imp__GlobalFree@4        0047026c     kernel32:KERNEL32.dll
 0002:00000270       __imp__DeleteCriticalSection@4 00470270     kernel32:KERNEL32.dll
 0002:00000274       __imp__InitializeCriticalSection@4 00470274     kernel32:KERNEL32.dll
 0002:00000278       __imp__lstrcatA@8          00470278     kernel32:KERNEL32.dll
 0002:0000027c       __imp__WinExec@8           0047027c     kernel32:KERNEL32.dll
 0002:00000280       __imp__lstrcpyA@8          00470280     kernel32:KERNEL32.dll
 0002:00000284       __imp__FindNextFileA@8     00470284     kernel32:KERNEL32.dll
 0002:00000288       __imp__GlobalReAlloc@12    00470288     kernel32:KERNEL32.dll
 0002:0000028c       __imp__HeapFree@12         0047028c     kernel32:KERNEL32.dll
 0002:00000290       __imp__HeapReAlloc@16      00470290     kernel32:KERNEL32.dll
 0002:00000294       __imp__GetProcessHeap@0    00470294     kernel32:KERNEL32.dll
 0002:00000298       __imp__HeapAlloc@12        00470298     kernel32:KERNEL32.dll
 0002:0000029c       __imp__GetFullPathNameA@16 0047029c     kernel32:KERNEL32.dll
 0002:000002a0       __imp__FreeLibrary@4       004702a0     kernel32:KERNEL32.dll
 0002:000002a4       __imp__LoadLibraryA@4      004702a4     kernel32:KERNEL32.dll
 0002:000002a8       __imp__lstrlenA@4          004702a8     kernel32:KERNEL32.dll
 0002:000002ac       __imp__GetVersionExA@4     004702ac     kernel32:KERNEL32.dll
 0002:000002b0       __imp__WritePrivateProfileStringA@16 004702b0     kernel32:KERNEL32.dll
 0002:000002b4       __imp__CreateThread@24     004702b4     kernel32:KERNEL32.dll
 0002:000002b8       __imp__CreateEventA@16     004702b8     kernel32:KERNEL32.dll
 0002:000002bc       __imp__Sleep@4             004702bc     kernel32:KERNEL32.dll
 0002:000002c0       __imp__GlobalAlloc@8       004702c0     kernel32:KERNEL32.dll
 0002:000002c4       __imp__GlobalLock@4        004702c4     kernel32:KERNEL32.dll
 0002:000002c8       __imp__GlobalUnlock@4      004702c8     kernel32:KERNEL32.dll
 0002:000002cc       __imp__FindFirstFileA@8    004702cc     kernel32:KERNEL32.dll
 0002:000002d0       __imp__FindClose@4         004702d0     kernel32:KERNEL32.dll
 0002:000002d4       __imp__TerminateProcess@8  004702d4     kernel32:KERNEL32.dll
 0002:000002d8       __imp__GetLocalTime@4      004702d8     kernel32:KERNEL32.dll
 0002:000002dc       __imp__GetSystemTime@4     004702dc     kernel32:KERNEL32.dll
 0002:000002e0       __imp__GetTimeZoneInformation@4 004702e0     kernel32:KERNEL32.dll
 0002:000002e4       __imp__RaiseException@16   004702e4     kernel32:KERNEL32.dll
 0002:000002e8       __imp__RtlUnwind@16        004702e8     kernel32:KERNEL32.dll
 0002:000002ec       __imp__GetStartupInfoA@4   004702ec     kernel32:KERNEL32.dll
 0002:000002f0       __imp__GetOEMCP@0          004702f0     kernel32:KERNEL32.dll
 0002:000002f4       __imp__GetCPInfo@8         004702f4     kernel32:KERNEL32.dll
 0002:000002f8       __imp__GetProcessVersion@4 004702f8     kernel32:KERNEL32.dll
 0002:000002fc       __imp__SetErrorMode@4      004702fc     kernel32:KERNEL32.dll
 0002:00000300       __imp__GlobalFlags@4       00470300     kernel32:KERNEL32.dll
 0002:00000304       __imp__GetCurrentThread@0  00470304     kernel32:KERNEL32.dll
 0002:00000308       __imp__GetFileTime@16      00470308     kernel32:KERNEL32.dll
 0002:0000030c       __imp__GetFileSize@8       0047030c     kernel32:KERNEL32.dll
 0002:00000310       __imp__TlsGetValue@4       00470310     kernel32:KERNEL32.dll
 0002:00000314       __imp__LocalReAlloc@12     00470314     kernel32:KERNEL32.dll
 0002:00000318       __imp__TlsSetValue@8       00470318     kernel32:KERNEL32.dll
 0002:0000031c       __imp__TlsFree@4           0047031c     kernel32:KERNEL32.dll
 0002:00000320       __imp__GlobalHandle@4      00470320     kernel32:KERNEL32.dll
 0002:00000324       __imp__GetFileAttributesA@4 00470324     kernel32:KERNEL32.dll
 0002:00000328       __imp__CreateDirectoryA@8  00470328     kernel32:KERNEL32.dll
 0002:0000032c       __imp__GetCurrentDirectoryA@8 0047032c     kernel32:KERNEL32.dll
 0002:00000330       __imp__SetCurrentDirectoryA@4 00470330     kernel32:KERNEL32.dll
 0002:00000334       __imp__GetVolumeInformationA@32 00470334     kernel32:KERNEL32.dll
 0002:00000338       __imp__TlsAlloc@0          00470338     kernel32:KERNEL32.dll
 0002:0000033c       __imp__LocalAlloc@8        0047033c     kernel32:KERNEL32.dll
 0002:00000340       __imp__lstrcmpA@8          00470340     kernel32:KERNEL32.dll
 0002:00000344       __imp__GetVersion@0        00470344     kernel32:KERNEL32.dll
 0002:00000348       __imp__GlobalGetAtomNameA@12 00470348     kernel32:KERNEL32.dll
 0002:0000034c       __imp__GlobalAddAtomA@4    0047034c     kernel32:KERNEL32.dll
 0002:00000350       __imp__GlobalFindAtomA@4   00470350     kernel32:KERNEL32.dll
 0002:00000354       __imp__GlobalDeleteAtom@4  00470354     kernel32:KERNEL32.dll
 0002:00000358       __imp__lstrcmpiA@8         00470358     kernel32:KERNEL32.dll
 0002:0000035c       __imp__SetEndOfFile@4      0047035c     kernel32:KERNEL32.dll
 0002:00000360       __imp__UnlockFile@20       00470360     kernel32:KERNEL32.dll
 0002:00000364       __imp__GetModuleHandleA@4  00470364     kernel32:KERNEL32.dll
 0002:00000368       __imp__GetProcAddress@8    00470368     kernel32:KERNEL32.dll
 0002:0000036c       __imp__MulDiv@12           0047036c     kernel32:KERNEL32.dll
 0002:00000370       __imp__GetCommandLineA@0   00470370     kernel32:KERNEL32.dll
 0002:00000374       __imp__GetTickCount@0      00470374     kernel32:KERNEL32.dll
 0002:00000378       __imp__WaitForSingleObject@8 00470378     kernel32:KERNEL32.dll
 0002:0000037c       __imp__CloseHandle@4       0047037c     kernel32:KERNEL32.dll
 0002:00000380       __imp__InterlockedIncrement@4 00470380     kernel32:KERNEL32.dll
 0002:00000384       \177KERNEL32_NULL_THUNK_DATA 00470384     kernel32:KERNEL32.dll
 0002:00000388       __imp__UnRegisterTypeLib@20 00470388     oleaut32:OLEAUT32.dll
 0002:0000038c       __imp__RegisterTypeLib@12  0047038c     oleaut32:OLEAUT32.dll
 0002:00000390       __imp__LoadTypeLib@8       00470390     oleaut32:OLEAUT32.dll
 0002:00000394       \177OLEAUT32_NULL_THUNK_DATA 00470394     oleaut32:OLEAUT32.dll
 0002:00000398       __imp__ShellExecuteA@24    00470398     shell32:SHELL32.dll
 0002:0000039c       __imp__DragQueryFileA@16   0047039c     shell32:SHELL32.dll
 0002:000003a0       __imp__Shell_NotifyIconA@8 004703a0     shell32:SHELL32.dll
 0002:000003a4       \177SHELL32_NULL_THUNK_DATA 004703a4     shell32:SHELL32.dll
 0002:000003a8       __imp__SetClipboardData@8  004703a8     user32:USER32.dll
 0002:000003ac       __imp__EmptyClipboard@0    004703ac     user32:USER32.dll
 0002:000003b0       __imp__GetSystemMetrics@4  004703b0     user32:USER32.dll
 0002:000003b4       __imp__GetCursorPos@4      004703b4     user32:USER32.dll
 0002:000003b8       __imp__MessageBoxA@16      004703b8     user32:USER32.dll
 0002:000003bc       __imp__SetWindowPos@28     004703bc     user32:USER32.dll
 0002:000003c0       __imp__SendMessageA@16     004703c0     user32:USER32.dll
 0002:000003c4       __imp__DestroyCursor@4     004703c4     user32:USER32.dll
 0002:000003c8       __imp__SetParent@8         004703c8     user32:USER32.dll
 0002:000003cc       __imp__IsWindow@4          004703cc     user32:USER32.dll
 0002:000003d0       __imp__PostMessageA@16     004703d0     user32:USER32.dll
 0002:000003d4       __imp__GetTopWindow@4      004703d4     user32:USER32.dll
 0002:000003d8       __imp__OpenClipboard@4     004703d8     user32:USER32.dll
 0002:000003dc       __imp__GetFocus@0          004703dc     user32:USER32.dll
 0002:000003e0       __imp__GetClientRect@8     004703e0     user32:USER32.dll
 0002:000003e4       __imp__InvalidateRect@12   004703e4     user32:USER32.dll
 0002:000003e8       __imp__ValidateRect@8      004703e8     user32:USER32.dll
 0002:000003ec       __imp__UpdateWindow@4      004703ec     user32:USER32.dll
 0002:000003f0       __imp__GetClipboardData@4  004703f0     user32:USER32.dll
 0002:000003f4       __imp__CloseClipboard@0    004703f4     user32:USER32.dll
 0002:000003f8       __imp__EqualRect@8         004703f8     user32:USER32.dll
 0002:000003fc       __imp__GetWindowRect@8     004703fc     user32:USER32.dll
 0002:00000400       __imp__SetForegroundWindow@4 00470400     user32:USER32.dll
 0002:00000404       __imp__DestroyMenu@4       00470404     user32:USER32.dll
 0002:00000408       __imp__TrackPopupMenu@28   00470408     user32:USER32.dll
 0002:0000040c       __imp__IsChild@8           0047040c     user32:USER32.dll
 0002:00000410       __imp__ReleaseDC@8         00470410     user32:USER32.dll
 0002:00000414       __imp__wsprintfA           00470414     user32:USER32.dll
 0002:00000418       __imp__GetParent@4         00470418     user32:USER32.dll
 0002:0000041c       __imp__IsRectEmpty@4       0047041c     user32:USER32.dll
 0002:00000420       __imp__FillRect@12         00470420     user32:USER32.dll
 0002:00000424       __imp__GetDC@4             00470424     user32:USER32.dll
 0002:00000428       __imp__SetCursor@4         00470428     user32:USER32.dll
 0002:0000042c       __imp__LoadCursorA@8       0047042c     user32:USER32.dll
 0002:00000430       __imp__SetCursorPos@8      00470430     user32:USER32.dll
 0002:00000434       __imp__SetActiveWindow@4   00470434     user32:USER32.dll
 0002:00000438       __imp__GetSysColor@4       00470438     user32:USER32.dll
 0002:0000043c       __imp__SetWindowLongA@12   0047043c     user32:USER32.dll
 0002:00000440       __imp__GetWindowLongA@8    00470440     user32:USER32.dll
 0002:00000444       __imp__RedrawWindow@16     00470444     user32:USER32.dll
 0002:00000448       __imp__EnableWindow@8      00470448     user32:USER32.dll
 0002:0000044c       __imp__IsWindowVisible@4   0047044c     user32:USER32.dll
 0002:00000450       __imp__OffsetRect@12       00470450     user32:USER32.dll
 0002:00000454       __imp__PtInRect@12         00470454     user32:USER32.dll
 0002:00000458       __imp__DestroyIcon@4       00470458     user32:USER32.dll
 0002:0000045c       __imp__IntersectRect@12    0047045c     user32:USER32.dll
 0002:00000460       __imp__SetRect@20          00470460     user32:USER32.dll
 0002:00000464       __imp__InflateRect@12      00470464     user32:USER32.dll
 0002:00000468       __imp__SetScrollPos@16     00470468     user32:USER32.dll
 0002:0000046c       __imp__SetScrollRange@20   0047046c     user32:USER32.dll
 0002:00000470       __imp__GetScrollRange@16   00470470     user32:USER32.dll
 0002:00000474       __imp__SetCapture@4        00470474     user32:USER32.dll
 0002:00000478       __imp__GetCapture@0        00470478     user32:USER32.dll
 0002:0000047c       __imp__ReleaseCapture@0    0047047c     user32:USER32.dll
 0002:00000480       __imp__SetTimer@16         00470480     user32:USER32.dll
 0002:00000484       __imp__KillTimer@8         00470484     user32:USER32.dll
 0002:00000488       __imp__WinHelpA@16         00470488     user32:USER32.dll
 0002:0000048c       __imp__SystemParametersInfoA@16 0047048c     user32:USER32.dll
 0002:00000490       __imp__TranslateMessage@4  00470490     user32:USER32.dll
 0002:00000494       __imp__LoadIconA@8         00470494     user32:USER32.dll
 0002:00000498       __imp__DrawFrameControl@16 00470498     user32:USER32.dll
 0002:0000049c       __imp__DrawEdge@16         0047049c     user32:USER32.dll
 0002:000004a0       __imp__DrawFocusRect@8     004704a0     user32:USER32.dll
 0002:000004a4       __imp__WindowFromPoint@8   004704a4     user32:USER32.dll
 0002:000004a8       __imp__GetMessageA@16      004704a8     user32:USER32.dll
 0002:000004ac       __imp__DispatchMessageA@4  004704ac     user32:USER32.dll
 0002:000004b0       __imp__SetRectEmpty@4      004704b0     user32:USER32.dll
 0002:000004b4       __imp__RegisterClipboardFormatA@4 004704b4     user32:USER32.dll
 0002:000004b8       __imp__CreateIconFromResourceEx@28 004704b8     user32:USER32.dll
 0002:000004bc       __imp__CreateIconFromResource@16 004704bc     user32:USER32.dll
 0002:000004c0       __imp__DrawIconEx@36       004704c0     user32:USER32.dll
 0002:000004c4       __imp__CreatePopupMenu@0   004704c4     user32:USER32.dll
 0002:000004c8       __imp__AppendMenuA@16      004704c8     user32:USER32.dll
 0002:000004cc       __imp__ModifyMenuA@20      004704cc     user32:USER32.dll
 0002:000004d0       __imp__CreateMenu@0        004704d0     user32:USER32.dll
 0002:000004d4       __imp__CreateAcceleratorTableA@8 004704d4     user32:USER32.dll
 0002:000004d8       __imp__GetDlgCtrlID@4      004704d8     user32:USER32.dll
 0002:000004dc       __imp__GetSubMenu@8        004704dc     user32:USER32.dll
 0002:000004e0       __imp__EnableMenuItem@12   004704e0     user32:USER32.dll
 0002:000004e4       __imp__ClientToScreen@8    004704e4     user32:USER32.dll
 0002:000004e8       __imp__EnumDisplaySettingsA@12 004704e8     user32:USER32.dll
 0002:000004ec       __imp__LoadImageA@24       004704ec     user32:USER32.dll
 0002:000004f0       __imp__ShowWindow@8        004704f0     user32:USER32.dll
 0002:000004f4       __imp__IsWindowEnabled@4   004704f4     user32:USER32.dll
 0002:000004f8       __imp__TranslateAcceleratorA@12 004704f8     user32:USER32.dll
 0002:000004fc       __imp__GetKeyState@4       004704fc     user32:USER32.dll
 0002:00000500       __imp__CopyAcceleratorTableA@12 00470500     user32:USER32.dll
 0002:00000504       __imp__PostQuitMessage@4   00470504     user32:USER32.dll
 0002:00000508       __imp__IsZoomed@4          00470508     user32:USER32.dll
 0002:0000050c       __imp__GetSystemMenu@8     0047050c     user32:USER32.dll
 0002:00000510       __imp__GetWindowTextA@12   00470510     user32:USER32.dll
 0002:00000514       __imp__GetWindowTextLengthA@4 00470514     user32:USER32.dll
 0002:00000518       __imp__CharUpperA@4        00470518     user32:USER32.dll
 0002:0000051c       __imp__GetWindowDC@4       0047051c     user32:USER32.dll
 0002:00000520       __imp__BeginPaint@8        00470520     user32:USER32.dll
 0002:00000524       __imp__EndPaint@8          00470524     user32:USER32.dll
 0002:00000528       __imp__TabbedTextOutA@32   00470528     user32:USER32.dll
 0002:0000052c       __imp__DrawTextA@20        0047052c     user32:USER32.dll
 0002:00000530       __imp__GrayStringA@36      00470530     user32:USER32.dll
 0002:00000534       __imp__GetDlgItem@8        00470534     user32:USER32.dll
 0002:00000538       __imp__DestroyWindow@4     00470538     user32:USER32.dll
 0002:0000053c       __imp__CreateDialogIndirectParamA@20 0047053c     user32:USER32.dll
 0002:00000540       __imp__EndDialog@8         00470540     user32:USER32.dll
 0002:00000544       __imp__GetNextDlgTabItem@12 00470544     user32:USER32.dll
 0002:00000548       __imp__GetWindowPlacement@8 00470548     user32:USER32.dll
 0002:0000054c       __imp__RegisterWindowMessageA@4 0047054c     user32:USER32.dll
 0002:00000550       __imp__GetForegroundWindow@0 00470550     user32:USER32.dll
 0002:00000554       __imp__GetLastActivePopup@4 00470554     user32:USER32.dll
 0002:00000558       __imp__GetMessageTime@0    00470558     user32:USER32.dll
 0002:0000055c       __imp__RemovePropA@8       0047055c     user32:USER32.dll
 0002:00000560       __imp__CallWindowProcA@20  00470560     user32:USER32.dll
 0002:00000564       __imp__GetPropA@8          00470564     user32:USER32.dll
 0002:00000568       __imp__UnhookWindowsHookEx@4 00470568     user32:USER32.dll
 0002:0000056c       __imp__SetPropA@12         0047056c     user32:USER32.dll
 0002:00000570       __imp__GetClassLongA@8     00470570     user32:USER32.dll
 0002:00000574       __imp__CallNextHookEx@16   00470574     user32:USER32.dll
 0002:00000578       __imp__SetWindowsHookExA@16 00470578     user32:USER32.dll
 0002:0000057c       __imp__CreateWindowExA@48  0047057c     user32:USER32.dll
 0002:00000580       __imp__GetMenuItemID@8     00470580     user32:USER32.dll
 0002:00000584       __imp__GetMenuItemCount@4  00470584     user32:USER32.dll
 0002:00000588       __imp__RegisterClassA@4    00470588     user32:USER32.dll
 0002:0000058c       __imp__GetScrollPos@8      0047058c     user32:USER32.dll
 0002:00000590       __imp__UnregisterClassA@8  00470590     user32:USER32.dll
 0002:00000594       __imp__AdjustWindowRectEx@16 00470594     user32:USER32.dll
 0002:00000598       __imp__MapWindowPoints@16  00470598     user32:USER32.dll
 0002:0000059c       __imp__SendDlgItemMessageA@20 0047059c     user32:USER32.dll
 0002:000005a0       __imp__ScrollWindowEx@32   004705a0     user32:USER32.dll
 0002:000005a4       __imp__IsDialogMessageA@8  004705a4     user32:USER32.dll
 0002:000005a8       __imp__SetWindowTextA@8    004705a8     user32:USER32.dll
 0002:000005ac       __imp__MoveWindow@24       004705ac     user32:USER32.dll
 0002:000005b0       __imp__CheckMenuItem@12    004705b0     user32:USER32.dll
 0002:000005b4       __imp__SetMenuItemBitmaps@20 004705b4     user32:USER32.dll
 0002:000005b8       __imp__GetMenuState@12     004705b8     user32:USER32.dll
 0002:000005bc       __imp__GetMenuCheckMarkDimensions@0 004705bc     user32:USER32.dll
 0002:000005c0       __imp__GetClassNameA@12    004705c0     user32:USER32.dll
 0002:000005c4       __imp__GetDesktopWindow@0  004705c4     user32:USER32.dll
 0002:000005c8       __imp__LoadStringA@16      004705c8     user32:USER32.dll
 0002:000005cc       __imp__GetSysColorBrush@4  004705cc     user32:USER32.dll
 0002:000005d0       __imp__DeleteMenu@12       004705d0     user32:USER32.dll
 0002:000005d4       __imp__GetClassInfoA@12    004705d4     user32:USER32.dll
 0002:000005d8       __imp__DefWindowProcA@16   004705d8     user32:USER32.dll
 0002:000005dc       __imp__GetMenu@4           004705dc     user32:USER32.dll
 0002:000005e0       __imp__SetMenu@8           004705e0     user32:USER32.dll
 0002:000005e4       __imp__PeekMessageA@20     004705e4     user32:USER32.dll
 0002:000005e8       __imp__IsIconic@4          004705e8     user32:USER32.dll
 0002:000005ec       __imp__SetFocus@4          004705ec     user32:USER32.dll
 0002:000005f0       __imp__GetActiveWindow@0   004705f0     user32:USER32.dll
 0002:000005f4       __imp__GetWindow@8         004705f4     user32:USER32.dll
 0002:000005f8       __imp__DestroyAcceleratorTable@4 004705f8     user32:USER32.dll
 0002:000005fc       __imp__SetWindowRgn@12     004705fc     user32:USER32.dll
 0002:00000600       __imp__GetMessagePos@0     00470600     user32:USER32.dll
 0002:00000604       __imp__ScreenToClient@8    00470604     user32:USER32.dll
 0002:00000608       __imp__ChildWindowFromPointEx@16 00470608     user32:USER32.dll
 0002:0000060c       __imp__CopyRect@8          0047060c     user32:USER32.dll
 0002:00000610       __imp__LoadBitmapA@8       00470610     user32:USER32.dll
 0002:00000614       \177USER32_NULL_THUNK_DATA 00470614     user32:USER32.dll
 0002:00000618       __imp__midiStreamRestart@4 00470618     winmm:WINMM.dll
 0002:0000061c       __imp__midiStreamClose@4   0047061c     winmm:WINMM.dll
 0002:00000620       __imp__midiOutReset@4      00470620     winmm:WINMM.dll
 0002:00000624       __imp__midiStreamStop@4    00470624     winmm:WINMM.dll
 0002:00000628       __imp__midiStreamOut@12    00470628     winmm:WINMM.dll
 0002:0000062c       __imp__midiOutPrepareHeader@12 0047062c     winmm:WINMM.dll
 0002:00000630       __imp__midiStreamProperty@12 00470630     winmm:WINMM.dll
 0002:00000634       __imp__midiStreamOpen@24   00470634     winmm:WINMM.dll
 0002:00000638       __imp__midiOutUnprepareHeader@12 00470638     winmm:WINMM.dll
 0002:0000063c       __imp__waveOutOpen@24      0047063c     winmm:WINMM.dll
 0002:00000640       __imp__waveOutGetNumDevs@0 00470640     winmm:WINMM.dll
 0002:00000644       __imp__waveOutClose@4      00470644     winmm:WINMM.dll
 0002:00000648       __imp__waveOutReset@4      00470648     winmm:WINMM.dll
 0002:0000064c       __imp__waveOutPause@4      0047064c     winmm:WINMM.dll
 0002:00000650       __imp__waveOutWrite@12     00470650     winmm:WINMM.dll
 0002:00000654       __imp__waveOutPrepareHeader@12 00470654     winmm:WINMM.dll
 0002:00000658       __imp__waveOutUnprepareHeader@12 00470658     winmm:WINMM.dll
 0002:0000065c       \177WINMM_NULL_THUNK_DATA  0047065c     winmm:WINMM.dll
 0002:00000660       __imp__ClosePrinter@4      00470660     winspool:WINSPOOL.DRV
 0002:00000664       __imp__DocumentPropertiesA@24 00470664     winspool:WINSPOOL.DRV
 0002:00000668       __imp__OpenPrinterA@12     00470668     winspool:WINSPOOL.DRV
 0002:0000066c       \177WINSPOOL_NULL_THUNK_DATA 0047066c     winspool:WINSPOOL.DRV
 0002:00000670       __imp__LdapUTF8ToUnicode   00470670     Wldap32:WLDAP32.dll
 0002:00000674       \177WLDAP32_NULL_THUNK_DATA 00470674     Wldap32:WLDAP32.dll
 0002:00000678       __imp__recvfrom@24         00470678     Ws2_32:WS2_32.dll
 0002:0000067c       __imp__ioctlsocket@12      0047067c     Ws2_32:WS2_32.dll
 0002:00000680       __imp__getpeername@12      00470680     Ws2_32:WS2_32.dll
 0002:00000684       __imp__accept@12           00470684     Ws2_32:WS2_32.dll
 0002:00000688       __imp__recv@16             00470688     Ws2_32:WS2_32.dll
 0002:0000068c       __imp__WSAAsyncSelect@16   0047068c     Ws2_32:WS2_32.dll
 0002:00000690       __imp__closesocket@4       00470690     Ws2_32:WS2_32.dll
 0002:00000694       __imp__WSACleanup@0        00470694     Ws2_32:WS2_32.dll
 0002:00000698       __imp__inet_ntoa@4         00470698     Ws2_32:WS2_32.dll
 0002:0000069c       \177WS2_32_NULL_THUNK_DATA 0047069c     Ws2_32:WS2_32.dll
 0002:000006a0       __imp__GetFileTitleA@12    004706a0     comdlg32:comdlg32.dll
 0002:000006a4       __imp__GetSaveFileNameA@4  004706a4     comdlg32:comdlg32.dll
 0002:000006a8       __imp__GetOpenFileNameA@4  004706a8     comdlg32:comdlg32.dll
 0002:000006ac       __imp__ChooseFontA@4       004706ac     comdlg32:comdlg32.dll
 0002:000006b0       __imp__ChooseColorA@4      004706b0     comdlg32:comdlg32.dll
 0002:000006b4       \177comdlg32_NULL_THUNK_DATA 004706b4     comdlg32:comdlg32.dll
 0002:000006b8       __imp__ReleaseStgMedium@4  004706b8     ole32:ole32.dll
 0002:000006bc       __imp__RevokeDragDrop@4    004706bc     ole32:ole32.dll
 0002:000006c0       __imp__OleInitialize@4     004706c0     ole32:ole32.dll
 0002:000006c4       __imp__CoCreateInstance@20 004706c4     ole32:ole32.dll
 0002:000006c8       __imp__OleUninitialize@0   004706c8     ole32:ole32.dll
 0002:000006cc       __imp__CLSIDFromString@8   004706cc     ole32:ole32.dll
 0002:000006d0       __imp__RegisterDragDrop@8  004706d0     ole32:ole32.dll
 0002:000006d4       \177ole32_NULL_THUNK_DATA  004706d4     ole32:ole32.dll
 0002:000006e0       ___eapp_info               004706e0     n.obj
 0002:00002908       __real@8@c012a081a00000000000 00472908     krnln_static:Libfn.obj
 0002:00002910       __real@8@4014b492040000000000 00472910     krnln_static:Libfn.obj
 0002:00002918       __real@8@00000000000000000000 00472918     krnln_static:Libfn.obj
 0002:00002920       __real@8@3fff8000000000000000 00472920     krnln_static:Libfn.obj
 0002:00002928       __real@8@3ffe8000000000000000 00472928     krnln_static:Libfn.obj
 0002:00002930       __real@8@4002a000000000000000 00472930     krnln_static:Libfn.obj
 0002:00002938       ??_7CFreqMem@@6B@          00472938     krnln_static:Libfn.obj
 0002:0000293c       ??_7CMyDWordArray@@6B@     0047293c     krnln_static:Libfn.obj
 0002:00002940       __real@8@4005c800000000000000 00472940     krnln_static:Libfn.obj
 0002:00002948       __real@8@400fa8c0000000000000 00472948     krnln_static:Libfn.obj
 0002:00002950       __real@8@3fedc22e450672894800 00472950     krnln_static:Libfn.obj
 0002:00002958       ??_7CJBPic@@6B@            00472958     krnln_static:Libfn.obj
 0002:00002960       ??_7CCryptFile@@6B@        00472960     krnln_static:Libfn.obj
 0002:000029b8       ?messageMap@CSpin@@1UAFX_MSGMAP@@B 004729b8     krnln_static:krnl2.obj
 0002:000029c0       ?_messageEntries@CSpin@@0QBUAFX_MSGMAP_ENTRY@@B 004729c0     krnln_static:krnl2.obj
 0002:00002a08       ?messageMap@CUEdit@@1UAFX_MSGMAP@@B 00472a08     krnln_static:krnl2.obj
 0002:00002a10       ?_messageEntries@CUEdit@@0QBUAFX_MSGMAP_ENTRY@@B 00472a10     krnln_static:krnl2.obj
 0002:00002bc0       ?messageMap@CUTab@@1UAFX_MSGMAP@@B 00472bc0     krnln_static:krnl2.obj
 0002:00002bc8       ?_messageEntries@CUTab@@0QBUAFX_MSGMAP_ENTRY@@B 00472bc8     krnln_static:krnl2.obj
 0002:00002ce8       ?messageMap@CULabel@@1UAFX_MSGMAP@@B 00472ce8     krnln_static:krnl2.obj
 0002:00002cf0       ?_messageEntries@CULabel@@0QBUAFX_MSGMAP_ENTRY@@B 00472cf0     krnln_static:krnl2.obj
 0002:00002d80       ?messageMap@CUPicBox@@1UAFX_MSGMAP@@B 00472d80     krnln_static:krnl2.obj
 0002:00002d88       ?_messageEntries@CUPicBox@@0QBUAFX_MSGMAP_ENTRY@@B 00472d88     krnln_static:krnl2.obj
 0002:00002e78       ?messageMap@CUShapeBox@@1UAFX_MSGMAP@@B 00472e78     krnln_static:krnl2.obj
 0002:00002e80       ?_messageEntries@CUShapeBox@@0QBUAFX_MSGMAP_ENTRY@@B 00472e80     krnln_static:krnl2.obj
 0002:00002f40       ?messageMap@CUGroupBox@@1UAFX_MSGMAP@@B 00472f40     krnln_static:krnl2.obj
 0002:00002f48       ?_messageEntries@CUGroupBox@@0QBUAFX_MSGMAP_ENTRY@@B 00472f48     krnln_static:krnl2.obj
 0002:00003020       ?messageMap@CUButton@@1UAFX_MSGMAP@@B 00473020     krnln_static:krnl2.obj
 0002:00003028       ?_messageEntries@CUButton@@0QBUAFX_MSGMAP_ENTRY@@B 00473028     krnln_static:krnl2.obj
 0002:00003088       ?messageMap@CUHScrollBar@@1UAFX_MSGMAP@@B 00473088     krnln_static:krnl2.obj
 0002:00003090       ?_messageEntries@CUHScrollBar@@0QBUAFX_MSGMAP_ENTRY@@B 00473090     krnln_static:krnl2.obj
 0002:00003108       ?messageMap@CUVScrollBar@@1UAFX_MSGMAP@@B 00473108     krnln_static:krnl2.obj
 0002:00003110       ?_messageEntries@CUVScrollBar@@0QBUAFX_MSGMAP_ENTRY@@B 00473110     krnln_static:krnl2.obj
 0002:00003188       ?messageMap@CUProcessBar@@1UAFX_MSGMAP@@B 00473188     krnln_static:krnl2.obj
 0002:00003190       ?_messageEntries@CUProcessBar@@0QBUAFX_MSGMAP_ENTRY@@B 00473190     krnln_static:krnl2.obj
 0002:000031a8       ?messageMap@CUSliderBar@@1UAFX_MSGMAP@@B 004731a8     krnln_static:krnl2.obj
 0002:000031b0       ?_messageEntries@CUSliderBar@@0QBUAFX_MSGMAP_ENTRY@@B 004731b0     krnln_static:krnl2.obj
 0002:00003228       ?messageMap@CUAnimate@@1UAFX_MSGMAP@@B 00473228     krnln_static:krnl2.obj
 0002:00003230       ?_messageEntries@CUAnimate@@0QBUAFX_MSGMAP_ENTRY@@B 00473230     krnln_static:krnl2.obj
 0002:00003260       ?messageMap@CUDateTimePicker@@1UAFX_MSGMAP@@B 00473260     krnln_static:krnl2.obj
 0002:00003268       ?_messageEntries@CUDateTimePicker@@0QBUAFX_MSGMAP_ENTRY@@B 00473268     krnln_static:krnl2.obj
 0002:00003328       ?messageMap@CUMonthCalCtrl@@1UAFX_MSGMAP@@B 00473328     krnln_static:krnl2.obj
 0002:00003330       ?_messageEntries@CUMonthCalCtrl@@0QBUAFX_MSGMAP_ENTRY@@B 00473330     krnln_static:krnl2.obj
 0002:00003360       ?messageMap@CUDrvBox@@1UAFX_MSGMAP@@B 00473360     krnln_static:krnl2.obj
 0002:00003368       ?_messageEntries@CUDrvBox@@0QBUAFX_MSGMAP_ENTRY@@B 00473368     krnln_static:krnl2.obj
 0002:000033e0       ?messageMap@CUDirTree@@1UAFX_MSGMAP@@B 004733e0     krnln_static:krnl2.obj
 0002:000033e8       ?_messageEntries@CUDirTree@@0QBUAFX_MSGMAP_ENTRY@@B 004733e8     krnln_static:krnl2.obj
 0002:00003478       ?messageMap@CUFileBox@@1UAFX_MSGMAP@@B 00473478     krnln_static:krnl2.obj
 0002:00003480       ?_messageEntries@CUFileBox@@0QBUAFX_MSGMAP_ENTRY@@B 00473480     krnln_static:krnl2.obj
 0002:00003510       ?messageMap@CUColorPicker@@1UAFX_MSGMAP@@B 00473510     krnln_static:krnl2.obj
 0002:00003518       ?_messageEntries@CUColorPicker@@0QBUAFX_MSGMAP_ENTRY@@B 00473518     krnln_static:krnl2.obj
 0002:00003578       ?messageMap@CUHyperLinker@@1UAFX_MSGMAP@@B 00473578     krnln_static:krnl2.obj
 0002:00003580       ?_messageEntries@CUHyperLinker@@0QBUAFX_MSGMAP_ENTRY@@B 00473580     krnln_static:krnl2.obj
 0002:000035e0       ?messageMap@CUSpin@@1UAFX_MSGMAP@@B 004735e0     krnln_static:krnl2.obj
 0002:000035e8       ?_messageEntries@CUSpin@@0QBUAFX_MSGMAP_ENTRY@@B 004735e8     krnln_static:krnl2.obj
 0002:00003618       ?messageMap@CUTimer@@1UAFX_MSGMAP@@B 00473618     krnln_static:krnl2.obj
 0002:00003620       ?_messageEntries@CUTimer@@0QBUAFX_MSGMAP_ENTRY@@B 00473620     krnln_static:krnl2.obj
 0002:00003698       ?messageMap@CUCommonDlg@@1UAFX_MSGMAP@@B 00473698     krnln_static:krnl2.obj
 0002:000036a0       ?_messageEntries@CUCommonDlg@@0QBUAFX_MSGMAP_ENTRY@@B 004736a0     krnln_static:krnl2.obj
 0002:000036d0       ?messageMap@CUCheckBox@@1UAFX_MSGMAP@@B 004736d0     krnln_static:krnl2.obj
 0002:000036d8       ?_messageEntries@CUCheckBox@@0QBUAFX_MSGMAP_ENTRY@@B 004736d8     krnln_static:krnl2.obj
 0002:00003798       ?messageMap@CURadio@@1UAFX_MSGMAP@@B 00473798     krnln_static:krnl2.obj
 0002:000037a0       ?_messageEntries@CURadio@@0QBUAFX_MSGMAP_ENTRY@@B 004737a0     krnln_static:krnl2.obj
 0002:00003818       ?messageMap@CUComboBox@@1UAFX_MSGMAP@@B 00473818     krnln_static:krnl2.obj
 0002:00003820       ?_messageEntries@CUComboBox@@0QBUAFX_MSGMAP_ENTRY@@B 00473820     krnln_static:krnl2.obj
 0002:00003970       ?messageMap@CUListBox@@1UAFX_MSGMAP@@B 00473970     krnln_static:krnl2.obj
 0002:00003978       ?_messageEntries@CUListBox@@0QBUAFX_MSGMAP_ENTRY@@B 00473978     krnln_static:krnl2.obj
 0002:00003a50       ?messageMap@CUChkListBox@@1UAFX_MSGMAP@@B 00473a50     krnln_static:krnl2.obj
 0002:00003a58       ?_messageEntries@CUChkListBox@@0QBUAFX_MSGMAP_ENTRY@@B 00473a58     krnln_static:krnl2.obj
 0002:00003b18       ?messageMap@CUDrawPanel@@1UAFX_MSGMAP@@B 00473b18     krnln_static:krnl2.obj
 0002:00003b20       ?_messageEntries@CUDrawPanel@@0QBUAFX_MSGMAP_ENTRY@@B 00473b20     krnln_static:krnl2.obj
 0002:00003c40       ?messageMap@CUPrinter@@1UAFX_MSGMAP@@B 00473c40     krnln_static:krnl2.obj
 0002:00003c48       ?_messageEntries@CUPrinter@@0QBUAFX_MSGMAP_ENTRY@@B 00473c48     krnln_static:krnl2.obj
 0002:00003ca8       ?messageMap@CUUDPSock@@1UAFX_MSGMAP@@B 00473ca8     krnln_static:krnl2.obj
 0002:00003cb0       ?_messageEntries@CUUDPSock@@0QBUAFX_MSGMAP_ENTRY@@B 00473cb0     krnln_static:krnl2.obj
 0002:00003ce0       ?messageMap@CUClientSock@@1UAFX_MSGMAP@@B 00473ce0     krnln_static:krnl2.obj
 0002:00003ce8       ?_messageEntries@CUClientSock@@0QBUAFX_MSGMAP_ENTRY@@B 00473ce8     krnln_static:krnl2.obj
 0002:00003d18       ?messageMap@CUServerSock@@1UAFX_MSGMAP@@B 00473d18     krnln_static:krnl2.obj
 0002:00003d20       ?_messageEntries@CUServerSock@@0QBUAFX_MSGMAP_ENTRY@@B 00473d20     krnln_static:krnl2.obj
 0002:00003d50       ?messageMap@CUSerialPort@@1UAFX_MSGMAP@@B 00473d50     krnln_static:krnl2.obj
 0002:00003d58       ?_messageEntries@CUSerialPort@@0QBUAFX_MSGMAP_ENTRY@@B 00473d58     krnln_static:krnl2.obj
 0002:00003d88       ?messageMap@CUDataSource@@1UAFX_MSGMAP@@B 00473d88     krnln_static:krnl2.obj
 0002:00003d90       ?_messageEntries@CUDataSource@@0QBUAFX_MSGMAP_ENTRY@@B 00473d90     krnln_static:krnl2.obj
 0002:00003e20       ?messageMap@CUProvider@@1UAFX_MSGMAP@@B 00473e20     krnln_static:krnl2.obj
 0002:00003e28       ?_messageEntries@CUProvider@@0QBUAFX_MSGMAP_ENTRY@@B 00473e28     krnln_static:krnl2.obj
 0002:00003e70       ?messageMap@CUGrid@@1UAFX_MSGMAP@@B 00473e70     krnln_static:krnl2.obj
 0002:00003e78       ?_messageEntries@CUGrid@@0QBUAFX_MSGMAP_ENTRY@@B 00473e78     krnln_static:krnl2.obj
 0002:00003f08       ?messageMap@CUBaseProvider@@1UAFX_MSGMAP@@B 00473f08     krnln_static:krnl2.obj
 0002:00003f10       ?_messageEntries@CUBaseProvider@@0QBUAFX_MSGMAP_ENTRY@@B 00473f10     krnln_static:krnl2.obj
 0002:00003f58       ?messageMap@CUDBProvider@@1UAFX_MSGMAP@@B 00473f58     krnln_static:krnl2.obj
 0002:00003f60       ?_messageEntries@CUDBProvider@@0QBUAFX_MSGMAP_ENTRY@@B 00473f60     krnln_static:krnl2.obj
 0002:00003f90       ?messageMap@CURgnButton@@1UAFX_MSGMAP@@B 00473f90     krnln_static:krnl2.obj
 0002:00003f98       ?_messageEntries@CURgnButton@@0QBUAFX_MSGMAP_ENTRY@@B 00473f98     krnln_static:krnl2.obj
 0002:00003fb0       ?messageMap@CUODBCDB@@1UAFX_MSGMAP@@B 00473fb0     krnln_static:krnl2.obj
 0002:00003fb8       ?_messageEntries@CUODBCDB@@0QBUAFX_MSGMAP_ENTRY@@B 00473fb8     krnln_static:krnl2.obj
 0002:00003fe8       ?messageMap@CUODBCProvider@@1UAFX_MSGMAP@@B 00473fe8     krnln_static:krnl2.obj
 0002:00003ff0       ?_messageEntries@CUODBCProvider@@0QBUAFX_MSGMAP_ENTRY@@B 00473ff0     krnln_static:krnl2.obj
 0002:00004050       ?messageMap@CUErrorControl@@1UAFX_MSGMAP@@B 00474050     krnln_static:krnl2.obj
 0002:00004058       ?_messageEntries@CUErrorControl@@0QBUAFX_MSGMAP_ENTRY@@B 00474058     krnln_static:krnl2.obj
 0002:00004118       ?messageMap@CKrnlApp@@1UAFX_MSGMAP@@B 00474118     krnln_static:krnl2.obj
 0002:00004120       ?_messageEntries@CKrnlApp@@0QBUAFX_MSGMAP_ENTRY@@B 00474120     krnln_static:krnl2.obj
 0002:00004138       ?messageMap@CSysHideWnd@@1UAFX_MSGMAP@@B 00474138     krnln_static:krnl2.obj
 0002:00004140       ?_messageEntries@CSysHideWnd@@0QBUAFX_MSGMAP_ENTRY@@B 00474140     krnln_static:krnl2.obj
 0002:00004170       ??_7CPropertyInfo@@6B@     00474170     krnln_static:krnl2.obj
 0002:00004178       ??_7CFont@@6B@             00474178     krnln_static:krnl2.obj
 0002:00004184       ??_7CPicWnd@@6B@           00474184     krnln_static:krnl2.obj
 0002:00004240       ??_7CPIButton@@6B@         00474240     krnln_static:krnl2.obj
 0002:00004248       ??_7CUButton@@6B@          00474248     krnln_static:krnl2.obj
 0002:00004304       ??_7CPICommonDlg@@6B@      00474304     krnln_static:krnl2.obj
 0002:0000430c       ??_7CUCommonDlg@@6B@       0047430c     krnln_static:krnl2.obj
 0002:000043c4       ??_7CIDManger@@6B@         004743c4     krnln_static:krnl2.obj
 0002:000043dc       ??_7CWinUnitIDManger@@6B@  004743dc     krnln_static:krnl2.obj
 0002:000043f4       ??_7CKrnlApp@@6B@          004743f4     krnln_static:krnl2.obj
 0002:00004490       ??_7CSysHideWnd@@6B@       00474490     krnln_static:krnl2.obj
 0002:00004548       ??_7CDllFunc@@6B@          00474548     krnln_static:krnl2.obj
 0002:0000454c       ??_7CWinIDManger@@6B@      0047454c     krnln_static:krnl2.obj
 0002:00004558       ??_7CIDDWordManger@@6B@    00474558     krnln_static:krnl2.obj
 0002:00004568       ?classCWinFormUnit@CWinFormUnit@@2UCRuntimeClass@@B 00474568     krnln_static:Winform.obj
 0002:00004580       ?messageMap@CWinFormUnit@@1UAFX_MSGMAP@@B 00474580     krnln_static:Winform.obj
 0002:00004588       ?_messageEntries@CWinFormUnit@@0QBUAFX_MSGMAP_ENTRY@@B 00474588     krnln_static:Winform.obj
 0002:000047b0       ??_7CPIWinForm@@6B@        004747b0     krnln_static:Winform.obj
 0002:000047b8       ??_7CWinFormUnit@@6B@      004747b8     krnln_static:Winform.obj
 0002:00004870       __real@8@40008000000000000000 00474870     krnln_static:FUNC.OBJ
 0002:00004878       __real@8@3feea7c5ac471b478800 00474878     krnln_static:FUNC.OBJ
 0002:00004880       __real@4@00000000000000000000 00474880     krnln_static:FUNC.OBJ
 0002:00004888       __real@8@400fc350000000000000 00474888     krnln_static:FUNC.OBJ
 0002:00004890       __real@8@4012f424000000000000 00474890     krnln_static:FUNC.OBJ
 0002:00004898       __real@8@400c9c40000000000000 00474898     krnln_static:FUNC.OBJ
 0002:000048a0       ?messageMap@CInputEdit@@1UAFX_MSGMAP@@B 004748a0     krnln_static:DLG.OBJ
 0002:000048a8       ?_messageEntries@CInputEdit@@0QBUAFX_MSGMAP_ENTRY@@B 004748a8     krnln_static:DLG.OBJ
 0002:000048d8       ?messageMap@CInputDlg@@1UAFX_MSGMAP@@B 004748d8     krnln_static:DLG.OBJ
 0002:000048e0       ?_messageEntries@CInputDlg@@0QBUAFX_MSGMAP_ENTRY@@B 004748e0     krnln_static:DLG.OBJ
 0002:000048f8       ?messageMap@CPrintStatusDlg@@1UAFX_MSGMAP@@B 004748f8     krnln_static:DLG.OBJ
 0002:00004900       ?_messageEntries@CPrintStatusDlg@@0QBUAFX_MSGMAP_ENTRY@@B 00474900     krnln_static:DLG.OBJ
 0002:00004930       ?messageMap@CInputPanel@@1UAFX_MSGMAP@@B 00474930     krnln_static:DLG.OBJ
 0002:00004938       ?_messageEntries@CInputPanel@@0QBUAFX_MSGMAP_ENTRY@@B 00474938     krnln_static:DLG.OBJ
 0002:00004998       ?messageMap@CBrowDlg@@1UAFX_MSGMAP@@B 00474998     krnln_static:DLG.OBJ
 0002:000049a0       ?_messageEntries@CBrowDlg@@0QBUAFX_MSGMAP_ENTRY@@B 004749a0     krnln_static:DLG.OBJ
 0002:000049d0       ?messageMap@CFieldEdit@@1UAFX_MSGMAP@@B 004749d0     krnln_static:DLG.OBJ
 0002:000049d8       ?_messageEntries@CFieldEdit@@0QBUAFX_MSGMAP_ENTRY@@B 004749d8     krnln_static:DLG.OBJ
 0002:00004a38       ?messageMap@CFieldBtn@@1UAFX_MSGMAP@@B 00474a38     krnln_static:DLG.OBJ
 0002:00004a40       ?_messageEntries@CFieldBtn@@0QBUAFX_MSGMAP_ENTRY@@B 00474a40     krnln_static:DLG.OBJ
 0002:00004aa0       ?messageMap@CFieldLabel@@1UAFX_MSGMAP@@B 00474aa0     krnln_static:DLG.OBJ
 0002:00004aa8       ?_messageEntries@CFieldLabel@@0QBUAFX_MSGMAP_ENTRY@@B 00474aa8     krnln_static:DLG.OBJ
 0002:00004ad8       ?messageMap@CModiMemoBin@@1UAFX_MSGMAP@@B 00474ad8     krnln_static:DLG.OBJ
 0002:00004ae0       ?_messageEntries@CModiMemoBin@@0QBUAFX_MSGMAP_ENTRY@@B 00474ae0     krnln_static:DLG.OBJ
 0002:00004b70       ??_7CModiMemoBin@@6B@      00474b70     krnln_static:DLG.OBJ
 0002:00004c40       ??_7CPalette@@6B@          00474c40     krnln_static:Savebmp.obj
 0002:00004c4c       __real@4@3fff8000000000000000 00474c4c     krnln_static:JBPIC.OBJ
 0002:00004c50       ?messageMap@CPicWnd@@1UAFX_MSGMAP@@B 00474c50     krnln_static:Pic.obj
 0002:00004c58       ?_messageEntries@CPicWnd@@0QBUAFX_MSGMAP_ENTRY@@B 00474c58     krnln_static:Pic.obj
 0002:00004c88       ??_7CStream@@6B@           00474c88     krnln_static:Pic.obj
 0002:00004c90       ??_7CBaseStream@@6B@       00474c90     krnln_static:Pic.obj
 0002:00004c98       ??_7CMIDI@@6B@             00474c98     krnln_static:MIDI.OBJ
 0002:00004cb0       ?messageMap@CBaseSockWnd@@1UAFX_MSGMAP@@B 00474cb0     krnln_static:sockwnd.obj
 0002:00004cb8       ?_messageEntries@CBaseSockWnd@@0QBUAFX_MSGMAP_ENTRY@@B 00474cb8     krnln_static:sockwnd.obj
 0002:00004cd0       ?messageMap@CUDPSockWnd@@1UAFX_MSGMAP@@B 00474cd0     krnln_static:sockwnd.obj
 0002:00004cd8       ?_messageEntries@CUDPSockWnd@@0QBUAFX_MSGMAP_ENTRY@@B 00474cd8     krnln_static:sockwnd.obj
 0002:00004d08       ?messageMap@CClientSockWnd@@1UAFX_MSGMAP@@B 00474d08     krnln_static:sockwnd.obj
 0002:00004d10       ?_messageEntries@CClientSockWnd@@0QBUAFX_MSGMAP_ENTRY@@B 00474d10     krnln_static:sockwnd.obj
 0002:00004d40       ?messageMap@CServerSockWnd@@1UAFX_MSGMAP@@B 00474d40     krnln_static:sockwnd.obj
 0002:00004d48       ?_messageEntries@CServerSockWnd@@0QBUAFX_MSGMAP_ENTRY@@B 00474d48     krnln_static:sockwnd.obj
 0002:00004d90       ??_7CPing@@6B@             00474d90     krnln_static:sockwnd.obj
 0002:00004d98       ?messageMap@CSerial@@1UAFX_MSGMAP@@B 00474d98     krnln_static:Serial.obj
 0002:00004da0       ?_messageEntries@CSerial@@0QBUAFX_MSGMAP_ENTRY@@B 00474da0     krnln_static:Serial.obj
 0002:00004dd0       ?messageMap@CMGrid@@1UAFX_MSGMAP@@B 00474dd0     krnln_static:MGrid.obj
 0002:00004dd8       ?_messageEntries@CMGrid@@0QBUAFX_MSGMAP_ENTRY@@B 00474dd8     krnln_static:MGrid.obj
 0002:00004f40       ??_7CEWorkSpace@@6B@       00474f40     krnln_static:Database.obj
 0002:00004f44       ??_7CDatFile@@6B@          00474f44     krnln_static:DATFILE.OBJ
 0002:00004f48       ?messageMap@CDBPWDDlg@@1UAFX_MSGMAP@@B 00474f48     krnln_static:dbpwddlg.obj
 0002:00004f50       ?_messageEntries@CDBPWDDlg@@0QBUAFX_MSGMAP_ENTRY@@B 00474f50     krnln_static:dbpwddlg.obj
 0002:00004f68       ?messageMap@CRgnBtn@@1UAFX_MSGMAP@@B 00474f68     krnln_static:RgnBtn.obj
 0002:00004f70       ?_messageEntries@CRgnBtn@@0QBUAFX_MSGMAP_ENTRY@@B 00474f70     krnln_static:RgnBtn.obj
 0002:00005000       ?classCColourPicker@CColourPicker@@2UCRuntimeClass@@B 00475000     krnln_static:Clrpkr.obj
 0002:00005018       ?messageMap@CColourPicker@@1UAFX_MSGMAP@@B 00475018     krnln_static:Clrpkr.obj
 0002:00005020       ?_messageEntries@CColourPicker@@0QBUAFX_MSGMAP_ENTRY@@B 00475020     krnln_static:Clrpkr.obj
 0002:000050c8       ??_7CColourPicker@@6B@     004750c8     krnln_static:Clrpkr.obj
 0002:00005188       ?messageMap@CGifWnd@@1UAFX_MSGMAP@@B 00475188     krnln_static:GIFWND.OBJ
 0002:00005190       ?_messageEntries@CGifWnd@@0QBUAFX_MSGMAP_ENTRY@@B 00475190     krnln_static:GIFWND.OBJ
 0002:000051c0       ??_7CGifWnd@@6B@           004751c0     krnln_static:GIFWND.OBJ
 0002:0000527c       ??_7CMD5Checksum@@6B@      0047527c     krnln_static:md5.obj
 0002:00005280       ?messageMap@CPrinterSetup@@1UAFX_MSGMAP@@B 00475280     krnln_static:PrinterSetup.obj
 0002:00005288       ?_messageEntries@CPrinterSetup@@0QBUAFX_MSGMAP_ENTRY@@B 00475288     krnln_static:PrinterSetup.obj
 0002:00005480       ??_7CPrinterSetup@@6B@     00475480     krnln_static:PrinterSetup.obj
 0002:00005550       __real@8@3ffbccccccccccccd000 00475550     krnln_static:gfunc.obj
 0002:00005558       __real@8@3ff8e38e38e38e38e000 00475558     krnln_static:gfunc.obj
 0002:00005560       __real@8@3ffdb47c2c78b559f800 00475560     krnln_static:gfunc.obj
 0002:00005568       __real@8@4000e19b3796e2b07800 00475568     krnln_static:gfunc.obj
 0002:00005570       __real@8@40059000000000000000 00475570     krnln_static:gfunc.obj
 0002:00005578       __real@8@4003cb0bb207cc053800 00475578     krnln_static:gfunc.obj
 0002:00005580       __real@8@4006fdce9e89bf068800 00475580     krnln_static:gfunc.obj
 0002:00005588       __real@8@4003e2f1a9fbe76c8800 00475588     krnln_static:gfunc.obj
 0002:00005590       __real@8@3ffdc9ba5e353f7ce800 00475590     krnln_static:gfunc.obj
 0002:00005598       __real@8@4000b58e219652bd3800 00475598     krnln_static:gfunc.obj
 0002:000055a0       __real@8@3ffaa161e4f765fd8800 004755a0     krnln_static:gfunc.obj
 0002:000055a8       __real@8@3ffd913e81450efdc800 004755a8     krnln_static:gfunc.obj
 0002:000055b0       __real@8@3ff7811b1d92b7fe0800 004755b0     krnln_static:gfunc.obj
 0002:000055b8       __real@8@3ff8a3d70a3d70a3d800 004755b8     krnln_static:gfunc.obj
 0002:000055c0       ?messageMap@CPreviewDlg@@1UAFX_MSGMAP@@B 004755c0     krnln_static:PreviewDlg.obj
 0002:000055c8       ?_messageEntries@CPreviewDlg@@0QBUAFX_MSGMAP_ENTRY@@B 004755c8     krnln_static:PreviewDlg.obj
 0002:00005700       ?messageMap@CPreviewWnd@@1UAFX_MSGMAP@@B 00475700     krnln_static:PreviewWnd.obj
 0002:00005708       ?_messageEntries@CPreviewWnd@@0QBUAFX_MSGMAP_ENTRY@@B 00475708     krnln_static:PreviewWnd.obj
 0002:000057b0       ?messageMap@CInPlaceEdit@@1UAFX_MSGMAP@@B 004757b0     krnln_static:GridEdit.obj
 0002:000057b8       ?_messageEntries@CInPlaceEdit@@0QBUAFX_MSGMAP_ENTRY@@B 004757b8     krnln_static:GridEdit.obj
 0002:00005878       ??_7CInPlaceEdit@@6B@      00475878     krnln_static:GridEdit.obj
 0002:00005930       ?messageMap@CMPrintStatusDlg@@1UAFX_MSGMAP@@B 00475930     krnln_static:PrintStatusDlg.obj
 0002:00005938       ?_messageEntries@CMPrintStatusDlg@@0QBUAFX_MSGMAP_ENTRY@@B 00475938     krnln_static:PrintStatusDlg.obj
 0002:00005968       ??_7CMPrintStatusDlg@@6B@  00475968     krnln_static:PrintStatusDlg.obj
 0002:00005a38       ?messageMap@CColourPopup@@1UAFX_MSGMAP@@B 00475a38     krnln_static:Clrpopup.obj
 0002:00005a40       ?_messageEntries@CColourPopup@@0QBUAFX_MSGMAP_ENTRY@@B 00475a40     krnln_static:Clrpopup.obj
 0002:00005b30       ??_7CColourPopup@@6B@      00475b30     krnln_static:Clrpopup.obj
 0002:00005bf0       ?messageMap@CGotoPageDlg@@1UAFX_MSGMAP@@B 00475bf0     krnln_static:GotoPageDlg.obj
 0002:00005bf8       ?_messageEntries@CGotoPageDlg@@0QBUAFX_MSGMAP_ENTRY@@B 00475bf8     krnln_static:GotoPageDlg.obj
 0002:00005c10       ??_7CGotoPageDlg@@6B@      00475c10     krnln_static:GotoPageDlg.obj
 0002:00005cf0       ?jpeg_natural_order@@3QBHB 00475cf0     krnln_static:JUTILS.OBJ
 0002:000060fc       __real@4@3fff8a8bd40000000000 004760fc     krnln_static:JIDCTFLT.OBJ
 0002:00006100       __real@4@4000a73d750000000000 00476100     krnln_static:JIDCTFLT.OBJ
 0002:00006104       __real@4@3fffec835e0000000000 00476104     krnln_static:JIDCTFLT.OBJ
 0002:00006108       __real@4@3fffb504f30000000000 00476108     krnln_static:JIDCTFLT.OBJ
 0002:00006130       edroptarget_??_7EDropTarget@@6B@ 00476130     edroptarget_static:EDropTargetclass.obj
 0002:0000614c       edroptarget_?npos@?$basic_string@GU?$char_traits@G@std@@V?$allocator@G@2@@std@@2IB 0047614c     edroptarget_static:EDropTargetclass.obj
 0002:00006150       edroptarget_?_C@?1??_Nullstr@?$basic_string@GU?$char_traits@G@std@@V?$allocator@G@2@@std@@CAPBGXZ@4GB 00476150     edroptarget_static:EDropTargetclass.obj
 0002:00006158       edroptarget_?messageMap@EDropTargetWnd@@1UAFX_MSGMAP@@B 00476158     edroptarget_static:EDropTarget1.obj
 0002:00006160       edroptarget_?_messageEntries@EDropTargetWnd@@0QBUAFX_MSGMAP_ENTRY@@B 00476160     edroptarget_static:EDropTarget1.obj
 0002:000061a8       edroptarget_??_7EDropTargetWnd@@6B@ 004761a8     edroptarget_static:EDropTarget1.obj
 0002:00006260       edroptarget_??_7CGdiObject@@6B@ 00476260     edroptarget_static:EDropTarget1.obj
 0002:0000626c       edroptarget_??_7CPen@@6B@  0047626c     edroptarget_static:EDropTarget1.obj
 0002:00006278       edroptarget_??_7CBrush@@6B@ 00476278     edroptarget_static:EDropTarget1.obj
 0002:00006284       edroptarget_??_7CBitmap@@6B@ 00476284     edroptarget_static:EDropTarget1.obj
 0002:00006290       edroptarget_??_7CPIDropTarget@@6B@ 00476290     edroptarget_static:PIDropTarget.obj
 0002:0000629c       iext_??_7CFreqMem@@6B@_1   0047629c     iext_static:libfn.obj
 0002:000062a0       iext_?messageMap@CIextApp@@1UAFX_MSGMAP@@B 004762a0     iext_static:iext.obj
 0002:000062a8       iext_?_messageEntries@CIextApp@@0QBUAFX_MSGMAP_ENTRY@@B 004762a8     iext_static:iext.obj
 0002:000062c0       iext_?messageMap@CUTreeBox@@1UAFX_MSGMAP@@B 004762c0     iext_static:unit.obj
 0002:000062c8       iext_?_messageEntries@CUTreeBox@@0QBUAFX_MSGMAP_ENTRY@@B 004762c8     iext_static:unit.obj
 0002:00006418       iext_?messageMap@CUStatusBar@@1UAFX_MSGMAP@@B 00476418     iext_static:unit.obj
 0002:00006420       iext_?_messageEntries@CUStatusBar@@0QBUAFX_MSGMAP_ENTRY@@B 00476420     iext_static:unit.obj
 0002:00006450       iext_?messageMap@CUToolBar@@1UAFX_MSGMAP@@B 00476450     iext_static:unit.obj
 0002:00006458       iext_?_messageEntries@CUToolBar@@0QBUAFX_MSGMAP_ENTRY@@B 00476458     iext_static:unit.obj
 0002:000064d0       iext_?messageMap@CNotifyWnd@@1UAFX_MSGMAP@@B 004764d0     iext_static:unit.obj
 0002:000064d8       iext_?_messageEntries@CNotifyWnd@@0QBUAFX_MSGMAP_ENTRY@@B 004764d8     iext_static:unit.obj
 0002:00006520       iext_?messageMap@CUListView@@1UAFX_MSGMAP@@B 00476520     iext_static:unit.obj
 0002:00006528       iext_?_messageEntries@CUListView@@0QBUAFX_MSGMAP_ENTRY@@B 00476528     iext_static:unit.obj
 0002:000066a8       iext_?messageMap@CUTransLabel@@1UAFX_MSGMAP@@B 004766a8     iext_static:unit.obj
 0002:000066b0       iext_?_messageEntries@CUTransLabel@@0QBUAFX_MSGMAP_ENTRY@@B 004766b0     iext_static:unit.obj
 0002:000066f8       iext_??_7CFreqMem@@6B@     004766f8     iext_static:unit.obj
 0002:000066fc       iext_??_7CPropertyInfo@@6B@ 004766fc     iext_static:unit.obj
 0002:00006704       iext_??_7CFont@@6B@        00476704     iext_static:unit.obj
 0002:00006710       iext_??_7CGdiObject@@6B@   00476710     iext_static:unit.obj
 0002:0000671c       iext_??_7CMyDWordArray@@6B@ 0047671c     iext_static:unit.obj
 0002:00006720       iext_??_7CPIListView@@6B@  00476720     iext_static:unit.obj
 0002:00006728       iext_??_7CUListView@@6B@   00476728     iext_static:unit.obj
 0002:000067e4       iext_??_7CListCtrl@@6B@    004767e4     iext_static:unit.obj
 0002:000068a0       iext_??_7CFreqMem@@6B@_0   004768a0     iext_static:Mem.obj
 0002:000068a8       _IID_IUnknown              004768a8     uuid:unknwn_i_guid0.obj
 0002:000068b8       _IID_IOleControl           004768b8     uuid:ocidl_i_guid8.obj
 0002:000068c8       _IID_IOleInPlaceActiveObject 004768c8     uuid:oleidl_i_guid12.obj
 0002:000068d8       _IID_IPictureDisp          004768d8     uuid:ocidl_i_guid23.obj
 0002:000068e8       _IID_IPicture              004768e8     uuid:ocidl_i_guid20.obj
 0002:000068f8       _IID_IFontDisp             004768f8     uuid:ocidl_i_guid22.obj
 0002:00006908       _IID_IFont                 00476908     uuid:ocidl_i_guid19.obj
 0002:00006918       _IID_IDispatch             00476918     uuid:oaidl_i_guid4.obj
 0002:00006928       _GUID_NULL                 00476928     uuid:cguid_i_guid0.obj
 0002:00006938       _IID_IDropTarget           00476938     uuid:oleidl_i_guid20.obj
 0002:00006948       ??_C@_05JFHK@?$CF?$CK?4?$CKf?$AA@ 00476948     nafxcw:strex.obj
 0002:00006950       ??_C@_03NOMB@I64?$AA@      00476950     nafxcw:strex.obj
 0002:00006958       __real@8@3feec22e450672894800 00476958     nafxcw:olevar.obj
 0002:00006960       __real@8@bfedc22e450672894800 00476960     nafxcw:olevar.obj
 0002:00006968       ?classCNotSupportedException@CNotSupportedException@@2UCRuntimeClass@@B 00476968     nafxcw:except.obj
 0002:00006980       ??_C@_0BH@JODH@CNotSupportedException?$AA@ 00476980     nafxcw:except.obj
 0002:00006998       ?classCMemoryException@CMemoryException@@2UCRuntimeClass@@B 00476998     nafxcw:except.obj
 0002:000069b0       ??_C@_0BB@NODM@CMemoryException?$AA@ 004769b0     nafxcw:except.obj
 0002:000069c8       ?classCException@CException@@2UCRuntimeClass@@B 004769c8     nafxcw:except.obj
 0002:000069e0       ??_C@_0L@CMNH@CException?$AA@ 004769e0     nafxcw:except.obj
 0002:000069f0       ??_7CMemoryException@@6B@  004769f0     nafxcw:except.obj
 0002:00006a08       ??_7CNotSupportedException@@6B@ 00476a08     nafxcw:except.obj
 0002:00006a20       ?classCFile@CFile@@2UCRuntimeClass@@B 00476a20     nafxcw:filecore.obj
 0002:00006a38       ??_C@_05GM@CFile?$AA@      00476a38     nafxcw:filecore.obj
 0002:00006a44       ??_7CFile@@6B@             00476a44     nafxcw:filecore.obj
 0002:00006a9c       ??_7CFileException@@6B@    00476a9c     nafxcw:filecore.obj
 0002:00006ab0       ?classCMemFile@CMemFile@@2UCRuntimeClass@@B 00476ab0     nafxcw:filemem.obj
 0002:00006ac8       ??_C@_08EMMO@CMemFile?$AA@ 00476ac8     nafxcw:filemem.obj
 0002:00006ad8       ??_7CMemFile@@6B@          00476ad8     nafxcw:filemem.obj
 0002:00006b40       ?classCTempGdiObject@CTempGdiObject@@2UCRuntimeClass@@B 00476b40     nafxcw:wingdi.obj
 0002:00006b58       ??_C@_0P@LOPC@CTempGdiObject?$AA@ 00476b58     nafxcw:wingdi.obj
 0002:00006b68       ?classCTempDC@CTempDC@@2UCRuntimeClass@@B 00476b68     nafxcw:wingdi.obj
 0002:00006b80       ??_C@_07LHDN@CTempDC?$AA@  00476b80     nafxcw:wingdi.obj
 0002:00006b88       ?classCRgn@CRgn@@2UCRuntimeClass@@B 00476b88     nafxcw:wingdi.obj
 0002:00006ba0       ??_C@_04HJNG@CRgn?$AA@     00476ba0     nafxcw:wingdi.obj
 0002:00006ba8       ?classCPalette@CPalette@@2UCRuntimeClass@@B 00476ba8     nafxcw:wingdi.obj
 0002:00006bc0       ??_C@_08CIF@CPalette?$AA@  00476bc0     nafxcw:wingdi.obj
 0002:00006bd0       ?classCBitmap@CBitmap@@2UCRuntimeClass@@B 00476bd0     nafxcw:wingdi.obj
 0002:00006be8       ??_C@_07HNEL@CBitmap?$AA@  00476be8     nafxcw:wingdi.obj
 0002:00006bf0       ?classCFont@CFont@@2UCRuntimeClass@@B 00476bf0     nafxcw:wingdi.obj
 0002:00006c08       ??_C@_05MCKJ@CFont?$AA@    00476c08     nafxcw:wingdi.obj
 0002:00006c10       ?classCBrush@CBrush@@2UCRuntimeClass@@B 00476c10     nafxcw:wingdi.obj
 0002:00006c28       ??_C@_06PNF@CBrush?$AA@    00476c28     nafxcw:wingdi.obj
 0002:00006c30       ?classCPen@CPen@@2UCRuntimeClass@@B 00476c30     nafxcw:wingdi.obj
 0002:00006c48       ??_C@_04PAKO@CPen?$AA@     00476c48     nafxcw:wingdi.obj
 0002:00006c50       ?classCGdiObject@CGdiObject@@2UCRuntimeClass@@B 00476c50     nafxcw:wingdi.obj
 0002:00006c68       ??_C@_0L@CNBG@CGdiObject?$AA@ 00476c68     nafxcw:wingdi.obj
 0002:00006c78       ?classCPaintDC@CPaintDC@@2UCRuntimeClass@@B 00476c78     nafxcw:wingdi.obj
 0002:00006c90       ??_C@_08HFDK@CPaintDC?$AA@ 00476c90     nafxcw:wingdi.obj
 0002:00006ca0       ?classCWindowDC@CWindowDC@@2UCRuntimeClass@@B 00476ca0     nafxcw:wingdi.obj
 0002:00006cb8       ??_C@_09NFPO@CWindowDC?$AA@ 00476cb8     nafxcw:wingdi.obj
 0002:00006cc8       ?classCClientDC@CClientDC@@2UCRuntimeClass@@B 00476cc8     nafxcw:wingdi.obj
 0002:00006ce0       ??_C@_09HIEC@CClientDC?$AA@ 00476ce0     nafxcw:wingdi.obj
 0002:00006cf0       ?classCDC@CDC@@2UCRuntimeClass@@B 00476cf0     nafxcw:wingdi.obj
 0002:00006d08       ??_C@_03NJOH@CDC?$AA@      00476d08     nafxcw:wingdi.obj
 0002:00006d10       ?classCUserException@CUserException@@2UCRuntimeClass@@B 00476d10     nafxcw:wingdi.obj
 0002:00006d28       ??_C@_0P@BHHD@CUserException?$AA@ 00476d28     nafxcw:wingdi.obj
 0002:00006d38       ?classCResourceException@CResourceException@@2UCRuntimeClass@@B 00476d38     nafxcw:wingdi.obj
 0002:00006d50       ??_C@_0BD@GMHI@CResourceException?$AA@ 00476d50     nafxcw:wingdi.obj
 0002:00006d68       ??_7CDC@@6B@               00476d68     nafxcw:wingdi.obj
 0002:00006de0       ??_7CClientDC@@6B@         00476de0     nafxcw:wingdi.obj
 0002:00006e58       ??_7CWindowDC@@6B@         00476e58     nafxcw:wingdi.obj
 0002:00006ed0       ??_7CPaintDC@@6B@          00476ed0     nafxcw:wingdi.obj
 0002:00006f48       ??_7CPen@@6B@              00476f48     nafxcw:wingdi.obj
 0002:00006f58       ??_7CBrush@@6B@            00476f58     nafxcw:wingdi.obj
 0002:00006f68       ??_7CGdiObject@@6B@        00476f68     nafxcw:wingdi.obj
 0002:00006f78       ??_7CTempDC@@6B@           00476f78     nafxcw:wingdi.obj
 0002:00006ff0       ??_7CTempGdiObject@@6B@    00476ff0     nafxcw:wingdi.obj
 0002:00007000       ??_7CResourceException@@6B@ 00477000     nafxcw:wingdi.obj
 0002:00007018       ??_7CUserException@@6B@    00477018     nafxcw:wingdi.obj
 0002:00007030       ?classCDialog@CDialog@@2UCRuntimeClass@@B 00477030     nafxcw:dlgcore.obj
 0002:00007048       ??_C@_07IJJI@CDialog?$AA@  00477048     nafxcw:dlgcore.obj
 0002:00007050       ?messageMap@CDialog@@1UAFX_MSGMAP@@B 00477050     nafxcw:dlgcore.obj
 0002:00007058       ?_messageEntries@CDialog@@0QBUAFX_MSGMAP_ENTRY@@B 00477058     nafxcw:dlgcore.obj
 0002:00007130       ??_C@_04EDLP@Edit?$AA@     00477130     nafxcw:dlgcore.obj
 0002:0000713c       ??_7CDialog@@6B@           0047713c     nafxcw:dlgcore.obj
 0002:0000720c       ??_C@_04JCAN@Helv?$AA@     0047720c     nafxcw:dlgcore.obj
 0002:00007214       ??_C@_0O@JHLN@MS?5Sans?5Serif?$AA@ 00477214     nafxcw:dlgcore.obj
 0002:00007224       ??_C@_0N@KBJM@MS?5Shell?5Dlg?$AA@ 00477224     nafxcw:dlgcore.obj
 0002:00007238       ?classCTempWnd@CTempWnd@@2UCRuntimeClass@@B 00477238     nafxcw:wincore.obj
 0002:00007250       ??_C@_08EHJM@CTempWnd?$AA@ 00477250     nafxcw:wincore.obj
 0002:00007260       ?classCWnd@CWnd@@2UCRuntimeClass@@B 00477260     nafxcw:wincore.obj
 0002:00007278       ??_C@_04MBPC@CWnd?$AA@     00477278     nafxcw:wincore.obj
 0002:00007280       ?messageMap@CWnd@@1UAFX_MSGMAP@@B 00477280     nafxcw:wincore.obj
 0002:00007288       ?_messageEntries@CWnd@@0QBUAFX_MSGMAP_ENTRY@@B 00477288     nafxcw:wincore.obj
 0002:00007528       ?_afxOldWndProc@@3QBDB     00477528     nafxcw:wincore.obj
 0002:0000753c       ?_afxWnd@@3QBDB            0047753c     nafxcw:wincore.obj
 0002:00007548       ?_afxWndControlBar@@3QBDB  00477548     nafxcw:wincore.obj
 0002:0000755c       ?_afxWndMDIFrame@@3QBDB    0047755c     nafxcw:wincore.obj
 0002:0000756c       ?_afxWndFrameOrView@@3QBDB 0047756c     nafxcw:wincore.obj
 0002:00007580       ?_afxWndOleControl@@3QBDB  00477580     nafxcw:wincore.obj
 0002:00007594       ??_C@_0BA@LJCP@GetMonitorInfoA?$AA@ 00477594     nafxcw:wincore.obj
 0002:000075a4       ??_C@_0BE@KPOG@EnumDisplayMonitors?$AA@ 004775a4     nafxcw:wincore.obj
 0002:000075b8       ??_C@_0BB@GJCM@MonitorFromPoint?$AA@ 004775b8     nafxcw:wincore.obj
 0002:000075cc       ??_C@_0BA@GOHF@MonitorFromRect?$AA@ 004775cc     nafxcw:wincore.obj
 0002:000075dc       ??_C@_0BC@COEH@MonitorFromWindow?$AA@ 004775dc     nafxcw:wincore.obj
 0002:000075f0       ??_C@_0BB@NDAA@GetSystemMetrics?$AA@ 004775f0     nafxcw:wincore.obj
 0002:00007604       ??_C@_06NEIN@USER32?$AA@   00477604     nafxcw:wincore.obj
 0002:0000760c       ??_C@_0BF@CBLB@commctrl_DragListMsg?$AA@ 0047760c     nafxcw:wincore.obj
 0002:00007628       ??_7CWnd@@6B@              00477628     nafxcw:wincore.obj
 0002:000076e0       ??_C@_03HEJE@ime?$AA@      004776e0     nafxcw:wincore.obj
 0002:000076e4       ??_C@_0BD@JBOB@Afx?3?$CFx?3?$CFx?3?$CFx?3?$CFx?3?$CFx?$AA@ 004776e4     nafxcw:wincore.obj
 0002:000076f8       ??_C@_09NEO@Afx?3?$CFx?3?$CFx?$AA@ 004776f8     nafxcw:wincore.obj
 0002:00007708       ??_7CTestCmdUI@@6B@        00477708     nafxcw:wincore.obj
 0002:00007718       ??_C@_0BF@CELH@InitCommonControlsEx?$AA@ 00477718     nafxcw:wincore.obj
 0002:00007730       ??_C@_0N@BMKC@COMCTL32?4DLL?$AA@ 00477730     nafxcw:wincore.obj
 0002:00007744       ??_7CTempWnd@@6B@          00477744     nafxcw:wincore.obj
 0002:00007800       ??_7_AFX_CTL3D_STATE@@6B@  00477800     nafxcw:wincore.obj
 0002:00007808       ?classCPtrArray@CPtrArray@@2UCRuntimeClass@@B 00477808     nafxcw:array_p.obj
 0002:00007820       ??_C@_09BHCJ@CPtrArray?$AA@ 00477820     nafxcw:array_p.obj
 0002:00007830       ??_7CPtrArray@@6B@         00477830     nafxcw:array_p.obj
 0002:00007840       ?classCEdit@CEdit@@2UCRuntimeClass@@B 00477840     nafxcw:winctrl1.obj
 0002:00007858       ??_C@_05KKIE@CEdit?$AA@    00477858     nafxcw:winctrl1.obj
 0002:00007860       ?classCComboBox@CComboBox@@2UCRuntimeClass@@B 00477860     nafxcw:winctrl1.obj
 0002:00007878       ??_C@_09JMHE@CComboBox?$AA@ 00477878     nafxcw:winctrl1.obj
 0002:00007888       ?classCButton@CButton@@2UCRuntimeClass@@B 00477888     nafxcw:winctrl1.obj
 0002:000078a0       ??_C@_07NNHJ@CButton?$AA@  004778a0     nafxcw:winctrl1.obj
 0002:000078a8       ?classCStatic@CStatic@@2UCRuntimeClass@@B 004778a8     nafxcw:winctrl1.obj
 0002:000078c0       ??_C@_07HEEJ@CStatic?$AA@  004778c0     nafxcw:winctrl1.obj
 0002:000078cc       ??_7CStatic@@6B@           004778cc     nafxcw:winctrl1.obj
 0002:00007988       ??_7CButton@@6B@           00477988     nafxcw:winctrl1.obj
 0002:00007a48       ??_7CComboBox@@6B@         00477a48     nafxcw:winctrl1.obj
 0002:00007b14       ??_7CEdit@@6B@             00477b14     nafxcw:winctrl1.obj
 0002:00007bd0       ?messageMap@CCheckListBox@@1UAFX_MSGMAP@@B 00477bd0     nafxcw:winctrl3.obj
 0002:00007bd8       ?_messageEntries@CCheckListBox@@0QBUAFX_MSGMAP_ENTRY@@B 00477bd8     nafxcw:winctrl3.obj
 0002:00007d44       ??_7CBitmap@@6B@           00477d44     nafxcw:winctrl3.obj
 0002:00007d54       ??_7_AFX_CHECKLIST_STATE@@6B@ 00477d54     nafxcw:winctrl3.obj
 0002:00007d5c       ??_7CRgn@@6B@              00477d5c     nafxcw:wingdix.obj
 0002:00007d68       ?classCFileDialog@CFileDialog@@2UCRuntimeClass@@B 00477d68     nafxcw:dlgfile.obj
 0002:00007d80       ??_C@_0M@JEJA@CFileDialog?$AA@ 00477d80     nafxcw:dlgfile.obj
 0002:00007d90       ??_7CFileDialog@@6B@       00477d90     nafxcw:dlgfile.obj
 0002:00007e80       ??_7_AFX_THREAD_STATE@@6B@ 00477e80     nafxcw:afxstate.obj
 0002:00007e88       ??_7AFX_MODULE_STATE@@6B@  00477e88     nafxcw:afxstate.obj
 0002:00007e90       ??_7AFX_MODULE_THREAD_STATE@@6B@ 00477e90     nafxcw:afxstate.obj
 0002:00007e98       ??_7_AFX_BASE_MODULE_STATE@@6B@ 00477e98     nafxcw:afxstate.obj
 0002:00007e9c       ??_C@_0N@FMIP@CStringArray?$AA@ 00477e9c     nafxcw:array_s.obj
 0002:00007eb0       ??_7CStringArray@@6B@      00477eb0     nafxcw:array_s.obj
 0002:00007ec0       ??_7CThreadData@@6B@       00477ec0     nafxcw:afxtls.obj
 0002:00007ec8       ?classCWinApp@CWinApp@@2UCRuntimeClass@@B 00477ec8     nafxcw:appcore.obj
 0002:00007ee0       ??_C@_07DHEF@CWinApp?$AA@  00477ee0     nafxcw:appcore.obj
 0002:00007ee8       ?messageMap@CWinApp@@1UAFX_MSGMAP@@B 00477ee8     nafxcw:appcore.obj
 0002:00007ef0       ?_messageEntries@CWinApp@@0QBUAFX_MSGMAP_ENTRY@@B 00477ef0     nafxcw:appcore.obj
 0002:00007f50       ?_afxPreviewEntry@@3QBDB   00477f50     nafxcw:appcore.obj
 0002:00007f60       ?_afxPreviewSection@@3QBDB 00477f60     nafxcw:appcore.obj
 0002:00007f70       ??_7_AFX_WIN_STATE@@6B@    00477f70     nafxcw:appcore.obj
 0002:00007f78       ??_7CWinApp@@6B@           00477f78     nafxcw:appcore.obj
 0002:00008018       ?classCTempImageList@CTempImageList@@2UCRuntimeClass@@B 00478018     nafxcw:winctrl2.obj
 0002:00008030       ??_C@_0P@OCOD@CTempImageList?$AA@ 00478030     nafxcw:winctrl2.obj
 0002:00008040       ?classCImageList@CImageList@@2UCRuntimeClass@@B 00478040     nafxcw:winctrl2.obj
 0002:00008058       ??_C@_0L@HBAH@CImageList?$AA@ 00478058     nafxcw:winctrl2.obj
 0002:00008068       ?classCListCtrl@CListCtrl@@2UCRuntimeClass@@B 00478068     nafxcw:winctrl2.obj
 0002:00008080       ??_C@_09IAHO@CListCtrl?$AA@ 00478080     nafxcw:winctrl2.obj
 0002:00008090       ?classCProgressCtrl@CProgressCtrl@@2UCRuntimeClass@@B 00478090     nafxcw:winctrl2.obj
 0002:000080a8       ??_C@_0O@ECFI@CProgressCtrl?$AA@ 004780a8     nafxcw:winctrl2.obj
 0002:000080b8       ?messageMap@CTabCtrl@@1UAFX_MSGMAP@@B 004780b8     nafxcw:winctrl2.obj
 0002:000080c0       ?_messageEntries@CTabCtrl@@0QBUAFX_MSGMAP_ENTRY@@B 004780c0     nafxcw:winctrl2.obj
 0002:000080f0       ?messageMap@CTreeCtrl@@1UAFX_MSGMAP@@B 004780f0     nafxcw:winctrl2.obj
 0002:000080f8       ?_messageEntries@CTreeCtrl@@0QBUAFX_MSGMAP_ENTRY@@B 004780f8     nafxcw:winctrl2.obj
 0002:00008128       ?messageMap@CListCtrl@@1UAFX_MSGMAP@@B 00478128     nafxcw:winctrl2.obj
 0002:00008130       ?_messageEntries@CListCtrl@@0QBUAFX_MSGMAP_ENTRY@@B 00478130     nafxcw:winctrl2.obj
 0002:00008160       ?messageMap@CToolBarCtrl@@1UAFX_MSGMAP@@B 00478160     nafxcw:winctrl2.obj
 0002:00008168       ?_messageEntries@CToolBarCtrl@@0QBUAFX_MSGMAP_ENTRY@@B 00478168     nafxcw:winctrl2.obj
 0002:00008198       ??_C@_0O@NFAI@SysListView32?$AA@ 00478198     nafxcw:winctrl2.obj
 0002:000081ac       ??_7CListCtrl@@6B@         004781ac     nafxcw:winctrl2.obj
 0002:0000826c       ??_7CProgressCtrl@@6B@     0047826c     nafxcw:winctrl2.obj
 0002:00008328       ??_7CImageList@@6B@        00478328     nafxcw:winctrl2.obj
 0002:00008338       ??_7CTempImageList@@6B@    00478338     nafxcw:winctrl2.obj
 0002:00008348       ?classCArchiveException@CArchiveException@@2UCRuntimeClass@@B 00478348     nafxcw:arcex.obj
 0002:00008360       ??_C@_0BC@BIF@CArchiveException?$AA@ 00478360     nafxcw:arcex.obj
 0002:00008378       ??_7CArchiveException@@6B@ 00478378     nafxcw:arcex.obj
 0002:00008390       ?classCSharedFile@CSharedFile@@2UCRuntimeClass@@B 00478390     nafxcw:fileshrd.obj
 0002:000083a8       ??_C@_0M@DHDK@CSharedFile?$AA@ 004783a8     nafxcw:fileshrd.obj
 0002:000083b8       ??_7CSharedFile@@6B@       004783b8     nafxcw:fileshrd.obj
 0002:00008420       ?classCCmdTarget@CCmdTarget@@2UCRuntimeClass@@B 00478420     nafxcw:cmdtarg.obj
 0002:00008438       ??_C@_0L@MION@CCmdTarget?$AA@ 00478438     nafxcw:cmdtarg.obj
 0002:00008444       ?_afxDot@@3QBEB            00478444     nafxcw:cmdtarg.obj
 0002:00008450       ?messageMap@CCmdTarget@@1UAFX_MSGMAP@@B 00478450     nafxcw:cmdtarg.obj
 0002:00008458       ?_messageEntries@CCmdTarget@@0QBUAFX_MSGMAP_ENTRY@@B 00478458     nafxcw:cmdtarg.obj
 0002:00008470       ?dispatchMap@CCmdTarget@@1UAFX_DISPMAP@@B 00478470     nafxcw:cmdtarg.obj
 0002:00008480       ?_dispatchEntries@CCmdTarget@@0QBUAFX_DISPMAP_ENTRY@@B 00478480     nafxcw:cmdtarg.obj
 0002:000084a0       ?eventsinkMap@CCmdTarget@@1UAFX_EVENTSINKMAP@@B 004784a0     nafxcw:cmdtarg.obj
 0002:000084b0       ?_eventsinkEntries@CCmdTarget@@0QBUAFX_EVENTSINKMAP_ENTRY@@B 004784b0     nafxcw:cmdtarg.obj
 0002:000084d8       ?interfaceMap@CCmdTarget@@1UAFX_INTERFACEMAP@@B 004784d8     nafxcw:cmdtarg.obj
 0002:000084e0       ?_interfaceEntries@CCmdTarget@@0QBUAFX_INTERFACEMAP_ENTRY@@B 004784e0     nafxcw:cmdtarg.obj
 0002:000084f0       ?connectionMap@CCmdTarget@@1UAFX_CONNECTIONMAP@@B 004784f0     nafxcw:cmdtarg.obj
 0002:000084f8       ?_connectionEntries@CCmdTarget@@0QBUAFX_CONNECTIONMAP_ENTRY@@B 004784f8     nafxcw:cmdtarg.obj
 0002:00008500       ?commandMap@CCmdTarget@@1UAFX_OLECMDMAP@@B 00478500     nafxcw:cmdtarg.obj
 0002:00008508       ?_commandEntries@CCmdTarget@@0QBUAFX_OLECMDMAP_ENTRY@@B 00478508     nafxcw:cmdtarg.obj
 0002:00008518       ??_7CCmdUI@@6B@            00478518     nafxcw:cmdtarg.obj
 0002:00008528       ?classCFontDialog@CFontDialog@@2UCRuntimeClass@@B 00478528     nafxcw:dlgfnt.obj
 0002:00008540       ??_C@_0M@EOLC@CFontDialog?$AA@ 00478540     nafxcw:dlgfnt.obj
 0002:00008550       ??_7CFontDialog@@6B@       00478550     nafxcw:dlgfnt.obj
 0002:00008620       ?classCWinThread@CWinThread@@2UCRuntimeClass@@B 00478620     nafxcw:thrdcore.obj
 0002:00008638       ??_C@_0L@BKIL@CWinThread?$AA@ 00478638     nafxcw:thrdcore.obj
 0002:00008648       ??_7CWinThread@@6B@        00478648     nafxcw:thrdcore.obj
 0002:000086c8       ??_7_AFX_CTL3D_THREAD@@6B@ 004786c8     nafxcw:thrdcore.obj
 0002:000086d0       ?classCTempMenu@CTempMenu@@2UCRuntimeClass@@B 004786d0     nafxcw:winmenu.obj
 0002:000086e8       ??_C@_09NDEG@CTempMenu?$AA@ 004786e8     nafxcw:winmenu.obj
 0002:000086f8       ?classCMenu@CMenu@@2UCRuntimeClass@@B 004786f8     nafxcw:winmenu.obj
 0002:00008710       ??_C@_05BJMA@CMenu?$AA@    00478710     nafxcw:winmenu.obj
 0002:0000871c       ??_7CMenu@@6B@             0047871c     nafxcw:winmenu.obj
 0002:00008734       ??_7CTempMenu@@6B@         00478734     nafxcw:winmenu.obj
 0002:00008748       ??_C@_08PKA@combobox?$AA@  00478748     nafxcw:winutil.obj
 0002:00008754       ??_C@_0M@JHEJ@CDWordArray?$AA@ 00478754     nafxcw:array_d.obj
 0002:00008764       ??_7CDWordArray@@6B@       00478764     nafxcw:array_d.obj
 0002:00008770       ??_C@_0L@KEGG@CWordArray?$AA@ 00478770     nafxcw:array_w.obj
 0002:00008780       ??_7CWordArray@@6B@        00478780     nafxcw:array_w.obj
 0002:00008790       ?classCFileException@CFileException@@2UCRuntimeClass@@B 00478790     nafxcw:filex.obj
 0002:000087a8       ??_C@_0P@HFKI@CFileException?$AA@ 004787a8     nafxcw:filex.obj
 0002:000087b8       ?classCMapPtrToPtr@CMapPtrToPtr@@2UCRuntimeClass@@B 004787b8     nafxcw:map_pp.obj
 0002:000087d0       ??_C@_0N@EGND@CMapPtrToPtr?$AA@ 004787d0     nafxcw:map_pp.obj
 0002:000087e4       ??_7CMapPtrToPtr@@6B@      004787e4     nafxcw:map_pp.obj
 0002:000087f0       ?classCToolTipCtrl@CToolTipCtrl@@2UCRuntimeClass@@B 004787f0     nafxcw:tooltip.obj
 0002:00008808       ??_C@_0N@OELH@CToolTipCtrl?$AA@ 00478808     nafxcw:tooltip.obj
 0002:00008818       ?messageMap@CToolTipCtrl@@1UAFX_MSGMAP@@B 00478818     nafxcw:tooltip.obj
 0002:00008820       ?_messageEntries@CToolTipCtrl@@0QBUAFX_MSGMAP_ENTRY@@B 00478820     nafxcw:tooltip.obj
 0002:0000889c       ??_7CToolTipCtrl@@6B@      0047889c     nafxcw:tooltip.obj
 0002:00008958       ??_C@_0BB@FNBH@tooltips_class32?$AA@ 00478958     nafxcw:tooltip.obj
 0002:00008970       ?classCColorDialog@CColorDialog@@2UCRuntimeClass@@B 00478970     nafxcw:dlgclr.obj
 0002:00008988       ??_C@_0N@GCDM@CColorDialog?$AA@ 00478988     nafxcw:dlgclr.obj
 0002:00008998       ?messageMap@CColorDialog@@1UAFX_MSGMAP@@B 00478998     nafxcw:dlgclr.obj
 0002:000089a0       ?_messageEntries@CColorDialog@@0QBUAFX_MSGMAP_ENTRY@@B 004789a0     nafxcw:dlgclr.obj
 0002:000089d4       ??_7_AFX_COLOR_STATE@@6B@  004789d4     nafxcw:dlgclr.obj
 0002:000089dc       ??_7CColorDialog@@6B@      004789dc     nafxcw:dlgclr.obj
 0002:00008ab4       ??_7CArchiveStream@@6B@    00478ab4     nafxcw:arcstrm.obj
 0002:00008af0       ?classCObject@CObject@@2UCRuntimeClass@@B 00478af0     nafxcw:objcore.obj
 0002:00008b08       ??_C@_07EFMO@CObject?$AA@  00478b08     nafxcw:objcore.obj
 0002:00008b10       ??_C@_04CLNG@?4INI?$AA@    00478b10     nafxcw:appinit.obj
 0002:00008b18       ??_C@_04DMK@?4HLP?$AA@     00478b18     nafxcw:appinit.obj
 0002:00008b24       ??_7CHandleMap@@6B@        00478b24     nafxcw:winhand.obj
 0002:00008b28       ??_C@_06NILE@System?$AA@   00478b28     nafxcw:dlgtempl.obj
 0002:00008b30       ?messageMap@CCommonDialog@@1UAFX_MSGMAP@@B 00478b30     nafxcw:dlgcomm.obj
 0002:00008b38       ?_messageEntries@CCommonDialog@@0QBUAFX_MSGMAP_ENTRY@@B 00478b38     nafxcw:dlgcomm.obj
 0002:00008b68       ??_C@_0BE@PMME@commdlg_SetRGBColor?$AA@ 00478b68     nafxcw:dlgcomm.obj
 0002:00008b7c       ??_C@_0N@IIFK@commdlg_help?$AA@ 00478b7c     nafxcw:dlgcomm.obj
 0002:00008b8c       ??_C@_0BA@DHJO@commdlg_ColorOK?$AA@ 00478b8c     nafxcw:dlgcomm.obj
 0002:00008b9c       ??_C@_0BD@HNAP@commdlg_FileNameOK?$AA@ 00478b9c     nafxcw:dlgcomm.obj
 0002:00008bb0       ??_C@_0BH@KPHM@commdlg_ShareViolation?$AA@ 00478bb0     nafxcw:dlgcomm.obj
 0002:00008bc8       ??_C@_0BL@ODDK@commdlg_LBSelChangedNotify?$AA@ 00478bc8     nafxcw:dlgcomm.obj
 0002:00008be4       ??_C@_08LLFG@software?$AA@ 00478be4     nafxcw:appui3.obj
 0002:00008bf0       ?classCMapStringToPtr@CMapStringToPtr@@2UCRuntimeClass@@B 00478bf0     nafxcw:map_sp.obj
 0002:00008c08       ??_C@_0BA@PAMN@CMapStringToPtr?$AA@ 00478c08     nafxcw:map_sp.obj
 0002:00008c1c       ??_7CMapStringToPtr@@6B@   00478c1c     nafxcw:map_sp.obj
 0002:00008c38       ??_7type_info@@6B@         00478c38     libcmt:typinfo.obj
 0002:00008ca8       ??_C@_07CJME@H?3mm?3ss?$AA@ 00478ca8     libcmt:strftime.obj
 0002:00008cb0       ??_C@_0BE@MHI@dddd?0?5MMMM?5dd?0?5yyyy?$AA@ 00478cb0     libcmt:strftime.obj
 0002:00008cc4       ??_C@_06HCAD@M?1d?1yy?$AA@ 00478cc4     libcmt:strftime.obj
 0002:00008ccc       ??_C@_02DBLP@PM?$AA@       00478ccc     libcmt:strftime.obj
 0002:00008cd0       ??_C@_02ENLM@AM?$AA@       00478cd0     libcmt:strftime.obj
 0002:00008cd4       ??_C@_08LIDF@December?$AA@ 00478cd4     libcmt:strftime.obj
 0002:00008ce0       ??_C@_08NJLI@November?$AA@ 00478ce0     libcmt:strftime.obj
 0002:00008cec       ??_C@_07IAMM@October?$AA@  00478cec     libcmt:strftime.obj
 0002:00008cf4       ??_C@_09MKGD@September?$AA@ 00478cf4     libcmt:strftime.obj
 0002:00008d00       ??_C@_06PADP@August?$AA@   00478d00     libcmt:strftime.obj
 0002:00008d08       ??_C@_04PIJO@July?$AA@     00478d08     libcmt:strftime.obj
 0002:00008d10       ??_C@_04ICFP@June?$AA@     00478d10     libcmt:strftime.obj
 0002:00008d18       ??_C@_05JFGC@April?$AA@    00478d18     libcmt:strftime.obj
 0002:00008d20       ??_C@_05FGPD@March?$AA@    00478d20     libcmt:strftime.obj
 0002:00008d28       ??_C@_08PGBA@February?$AA@ 00478d28     libcmt:strftime.obj
 0002:00008d34       ??_C@_07BPKJ@January?$AA@  00478d34     libcmt:strftime.obj
 0002:00008d3c       ??_C@_03PGJO@Dec?$AA@      00478d3c     libcmt:strftime.obj
 0002:00008d40       ??_C@_03PDLM@Nov?$AA@      00478d40     libcmt:strftime.obj
 0002:00008d44       ??_C@_03BLHK@Oct?$AA@      00478d44     libcmt:strftime.obj
 0002:00008d48       ??_C@_03DPFM@Sep?$AA@      00478d48     libcmt:strftime.obj
 0002:00008d4c       ??_C@_03CMCH@Aug?$AA@      00478d4c     libcmt:strftime.obj
 0002:00008d50       ??_C@_03OBKI@Jul?$AA@      00478d50     libcmt:strftime.obj
 0002:00008d54       ??_C@_03LEIG@Jun?$AA@      00478d54     libcmt:strftime.obj
 0002:00008d58       ??_C@_03MGHB@May?$AA@      00478d58     libcmt:strftime.obj
 0002:00008d5c       ??_C@_03MJJM@Apr?$AA@      00478d5c     libcmt:strftime.obj
 0002:00008d60       ??_C@_03GNHA@Mar?$AA@      00478d60     libcmt:strftime.obj
 0002:00008d64       ??_C@_03PICE@Feb?$AA@      00478d64     libcmt:strftime.obj
 0002:00008d68       ??_C@_03IEIF@Jan?$AA@      00478d68     libcmt:strftime.obj
 0002:00008d6c       ??_C@_08FAKH@Saturday?$AA@ 00478d6c     libcmt:strftime.obj
 0002:00008d78       ??_C@_06ONCK@Friday?$AA@   00478d78     libcmt:strftime.obj
 0002:00008d80       ??_C@_08CCFO@Thursday?$AA@ 00478d80     libcmt:strftime.obj
 0002:00008d8c       ??_C@_09PBIN@Wednesday?$AA@ 00478d8c     libcmt:strftime.obj
 0002:00008d98       ??_C@_07BMBC@Tuesday?$AA@  00478d98     libcmt:strftime.obj
 0002:00008da0       ??_C@_06CHLK@Monday?$AA@   00478da0     libcmt:strftime.obj
 0002:00008da8       ??_C@_06OOEM@Sunday?$AA@   00478da8     libcmt:strftime.obj
 0002:00008db0       ??_C@_03MPKK@Sat?$AA@      00478db0     libcmt:strftime.obj
 0002:00008db4       ??_C@_03FINJ@Fri?$AA@      00478db4     libcmt:strftime.obj
 0002:00008db8       ??_C@_03HIKC@Thu?$AA@      00478db8     libcmt:strftime.obj
 0002:00008dbc       ??_C@_03HECK@Wed?$AA@      00478dbc     libcmt:strftime.obj
 0002:00008dc0       ??_C@_03ECCP@Tue?$AA@      00478dc0     libcmt:strftime.obj
 0002:00008dc4       ??_C@_03PIEP@Mon?$AA@      00478dc4     libcmt:strftime.obj
 0002:00008dc8       ??_C@_03FHEP@Sun?$AA@      00478dc8     libcmt:strftime.obj
 0002:00008e00       ??_C@_0BH@PHHF@__GLOBAL_HEAP_SELECTED?$AA@ 00478e00     libcmt:heapinit.obj
 0002:00008e18       ??_C@_0BF@BBGL@__MSVCRT_HEAP_SELECT?$AA@ 00478e18     libcmt:heapinit.obj
 0002:00008e30       ??_C@_0P@GGKG@runtime?5error?5?$AA@ 00478e30     libcmt:crt0msg.obj
 0002:00008e40       ??_C@_0O@DELO@TLOSS?5error?$AN?6?$AA@ 00478e40     libcmt:crt0msg.obj
 0002:00008e50       ??_C@_0N@OMLL@SING?5error?$AN?6?$AA@ 00478e50     libcmt:crt0msg.obj
 0002:00008e60       ??_C@_0P@OJAK@DOMAIN?5error?$AN?6?$AA@ 00478e60     libcmt:crt0msg.obj
 0002:00008e70       ??_C@_0CF@EANP@R6028?$AN?6?9?5unable?5to?5initialize?5he@ 00478e70     libcmt:crt0msg.obj
 0002:00008e98       ??_C@_0DF@ECGN@R6027?$AN?6?9?5not?5enough?5space?5for?5lo@ 00478e98     libcmt:crt0msg.obj
 0002:00008ed0       ??_C@_0DF@FKAC@R6026?$AN?6?9?5not?5enough?5space?5for?5st@ 00478ed0     libcmt:crt0msg.obj
 0002:00008f08       ??_C@_0CG@DPMN@R6025?$AN?6?9?5pure?5virtual?5function?5c@ 00478f08     libcmt:crt0msg.obj
 0002:00008f30       ??_C@_0DF@CKIP@R6024?$AN?6?9?5not?5enough?5space?5for?5_o@ 00478f30     libcmt:crt0msg.obj
 0002:00008f68       ??_C@_0CJ@GGOE@R6019?$AN?6?9?5unable?5to?5open?5console?5@ 00478f68     libcmt:crt0msg.obj
 0002:00008f94       ??_C@_0CB@LBOB@R6018?$AN?6?9?5unexpected?5heap?5error?$AN?6@ 00478f94     libcmt:crt0msg.obj
 0002:00008fb8       ??_C@_0CN@FPEG@R6017?$AN?6?9?5unexpected?5multithread?5@ 00478fb8     libcmt:crt0msg.obj
 0002:00008fe8       ??_C@_0CM@OBIC@R6016?$AN?6?9?5not?5enough?5space?5for?5th@ 00478fe8     libcmt:crt0msg.obj
 0002:00009014       ??_C@_0CB@HPAL@?$AN?6abnormal?5program?5termination?$AN?6@ 00479014     libcmt:crt0msg.obj
 0002:00009038       ??_C@_0CM@JOOB@R6009?$AN?6?9?5not?5enough?5space?5for?5en@ 00479038     libcmt:crt0msg.obj
 0002:00009064       ??_C@_0CK@OIBL@R6008?$AN?6?9?5not?5enough?5space?5for?5ar@ 00479064     libcmt:crt0msg.obj
 0002:00009090       ??_C@_0CF@LKPB@R6002?$AN?6?9?5floating?5point?5not?5load@ 00479090     libcmt:crt0msg.obj
 0002:000090b8       ??_C@_0CF@JPDF@Microsoft?5Visual?5C?$CL?$CL?5Runtime?5Lib@ 004790b8     libcmt:crt0msg.obj
 0002:000090e0       ??_C@_02JJJH@?6?6?$AA@     004790e0     libcmt:crt0msg.obj
 0002:000090e4       ??_C@_0BK@DEOK@Runtime?5Error?$CB?6?6Program?3?5?$AA@ 004790e4     libcmt:crt0msg.obj
 0002:00009100       ??_C@_0BH@NNCD@?$DMprogram?5name?5unknown?$DO?$AA@ 00479100     libcmt:crt0msg.obj
 0002:00009118       __real@8@4015800bf60000000000 00479118     libcmt:testfdiv.obj
 0002:00009120       __real@8@4014bffffc0000000000 00479120     libcmt:testfdiv.obj
 0002:00009128       ??_C@_0BK@JEGK@IsProcessorFeaturePresent?$AA@ 00479128     libcmt:testfdiv.obj
 0002:00009144       ??_C@_08OBID@KERNEL32?$AA@ 00479144     libcmt:testfdiv.obj
 0002:00009150       ??_C@_05OFLO@e?$CL000?$AA@ 00479150     libcmt:cvt.obj
 0002:00009168       __DEFAULT_CW_in_mem        00479168     libcmt:common.obj
 0002:0000916a       __pi_by_2_to_61            0047916a     libcmt:common.obj
 0002:000091a4       ??_C@_03GAFO@_yn?$AA@      004791a4     libcmt:fpexcept.obj
 0002:000091a8       ??_C@_03GNLD@_y1?$AA@      004791a8     libcmt:fpexcept.obj
 0002:000091ac       ??_C@_03MHCE@_y0?$AA@      004791ac     libcmt:fpexcept.obj
 0002:000091b0       ??_C@_05PAK@frexp?$AA@     004791b0     libcmt:fpexcept.obj
 0002:000091b8       ??_C@_04JKCH@fmod?$AA@     004791b8     libcmt:fpexcept.obj
 0002:000091c0       ??_C@_06GGHF@_hypot?$AA@   004791c0     libcmt:fpexcept.obj
 0002:000091c8       ??_C@_05JNMC@_cabs?$AA@    004791c8     libcmt:fpexcept.obj
 0002:000091d0       ??_C@_05MEKH@ldexp?$AA@    004791d0     libcmt:fpexcept.obj
 0002:000091d8       ??_C@_04KAOJ@modf?$AA@     004791d8     libcmt:fpexcept.obj
 0002:000091e0       ??_C@_04EHAJ@fabs?$AA@     004791e0     libcmt:fpexcept.obj
 0002:000091e8       ??_C@_05MFBN@floor?$AA@    004791e8     libcmt:fpexcept.obj
 0002:000091f0       ??_C@_04JJMP@ceil?$AA@     004791f0     libcmt:fpexcept.obj
 0002:000091f8       ??_C@_03JLPI@tan?$AA@      004791f8     libcmt:fpexcept.obj
 0002:000091fc       ??_C@_03DLFL@cos?$AA@      004791fc     libcmt:fpexcept.obj
 0002:00009200       ??_C@_03JAMN@sin?$AA@      00479200     libcmt:fpexcept.obj
 0002:00009204       ??_C@_04LMBE@sqrt?$AA@     00479204     libcmt:fpexcept.obj
 0002:0000920c       ??_C@_05BFPO@atan2?$AA@    0047920c     libcmt:fpexcept.obj
 0002:00009214       ??_C@_04EAGN@atan?$AA@     00479214     libcmt:fpexcept.obj
 0002:0000921c       ??_C@_04OAMO@acos?$AA@     0047921c     libcmt:fpexcept.obj
 0002:00009224       ??_C@_04ELFI@asin?$AA@     00479224     libcmt:fpexcept.obj
 0002:0000922c       ??_C@_04LFAD@tanh?$AA@     0047922c     libcmt:fpexcept.obj
 0002:00009234       ??_C@_04PFKD@cosh?$AA@     00479234     libcmt:fpexcept.obj
 0002:0000923c       ??_C@_04NPAI@sinh?$AA@     0047923c     libcmt:fpexcept.obj
 0002:00009244       ??_C@_05IJHH@log10?$AA@    00479244     libcmt:fpexcept.obj
 0002:0000924c       ??_C@_03BGKD@log?$AA@      0047924c     libcmt:fpexcept.obj
 0002:00009250       ??_C@_03EGFG@pow?$AA@      00479250     libcmt:fpexcept.obj
 0002:00009254       ??_C@_03CDGJ@exp?$AA@      00479254     libcmt:fpexcept.obj
 0002:00009308       ??_C@_01A@?$AA?$AA@        00479308     libcmt:a_map.obj
 0002:0000930c       ??_C@_13A@?$AA?$AA?$AA?$AA@ 0047930c     libcmt:a_map.obj
 0002:00009328       ___lookuptable             00479328     libcmt:output.obj
 0002:00009384       ??_C@_1O@POHA@?$AA?$CI?$AAn?$AAu?$AAl?$AAl?$AA?$CJ?$AA?$AA@ 00479384     libcmt:output.obj
 0002:00009394       ??_C@_06ONKE@?$CInull?$CJ?$AA@ 00479394     libcmt:output.obj
 0002:000093d4       ___dnames                  004793d4     libcmt:timeset.obj
 0002:000093ec       ___mnames                  004793ec     libcmt:timeset.obj
 0002:00009414       ??_C@_02JHIA@TZ?$AA@       00479414     libcmt:tzset.obj
 0002:00009418       ??_C@_0BD@NJFP@GetLastActivePopup?$AA@ 00479418     libcmt:crtmbox.obj
 0002:0000942c       ??_C@_0BA@GILI@GetActiveWindow?$AA@ 0047942c     libcmt:crtmbox.obj
 0002:0000943c       ??_C@_0M@PKCK@MessageBoxA?$AA@ 0047943c     libcmt:crtmbox.obj
 0002:00009448       ??_C@_0L@HKL@user32?4dll?$AA@ 00479448     libcmt:crtmbox.obj
 0002:00009470       ??_C@_06PAPI@1?$CDQNAN?$AA@ 00479470     libcmt:x10fout.obj
 0002:00009478       ??_C@_05BGNL@1?$CDINF?$AA@ 00479478     libcmt:x10fout.obj
 0002:00009480       ??_C@_05EDPF@1?$CDIND?$AA@ 00479480     libcmt:x10fout.obj
 0002:00009488       ??_C@_06LKFM@1?$CDSNAN?$AA@ 00479488     libcmt:x10fout.obj
 0002:00009494       ??_7length_error@std@@6B@  00479494     libcpmt:string.obj
 0002:000094a0       ??_C@_0BA@HHMB@string?5too?5long?$AA@ 004794a0     libcpmt:string.obj
 0002:000094b4       ??_7logic_error@std@@6B@   004794b4     libcpmt:string.obj
 0002:000094c0       ?npos@?$basic_string@DU?$char_traits@D@std@@V?$allocator@D@2@@std@@2IB 004794c0     libcpmt:string.obj
 0002:000094c4       ?_C@?1??_Nullstr@?$basic_string@DU?$char_traits@D@std@@V?$allocator@D@2@@std@@CAPBDXZ@4DB 004794c4     libcpmt:string.obj
 0002:000094cc       ??_7out_of_range@std@@6B@  004794cc     libcpmt:string.obj
 0002:000094d8       ??_C@_0BI@EEBE@invalid?5string?5position?$AA@ 004794d8     libcpmt:string.obj
 0002:000094f0       _IID_IPersistStreamInit    004794f0     uuid:ocidl_i_guid16.obj
 0002:00009500       _IID_IPersistStream        00479500     uuid:objidl_i_guid13.obj
 0002:00009510       _IID_IClassFactory         00479510     uuid:unknwn_i_guid1.obj
 0002:00009520       _IID_IPersistFile          00479520     uuid:objidl_i_guid21.obj
 0002:00009530       _IID_IViewObject2          00479530     uuid:oleidl_i_guid18.obj
 0002:00009540       _IID_IOleLink              00479540     uuid:oleidl_i_guid9.obj
 0002:00009550       _IID_IStream               00479550     uuid:objidl_i_guid18.obj
 0002:00009564       ??_7exception@@6B@         00479564     libcmt:stdexcpt.obj
 0002:0000956c       ??_C@_0BC@OIDF@Unknown?5exception?$AA@ 0047956c     libcmt:stdexcpt.obj
 0002:00009580       ??_R1A@?0A@A@CObject@@8    00479580     nafxcw:except.obj
 0002:00009598       ??_R1A@?0A@A@CException@@8 00479598     nafxcw:except.obj
 0002:000095b0       ??_R1A@?0A@A@CSimpleException@@8 004795b0     nafxcw:except.obj
 0002:000095c8       ??_R1A@?0A@A@CMemoryException@@8 004795c8     nafxcw:except.obj
 0002:000095e0       ??_R2CMemoryException@@8   004795e0     nafxcw:except.obj
 0002:000095f8       ??_R3CMemoryException@@8   004795f8     nafxcw:except.obj
 0002:00009608       ??_R4CMemoryException@@6B@ 00479608     nafxcw:except.obj
 0002:00009620       ??_R1A@?0A@A@CNotSupportedException@@8 00479620     nafxcw:except.obj
 0002:00009638       ??_R2CNotSupportedException@@8 00479638     nafxcw:except.obj
 0002:00009650       ??_R3CNotSupportedException@@8 00479650     nafxcw:except.obj
 0002:00009660       ??_R4CNotSupportedException@@6B@ 00479660     nafxcw:except.obj
 0002:00009678       ??_R1A@?0A@A@CFile@@8      00479678     nafxcw:filecore.obj
 0002:00009690       ??_R2CFile@@8              00479690     nafxcw:filecore.obj
 0002:000096a0       ??_R3CFile@@8              004796a0     nafxcw:filecore.obj
 0002:000096b0       ??_R4CFile@@6B@            004796b0     nafxcw:filecore.obj
 0002:000096c8       ??_R1A@?0A@A@CFileException@@8 004796c8     nafxcw:filecore.obj
 0002:000096e0       ??_R2CFileException@@8     004796e0     nafxcw:filecore.obj
 0002:000096f0       ??_R3CFileException@@8     004796f0     nafxcw:filecore.obj
 0002:00009700       ??_R4CFileException@@6B@   00479700     nafxcw:filecore.obj
 0002:00009718       ??_R1A@?0A@A@CMemFile@@8   00479718     nafxcw:filemem.obj
 0002:00009730       ??_R2CMemFile@@8           00479730     nafxcw:filemem.obj
 0002:00009740       ??_R3CMemFile@@8           00479740     nafxcw:filemem.obj
 0002:00009750       ??_R4CMemFile@@6B@         00479750     nafxcw:filemem.obj
 0002:00009768       ??_R1A@?0A@A@CDC@@8        00479768     nafxcw:wingdi.obj
 0002:00009780       ??_R2CDC@@8                00479780     nafxcw:wingdi.obj
 0002:00009790       ??_R3CDC@@8                00479790     nafxcw:wingdi.obj
 0002:000097a0       ??_R4CDC@@6B@              004797a0     nafxcw:wingdi.obj
 0002:000097b8       ??_R1A@?0A@A@CClientDC@@8  004797b8     nafxcw:wingdi.obj
 0002:000097d0       ??_R2CClientDC@@8          004797d0     nafxcw:wingdi.obj
 0002:000097e0       ??_R3CClientDC@@8          004797e0     nafxcw:wingdi.obj
 0002:000097f0       ??_R4CClientDC@@6B@        004797f0     nafxcw:wingdi.obj
 0002:00009808       ??_R1A@?0A@A@CWindowDC@@8  00479808     nafxcw:wingdi.obj
 0002:00009820       ??_R2CWindowDC@@8          00479820     nafxcw:wingdi.obj
 0002:00009830       ??_R3CWindowDC@@8          00479830     nafxcw:wingdi.obj
 0002:00009840       ??_R4CWindowDC@@6B@        00479840     nafxcw:wingdi.obj
 0002:00009858       ??_R1A@?0A@A@CPaintDC@@8   00479858     nafxcw:wingdi.obj
 0002:00009870       ??_R2CPaintDC@@8           00479870     nafxcw:wingdi.obj
 0002:00009880       ??_R3CPaintDC@@8           00479880     nafxcw:wingdi.obj
 0002:00009890       ??_R4CPaintDC@@6B@         00479890     nafxcw:wingdi.obj
 0002:000098a8       ??_R1A@?0A@A@CGdiObject@@8 004798a8     nafxcw:wingdi.obj
 0002:000098c0       ??_R1A@?0A@A@CPen@@8       004798c0     nafxcw:wingdi.obj
 0002:000098d8       ??_R2CPen@@8               004798d8     nafxcw:wingdi.obj
 0002:000098e8       ??_R3CPen@@8               004798e8     nafxcw:wingdi.obj
 0002:000098f8       ??_R4CPen@@6B@             004798f8     nafxcw:wingdi.obj
 0002:00009910       ??_R1A@?0A@A@CBrush@@8     00479910     nafxcw:wingdi.obj
 0002:00009928       ??_R2CBrush@@8             00479928     nafxcw:wingdi.obj
 0002:00009938       ??_R3CBrush@@8             00479938     nafxcw:wingdi.obj
 0002:00009948       ??_R4CBrush@@6B@           00479948     nafxcw:wingdi.obj
 0002:00009960       ??_R2CGdiObject@@8         00479960     nafxcw:wingdi.obj
 0002:00009970       ??_R3CGdiObject@@8         00479970     nafxcw:wingdi.obj
 0002:00009980       ??_R4CGdiObject@@6B@       00479980     nafxcw:wingdi.obj
 0002:00009998       ??_R1A@?0A@A@CTempDC@@8    00479998     nafxcw:wingdi.obj
 0002:000099b0       ??_R2CTempDC@@8            004799b0     nafxcw:wingdi.obj
 0002:000099c0       ??_R3CTempDC@@8            004799c0     nafxcw:wingdi.obj
 0002:000099d0       ??_R4CTempDC@@6B@          004799d0     nafxcw:wingdi.obj
 0002:000099e8       ??_R1A@?0A@A@CTempGdiObject@@8 004799e8     nafxcw:wingdi.obj
 0002:00009a00       ??_R2CTempGdiObject@@8     00479a00     nafxcw:wingdi.obj
 0002:00009a10       ??_R3CTempGdiObject@@8     00479a10     nafxcw:wingdi.obj
 0002:00009a20       ??_R4CTempGdiObject@@6B@   00479a20     nafxcw:wingdi.obj
 0002:00009a38       ??_R1A@?0A@A@CResourceException@@8 00479a38     nafxcw:wingdi.obj
 0002:00009a50       ??_R2CResourceException@@8 00479a50     nafxcw:wingdi.obj
 0002:00009a68       ??_R3CResourceException@@8 00479a68     nafxcw:wingdi.obj
 0002:00009a78       ??_R4CResourceException@@6B@ 00479a78     nafxcw:wingdi.obj
 0002:00009a90       ??_R1A@?0A@A@CUserException@@8 00479a90     nafxcw:wingdi.obj
 0002:00009aa8       ??_R2CUserException@@8     00479aa8     nafxcw:wingdi.obj
 0002:00009ac0       ??_R3CUserException@@8     00479ac0     nafxcw:wingdi.obj
 0002:00009ad0       ??_R4CUserException@@6B@   00479ad0     nafxcw:wingdi.obj
 0002:00009ae8       ??_R1A@?0A@A@CCmdTarget@@8 00479ae8     nafxcw:dlgcore.obj
 0002:00009b00       ??_R1A@?0A@A@CWnd@@8       00479b00     nafxcw:dlgcore.obj
 0002:00009b18       ??_R1A@?0A@A@CDialog@@8    00479b18     nafxcw:dlgcore.obj
 0002:00009b30       ??_R2CDialog@@8            00479b30     nafxcw:dlgcore.obj
 0002:00009b48       ??_R3CDialog@@8            00479b48     nafxcw:dlgcore.obj
 0002:00009b58       ??_R4CDialog@@6B@          00479b58     nafxcw:dlgcore.obj
 0002:00009b70       ??_R2CWnd@@8               00479b70     nafxcw:wincore.obj
 0002:00009b80       ??_R3CWnd@@8               00479b80     nafxcw:wincore.obj
 0002:00009b90       ??_R4CWnd@@6B@             00479b90     nafxcw:wincore.obj
 0002:00009ba8       ??_R1A@?0A@A@CCmdUI@@8     00479ba8     nafxcw:wincore.obj
 0002:00009bc0       ??_R1A@?0A@A@CTestCmdUI@@8 00479bc0     nafxcw:wincore.obj
 0002:00009bd8       ??_R2CTestCmdUI@@8         00479bd8     nafxcw:wincore.obj
 0002:00009be8       ??_R3CTestCmdUI@@8         00479be8     nafxcw:wincore.obj
 0002:00009bf8       ??_R4CTestCmdUI@@6B@       00479bf8     nafxcw:wincore.obj
 0002:00009c10       ??_R1A@?0A@A@CTempWnd@@8   00479c10     nafxcw:wincore.obj
 0002:00009c28       ??_R2CTempWnd@@8           00479c28     nafxcw:wincore.obj
 0002:00009c40       ??_R3CTempWnd@@8           00479c40     nafxcw:wincore.obj
 0002:00009c50       ??_R4CTempWnd@@6B@         00479c50     nafxcw:wincore.obj
 0002:00009c68       ??_R1A@?0A@A@CNoTrackObject@@8 00479c68     nafxcw:wincore.obj
 0002:00009c80       ??_R1A@?0A@A@_AFX_CTL3D_STATE@@8 00479c80     nafxcw:wincore.obj
 0002:00009c98       ??_R2_AFX_CTL3D_STATE@@8   00479c98     nafxcw:wincore.obj
 0002:00009ca8       ??_R3_AFX_CTL3D_STATE@@8   00479ca8     nafxcw:wincore.obj
 0002:00009cb8       ??_R4_AFX_CTL3D_STATE@@6B@ 00479cb8     nafxcw:wincore.obj
 0002:00009cd0       ??_R1A@?0A@A@CPtrArray@@8  00479cd0     nafxcw:array_p.obj
 0002:00009ce8       ??_R2CPtrArray@@8          00479ce8     nafxcw:array_p.obj
 0002:00009cf8       ??_R3CPtrArray@@8          00479cf8     nafxcw:array_p.obj
 0002:00009d08       ??_R4CPtrArray@@6B@        00479d08     nafxcw:array_p.obj
 0002:00009d20       ??_R1A@?0A@A@CStatic@@8    00479d20     nafxcw:winctrl1.obj
 0002:00009d38       ??_R2CStatic@@8            00479d38     nafxcw:winctrl1.obj
 0002:00009d50       ??_R3CStatic@@8            00479d50     nafxcw:winctrl1.obj
 0002:00009d60       ??_R4CStatic@@6B@          00479d60     nafxcw:winctrl1.obj
 0002:00009d78       ??_R1A@?0A@A@CButton@@8    00479d78     nafxcw:winctrl1.obj
 0002:00009d90       ??_R2CButton@@8            00479d90     nafxcw:winctrl1.obj
 0002:00009da8       ??_R3CButton@@8            00479da8     nafxcw:winctrl1.obj
 0002:00009db8       ??_R4CButton@@6B@          00479db8     nafxcw:winctrl1.obj
 0002:00009dd0       ??_R1A@?0A@A@CComboBox@@8  00479dd0     nafxcw:winctrl1.obj
 0002:00009de8       ??_R2CComboBox@@8          00479de8     nafxcw:winctrl1.obj
 0002:00009e00       ??_R3CComboBox@@8          00479e00     nafxcw:winctrl1.obj
 0002:00009e10       ??_R4CComboBox@@6B@        00479e10     nafxcw:winctrl1.obj
 0002:00009e28       ??_R1A@?0A@A@CEdit@@8      00479e28     nafxcw:winctrl1.obj
 0002:00009e40       ??_R2CEdit@@8              00479e40     nafxcw:winctrl1.obj
 0002:00009e58       ??_R3CEdit@@8              00479e58     nafxcw:winctrl1.obj
 0002:00009e68       ??_R4CEdit@@6B@            00479e68     nafxcw:winctrl1.obj
 0002:00009e80       ??_R1A@?0A@A@_AFX_CHECKLIST_STATE@@8 00479e80     nafxcw:winctrl3.obj
 0002:00009e98       ??_R2_AFX_CHECKLIST_STATE@@8 00479e98     nafxcw:winctrl3.obj
 0002:00009ea8       ??_R3_AFX_CHECKLIST_STATE@@8 00479ea8     nafxcw:winctrl3.obj
 0002:00009eb8       ??_R4_AFX_CHECKLIST_STATE@@6B@ 00479eb8     nafxcw:winctrl3.obj
 0002:00009ed0       ??_R1A@?0A@A@CBitmap@@8    00479ed0     nafxcw:winctrl3.obj
 0002:00009ee8       ??_R2CBitmap@@8            00479ee8     nafxcw:winctrl3.obj
 0002:00009ef8       ??_R3CBitmap@@8            00479ef8     nafxcw:winctrl3.obj
 0002:00009f08       ??_R4CBitmap@@6B@          00479f08     nafxcw:winctrl3.obj
 0002:00009f20       ??_R1A@?0A@A@CRgn@@8       00479f20     nafxcw:wingdix.obj
 0002:00009f38       ??_R2CRgn@@8               00479f38     nafxcw:wingdix.obj
 0002:00009f48       ??_R3CRgn@@8               00479f48     nafxcw:wingdix.obj
 0002:00009f58       ??_R4CRgn@@6B@             00479f58     nafxcw:wingdix.obj
 0002:00009f70       ??_R1A@?0A@A@CCommonDialog@@8 00479f70     nafxcw:dlgprnt.obj
 0002:00009f88       ??_R1A@?0A@A@CFileDialog@@8 00479f88     nafxcw:dlgfile.obj
 0002:00009fa0       ??_R2CFileDialog@@8        00479fa0     nafxcw:dlgfile.obj
 0002:00009fc0       ??_R3CFileDialog@@8        00479fc0     nafxcw:dlgfile.obj
 0002:00009fd0       ??_R4CFileDialog@@6B@      00479fd0     nafxcw:dlgfile.obj
 0002:00009fe8       ??_R1A@?0A@A@_AFX_THREAD_STATE@@8 00479fe8     nafxcw:afxstate.obj
 0002:0000a000       ??_R2_AFX_THREAD_STATE@@8  0047a000     nafxcw:afxstate.obj
 0002:0000a010       ??_R3_AFX_THREAD_STATE@@8  0047a010     nafxcw:afxstate.obj
 0002:0000a020       ??_R4_AFX_THREAD_STATE@@6B@ 0047a020     nafxcw:afxstate.obj
 0002:0000a038       ??_R1A@?0A@A@AFX_MODULE_STATE@@8 0047a038     nafxcw:afxstate.obj
 0002:0000a050       ??_R2AFX_MODULE_STATE@@8   0047a050     nafxcw:afxstate.obj
 0002:0000a060       ??_R3AFX_MODULE_STATE@@8   0047a060     nafxcw:afxstate.obj
 0002:0000a070       ??_R4AFX_MODULE_STATE@@6B@ 0047a070     nafxcw:afxstate.obj
 0002:0000a088       ??_R1A@?0A@A@AFX_MODULE_THREAD_STATE@@8 0047a088     nafxcw:afxstate.obj
 0002:0000a0a0       ??_R2AFX_MODULE_THREAD_STATE@@8 0047a0a0     nafxcw:afxstate.obj
 0002:0000a0b0       ??_R3AFX_MODULE_THREAD_STATE@@8 0047a0b0     nafxcw:afxstate.obj
 0002:0000a0c0       ??_R4AFX_MODULE_THREAD_STATE@@6B@ 0047a0c0     nafxcw:afxstate.obj
 0002:0000a0d8       ??_R1A@?0A@A@_AFX_BASE_MODULE_STATE@@8 0047a0d8     nafxcw:afxstate.obj
 0002:0000a0f0       ??_R2_AFX_BASE_MODULE_STATE@@8 0047a0f0     nafxcw:afxstate.obj
 0002:0000a100       ??_R3_AFX_BASE_MODULE_STATE@@8 0047a100     nafxcw:afxstate.obj
 0002:0000a110       ??_R4_AFX_BASE_MODULE_STATE@@6B@ 0047a110     nafxcw:afxstate.obj
 0002:0000a128       ??_R1A@?0A@A@CStringArray@@8 0047a128     nafxcw:array_s.obj
 0002:0000a140       ??_R2CStringArray@@8       0047a140     nafxcw:array_s.obj
 0002:0000a150       ??_R3CStringArray@@8       0047a150     nafxcw:array_s.obj
 0002:0000a160       ??_R4CStringArray@@6B@     0047a160     nafxcw:array_s.obj
 0002:0000a178       ??_R1A@?0A@A@CThreadData@@8 0047a178     nafxcw:afxtls.obj
 0002:0000a190       ??_R2CThreadData@@8        0047a190     nafxcw:afxtls.obj
 0002:0000a1a0       ??_R3CThreadData@@8        0047a1a0     nafxcw:afxtls.obj
 0002:0000a1b0       ??_R4CThreadData@@6B@      0047a1b0     nafxcw:afxtls.obj
 0002:0000a1c8       ??_R1A@?0A@A@_AFX_WIN_STATE@@8 0047a1c8     nafxcw:appcore.obj
 0002:0000a1e0       ??_R2_AFX_WIN_STATE@@8     0047a1e0     nafxcw:appcore.obj
 0002:0000a1f0       ??_R3_AFX_WIN_STATE@@8     0047a1f0     nafxcw:appcore.obj
 0002:0000a200       ??_R4_AFX_WIN_STATE@@6B@   0047a200     nafxcw:appcore.obj
 0002:0000a218       ??_R1A@?0A@A@CWinThread@@8 0047a218     nafxcw:appcore.obj
 0002:0000a230       ??_R1A@?0A@A@CWinApp@@8    0047a230     nafxcw:appcore.obj
 0002:0000a248       ??_R2CWinApp@@8            0047a248     nafxcw:appcore.obj
 0002:0000a260       ??_R3CWinApp@@8            0047a260     nafxcw:appcore.obj
 0002:0000a270       ??_R4CWinApp@@6B@          0047a270     nafxcw:appcore.obj
 0002:0000a288       ??_R1A@?0A@A@CListCtrl@@8  0047a288     nafxcw:winctrl2.obj
 0002:0000a2a0       ??_R2CListCtrl@@8          0047a2a0     nafxcw:winctrl2.obj
 0002:0000a2b8       ??_R3CListCtrl@@8          0047a2b8     nafxcw:winctrl2.obj
 0002:0000a2c8       ??_R4CListCtrl@@6B@        0047a2c8     nafxcw:winctrl2.obj
 0002:0000a2e0       ??_R1A@?0A@A@CProgressCtrl@@8 0047a2e0     nafxcw:winctrl2.obj
 0002:0000a2f8       ??_R2CProgressCtrl@@8      0047a2f8     nafxcw:winctrl2.obj
 0002:0000a310       ??_R3CProgressCtrl@@8      0047a310     nafxcw:winctrl2.obj
 0002:0000a320       ??_R4CProgressCtrl@@6B@    0047a320     nafxcw:winctrl2.obj
 0002:0000a338       ??_R1A@?0A@A@CImageList@@8 0047a338     nafxcw:winctrl2.obj
 0002:0000a350       ??_R2CImageList@@8         0047a350     nafxcw:winctrl2.obj
 0002:0000a360       ??_R3CImageList@@8         0047a360     nafxcw:winctrl2.obj
 0002:0000a370       ??_R4CImageList@@6B@       0047a370     nafxcw:winctrl2.obj
 0002:0000a388       ??_R1A@?0A@A@CTempImageList@@8 0047a388     nafxcw:winctrl2.obj
 0002:0000a3a0       ??_R2CTempImageList@@8     0047a3a0     nafxcw:winctrl2.obj
 0002:0000a3b0       ??_R3CTempImageList@@8     0047a3b0     nafxcw:winctrl2.obj
 0002:0000a3c0       ??_R4CTempImageList@@6B@   0047a3c0     nafxcw:winctrl2.obj
 0002:0000a3d8       ??_R1A@?0A@A@CArchiveException@@8 0047a3d8     nafxcw:arcex.obj
 0002:0000a3f0       ??_R2CArchiveException@@8  0047a3f0     nafxcw:arcex.obj
 0002:0000a400       ??_R3CArchiveException@@8  0047a400     nafxcw:arcex.obj
 0002:0000a410       ??_R4CArchiveException@@6B@ 0047a410     nafxcw:arcex.obj
 0002:0000a428       ??_R1A@?0A@A@CSharedFile@@8 0047a428     nafxcw:fileshrd.obj
 0002:0000a440       ??_R2CSharedFile@@8        0047a440     nafxcw:fileshrd.obj
 0002:0000a458       ??_R3CSharedFile@@8        0047a458     nafxcw:fileshrd.obj
 0002:0000a468       ??_R4CSharedFile@@6B@      0047a468     nafxcw:fileshrd.obj
 0002:0000a47c       ??_R2CCmdUI@@8             0047a47c     nafxcw:cmdtarg.obj
 0002:0000a488       ??_R3CCmdUI@@8             0047a488     nafxcw:cmdtarg.obj
 0002:0000a498       ??_R4CCmdUI@@6B@           0047a498     nafxcw:cmdtarg.obj
 0002:0000a4b0       ??_R1A@?0A@A@CFontDialog@@8 0047a4b0     nafxcw:dlgfnt.obj
 0002:0000a4c8       ??_R2CFontDialog@@8        0047a4c8     nafxcw:dlgfnt.obj
 0002:0000a4e8       ??_R3CFontDialog@@8        0047a4e8     nafxcw:dlgfnt.obj
 0002:0000a4f8       ??_R4CFontDialog@@6B@      0047a4f8     nafxcw:dlgfnt.obj
 0002:0000a510       ??_R2CWinThread@@8         0047a510     nafxcw:thrdcore.obj
 0002:0000a520       ??_R3CWinThread@@8         0047a520     nafxcw:thrdcore.obj
 0002:0000a530       ??_R4CWinThread@@6B@       0047a530     nafxcw:thrdcore.obj
 0002:0000a548       ??_R1A@?0A@A@_AFX_CTL3D_THREAD@@8 0047a548     nafxcw:thrdcore.obj
 0002:0000a560       ??_R2_AFX_CTL3D_THREAD@@8  0047a560     nafxcw:thrdcore.obj
 0002:0000a570       ??_R3_AFX_CTL3D_THREAD@@8  0047a570     nafxcw:thrdcore.obj
 0002:0000a580       ??_R4_AFX_CTL3D_THREAD@@6B@ 0047a580     nafxcw:thrdcore.obj
 0002:0000a598       ??_R1A@?0A@A@CMenu@@8      0047a598     nafxcw:winmenu.obj
 0002:0000a5b0       ??_R2CMenu@@8              0047a5b0     nafxcw:winmenu.obj
 0002:0000a5c0       ??_R3CMenu@@8              0047a5c0     nafxcw:winmenu.obj
 0002:0000a5d0       ??_R4CMenu@@6B@            0047a5d0     nafxcw:winmenu.obj
 0002:0000a5e8       ??_R1A@?0A@A@CTempMenu@@8  0047a5e8     nafxcw:winmenu.obj
 0002:0000a600       ??_R2CTempMenu@@8          0047a600     nafxcw:winmenu.obj
 0002:0000a610       ??_R3CTempMenu@@8          0047a610     nafxcw:winmenu.obj
 0002:0000a620       ??_R4CTempMenu@@6B@        0047a620     nafxcw:winmenu.obj
 0002:0000a638       ??_R1A@?0A@A@CDWordArray@@8 0047a638     nafxcw:array_d.obj
 0002:0000a650       ??_R2CDWordArray@@8        0047a650     nafxcw:array_d.obj
 0002:0000a660       ??_R3CDWordArray@@8        0047a660     nafxcw:array_d.obj
 0002:0000a670       ??_R4CDWordArray@@6B@      0047a670     nafxcw:array_d.obj
 0002:0000a688       ??_R1A@?0A@A@CWordArray@@8 0047a688     nafxcw:array_w.obj
 0002:0000a6a0       ??_R2CWordArray@@8         0047a6a0     nafxcw:array_w.obj
 0002:0000a6b0       ??_R3CWordArray@@8         0047a6b0     nafxcw:array_w.obj
 0002:0000a6c0       ??_R4CWordArray@@6B@       0047a6c0     nafxcw:array_w.obj
 0002:0000a6d8       ??_R1A@?0A@A@CMapPtrToPtr@@8 0047a6d8     nafxcw:map_pp.obj
 0002:0000a6f0       ??_R2CMapPtrToPtr@@8       0047a6f0     nafxcw:map_pp.obj
 0002:0000a700       ??_R3CMapPtrToPtr@@8       0047a700     nafxcw:map_pp.obj
 0002:0000a710       ??_R4CMapPtrToPtr@@6B@     0047a710     nafxcw:map_pp.obj
 0002:0000a728       ??_R1A@?0A@A@CToolTipCtrl@@8 0047a728     nafxcw:tooltip.obj
 0002:0000a740       ??_R2CToolTipCtrl@@8       0047a740     nafxcw:tooltip.obj
 0002:0000a758       ??_R3CToolTipCtrl@@8       0047a758     nafxcw:tooltip.obj
 0002:0000a768       ??_R4CToolTipCtrl@@6B@     0047a768     nafxcw:tooltip.obj
 0002:0000a780       ??_R1A@?0A@A@_AFX_COLOR_STATE@@8 0047a780     nafxcw:dlgclr.obj
 0002:0000a798       ??_R2_AFX_COLOR_STATE@@8   0047a798     nafxcw:dlgclr.obj
 0002:0000a7a8       ??_R3_AFX_COLOR_STATE@@8   0047a7a8     nafxcw:dlgclr.obj
 0002:0000a7b8       ??_R4_AFX_COLOR_STATE@@6B@ 0047a7b8     nafxcw:dlgclr.obj
 0002:0000a7d0       ??_R1A@?0A@A@CColorDialog@@8 0047a7d0     nafxcw:dlgclr.obj
 0002:0000a7e8       ??_R2CColorDialog@@8       0047a7e8     nafxcw:dlgclr.obj
 0002:0000a808       ??_R3CColorDialog@@8       0047a808     nafxcw:dlgclr.obj
 0002:0000a818       ??_R4CColorDialog@@6B@     0047a818     nafxcw:dlgclr.obj
 0002:0000a830       ??_R1A@?0A@A@IUnknown@@8   0047a830     nafxcw:arcstrm.obj
 0002:0000a848       ??_R1A@?0A@A@ISequentialStream@@8 0047a848     nafxcw:arcstrm.obj
 0002:0000a860       ??_R1A@?0A@A@IStream@@8    0047a860     nafxcw:arcstrm.obj
 0002:0000a878       ??_R1A@?0A@A@CArchiveStream@@8 0047a878     nafxcw:arcstrm.obj
 0002:0000a890       ??_R2CArchiveStream@@8     0047a890     nafxcw:arcstrm.obj
 0002:0000a8a8       ??_R3CArchiveStream@@8     0047a8a8     nafxcw:arcstrm.obj
 0002:0000a8b8       ??_R4CArchiveStream@@6B@   0047a8b8     nafxcw:arcstrm.obj
 0002:0000a8d0       ??_R1A@?0A@A@CHandleMap@@8 0047a8d0     nafxcw:winhand.obj
 0002:0000a8e8       ??_R2CHandleMap@@8         0047a8e8     nafxcw:winhand.obj
 0002:0000a8f0       ??_R3CHandleMap@@8         0047a8f0     nafxcw:winhand.obj
 0002:0000a900       ??_R4CHandleMap@@6B@       0047a900     nafxcw:winhand.obj
 0002:0000a918       ??_R1A@?0A@A@CMapStringToPtr@@8 0047a918     nafxcw:map_sp.obj
 0002:0000a930       ??_R2CMapStringToPtr@@8    0047a930     nafxcw:map_sp.obj
 0002:0000a940       ??_R3CMapStringToPtr@@8    0047a940     nafxcw:map_sp.obj
 0002:0000a950       ??_R4CMapStringToPtr@@6B@  0047a950     nafxcw:map_sp.obj
 0002:0000a968       ??_R1A@?0A@A@type_info@@8  0047a968     libcmt:typinfo.obj
 0002:0000a980       ??_R2type_info@@8          0047a980     libcmt:typinfo.obj
 0002:0000a988       ??_R3type_info@@8          0047a988     libcmt:typinfo.obj
 0002:0000a998       ??_R4type_info@@6B@        0047a998     libcmt:typinfo.obj
 0002:0000a9b0       ??_R1A@?0A@A@exception@@8  0047a9b0     libcpmt:string.obj
 0002:0000a9c8       ??_R1A@?0A@A@logic_error@std@@8 0047a9c8     libcpmt:string.obj
 0002:0000a9e0       ??_R1A@?0A@A@length_error@std@@8 0047a9e0     libcpmt:string.obj
 0002:0000a9f8       ??_R2length_error@std@@8   0047a9f8     libcpmt:string.obj
 0002:0000aa08       ??_R3length_error@std@@8   0047aa08     libcpmt:string.obj
 0002:0000aa18       ??_R4length_error@std@@6B@ 0047aa18     libcpmt:string.obj
 0002:0000aa30       ??_R2logic_error@std@@8    0047aa30     libcpmt:string.obj
 0002:0000aa40       ??_R3logic_error@std@@8    0047aa40     libcpmt:string.obj
 0002:0000aa50       ??_R4logic_error@std@@6B@  0047aa50     libcpmt:string.obj
 0002:0000aa68       ??_R1A@?0A@A@out_of_range@std@@8 0047aa68     libcpmt:string.obj
 0002:0000aa80       ??_R2out_of_range@std@@8   0047aa80     libcpmt:string.obj
 0002:0000aa90       ??_R3out_of_range@std@@8   0047aa90     libcpmt:string.obj
 0002:0000aaa0       ??_R4out_of_range@std@@6B@ 0047aaa0     libcpmt:string.obj
 0002:0000aab4       ??_R2exception@@8          0047aab4     libcmt:stdexcpt.obj
 0002:0000aac0       ??_R3exception@@8          0047aac0     libcmt:stdexcpt.obj
 0002:0000aad0       ??_R4exception@@6B@        0047aad0     libcmt:stdexcpt.obj
 0002:0000f038       __CT??_R0PAX@84            0047f038     nafxcw:except.obj
 0002:0000f058       __CT??_R0PAVCObject@@@84   0047f058     nafxcw:except.obj
 0002:0000f078       __CT??_R0PAVCException@@@84 0047f078     nafxcw:except.obj
 0002:0000f098       __CT??_R0PAVCSimpleException@@@84 0047f098     nafxcw:except.obj
 0002:0000f0b8       __CT??_R0PAVCMemoryException@@@84 0047f0b8     nafxcw:except.obj
 0002:0000f0d8       __CTA5PAVCMemoryException@@ 0047f0d8     nafxcw:except.obj
 0002:0000f0f0       __TI5PAVCMemoryException@@ 0047f0f0     nafxcw:except.obj
 0002:0000f100       __CT??_R0PAVCNotSupportedException@@@84 0047f100     nafxcw:except.obj
 0002:0000f120       __CTA5PAVCNotSupportedException@@ 0047f120     nafxcw:except.obj
 0002:0000f138       __TI5PAVCNotSupportedException@@ 0047f138     nafxcw:except.obj
 0002:0000f3d0       __CT??_R0PAVCResourceException@@@84 0047f3d0     nafxcw:wingdi.obj
 0002:0000f3f0       __CTA5PAVCResourceException@@ 0047f3f0     nafxcw:wingdi.obj
 0002:0000f408       __TI5PAVCResourceException@@ 0047f408     nafxcw:wingdi.obj
 0002:0000fcc0       __CT??_R0PAVCArchiveException@@@84 0047fcc0     nafxcw:arcex.obj
 0002:0000fce0       __CTA4PAVCArchiveException@@ 0047fce0     nafxcw:arcex.obj
 0002:0000fcf8       __TI4PAVCArchiveException@@ 0047fcf8     nafxcw:arcex.obj
 0002:0000ff50       __CT??_R0PAVCFileException@@@84 0047ff50     nafxcw:filex.obj
 0002:0000ff70       __CTA4PAVCFileException@@  0047ff70     nafxcw:filex.obj
 0002:0000ff88       __TI4PAVCFileException@@   0047ff88     nafxcw:filex.obj
 0002:00010360       __CT??_R0?AVexception@@@8??0exception@@QAE@ABV0@@Z12 00480360     libcpmt:string.obj
 0002:00010380       __CT??_R0?AVlogic_error@std@@@8??0logic_error@std@@QAE@ABV01@@Z28 00480380     libcpmt:string.obj
 0002:000103a0       __CT??_R0?AVlength_error@std@@@8??0length_error@std@@QAE@ABV01@@Z28 004803a0     libcpmt:string.obj
 0002:000103c0       __CTA3?AVlength_error@std@@ 004803c0     libcpmt:string.obj
 0002:000103d0       __TI3?AVlength_error@std@@ 004803d0     libcpmt:string.obj
 0002:00010430       __CTA2?AVlogic_error@std@@ 00480430     libcpmt:string.obj
 0002:00010440       __TI2?AVlogic_error@std@@  00480440     libcpmt:string.obj
 0002:000104c8       __CT??_R0?AVout_of_range@std@@@8??0out_of_range@std@@QAE@ABV01@@Z28 004804c8     libcpmt:string.obj
 0002:000104e8       __CTA3?AVout_of_range@std@@ 004804e8     libcpmt:string.obj
 0002:000104f8       __TI3?AVout_of_range@std@@ 004804f8     libcpmt:string.obj
 0002:000105b0       __IMPORT_DESCRIPTOR_KERNEL32 004805b0     kernel32:KERNEL32.dll
 0002:000105c4       __IMPORT_DESCRIPTOR_USER32 004805c4     user32:USER32.dll
 0002:000105d8       __IMPORT_DESCRIPTOR_GDI32  004805d8     gdi32:GDI32.dll
 0002:000105ec       __IMPORT_DESCRIPTOR_WINMM  004805ec     winmm:WINMM.dll
 0002:00010600       __IMPORT_DESCRIPTOR_WINSPOOL 00480600     winspool:WINSPOOL.DRV
 0002:00010614       __IMPORT_DESCRIPTOR_ADVAPI32 00480614     advapi32:ADVAPI32.dll
 0002:00010628       __IMPORT_DESCRIPTOR_SHELL32 00480628     shell32:SHELL32.dll
 0002:0001063c       __IMPORT_DESCRIPTOR_ole32  0048063c     ole32:ole32.dll
 0002:00010650       __IMPORT_DESCRIPTOR_OLEAUT32 00480650     oleaut32:OLEAUT32.dll
 0002:00010664       __IMPORT_DESCRIPTOR_COMCTL32 00480664     comctl32:COMCTL32.dll
 0002:00010678       __IMPORT_DESCRIPTOR_WS2_32 00480678     Ws2_32:WS2_32.dll
 0002:0001068c       __IMPORT_DESCRIPTOR_WLDAP32 0048068c     Wldap32:WLDAP32.dll
 0002:000106a0       __IMPORT_DESCRIPTOR_comdlg32 004806a0     comdlg32:comdlg32.dll
 0002:000106b4       __NULL_IMPORT_DESCRIPTOR   004806b4     kernel32:KERNEL32.dll
 0003:00000000       ___xc_a                    00483000     libcmt:crt0init.obj
 0003:000000b8       ___xc_z                    004830b8     libcmt:crt0init.obj
 0003:000000bc       ___xi_a                    004830bc     libcmt:crt0init.obj
 0003:000000d0       ___xi_z                    004830d0     libcmt:crt0init.obj
 0003:000000d4       ___xp_a                    004830d4     libcmt:crt0init.obj
 0003:000000e0       ___xp_z                    004830e0     libcmt:crt0init.obj
 0003:000000e4       ___xt_a                    004830e4     libcmt:crt0init.obj
 0003:000000ec       ___xt_z                    004830ec     libcmt:crt0init.obj
 0003:00000114       ?s_szFTHZNum@@3PADA        00483114     krnln_static:Libfn.obj
 0003:00000118       ?s_szFTUnit@@3PADA         00483118     krnln_static:Libfn.obj
 0003:0000011c       ?s_szJTHZNum@@3PADA        0048311c     krnln_static:Libfn.obj
 0003:00000120       ?s_szJTUnit@@3PADA         00483120     krnln_static:Libfn.obj
 0003:00000128       ?s_szYuan@@3PADA           00483128     krnln_static:Libfn.obj
 0003:00000138       ??_C@_02NHBL@?T?$KK?$AA@   00483138     krnln_static:Libfn.obj
 0003:0000013c       ??_C@_02OFKJ@?$LF?c?$AA@   0048313c     krnln_static:Libfn.obj
 0003:00000140       ??_C@_0BJ@MDDD@?J?$KO?$LA?Y?G?$KH?M?r?J?$KO?$LA?Y?G?$KH?R?Z?J?$KO?$LA?Y?G?$KH?M?r?$AA@ 00483140     krnln_static:Libfn.obj
 0003:0000015c       ??_C@_0BF@ICHP@?A?c?R?$LL?$LG?$PO?H?$PN?K?D?N?e?A?y?F?$NP?$LA?K?$LO?E?$AA@ 0048315c     krnln_static:Libfn.obj
 0003:00000174       ??_C@_0BJ@MIBB@?J?$LA?$LA?$NL?G?$KK?M?r?J?$LA?$LA?$NL?G?$KK?R?Z?J?$LA?$LA?$NL?G?$KK?M?r?$AA@ 00483174     krnln_static:Libfn.obj
 0003:00000190       ??_C@_0BF@NNMA@?A?c?R?$LM?$LH?$KB?H?$PO?K?A?N?i?B?$LN?F?b?$LA?F?$LO?A?$AA@ 00483190     krnln_static:Libfn.obj
 0003:000001a8       ??_C@_01KMAE@?0?$AA@       004831a8     krnln_static:Libfn.obj
 0003:000001ac       ??_C@_02MHMJ@?$CFu?$AA@    004831ac     krnln_static:Libfn.obj
 0003:000001b0       ??_C@_0N@KPIP@?$CFd?D?j?$CFd?T?B?$CFd?H?U?$AA@ 004831b0     krnln_static:Libfn.obj
 0003:000001c0       ??_C@_0N@CNNM@?$CFd?J?$LB?$CFd?$LH?V?$CFd?C?k?$AA@ 004831c0     krnln_static:Libfn.obj
 0003:000001d0       ??_C@_01PCFE@?2?$AA@       004831d0     krnln_static:Libfn.obj
 0003:000001d8       ??_R0PAVCException@@@8     004831d8     krnln_static:Libfn.obj
 0003:000001f8       ??_R0PAVCNotSupportedException@@@8 004831f8     krnln_static:Libfn.obj
 0003:00000220       ??_R0PAVCFileException@@@8 00483220     krnln_static:Libfn.obj
 0003:00000240       ??_C@_06BDDJ@?P?E?O?$KC?$KD?$LK?$AA@ 00483240     krnln_static:Libfn.obj
 0003:00000248       ??_C@_01FJFF@W?$AA@        00483248     krnln_static:Libfn.obj
 0003:0000024c       ??_C@_0L@JKLA@?$CFs?5?I?O?$LF?D?5?$CFs?$AA@ 0048324c     krnln_static:Libfn.obj
 0003:00000258       ??_C@_03ICPE@prn?$AA@      00483258     krnln_static:Libfn.obj
 0003:0000025c       ??_C@_0DA@LJPP@?$LE?r?S?$KB?J?d?$LD?v?N?D?$LM?$PO?5?$CI?$CK?4prn?$CJ?$HM?$CK?4prn?$HM?K?y?S?P?N@ 0048325c     krnln_static:Libfn.obj
 0003:0000028c       ??_C@_01FAJB@?$DL?$AA@     0048328c     krnln_static:Libfn.obj
 0003:00000290       ??_C@_02PIMC@?$AN?6?$AA@   00483290     krnln_static:Libfn.obj
 0003:00000294       ??_C@_02FKBE@?$HM?$HM?$AA@ 00483294     krnln_static:Libfn.obj
 0003:00000298       ??_C@_0P@MNDP@?V?$LI?$LG?$KI?W?V?$LG?N?$LC?$LL?$LE?f?T?Z?$AA@ 00483298     krnln_static:Libfn.obj
 0003:000002ac       ?g_szErrText@@3PAPBDA      004832ac     krnln_static:krnl2.obj
 0003:000002d8       ?g_EditProperty@@3PAUUNIT_PROPERTY@@A 004832d8     krnln_static:krnl2.obj
 0003:00000520       ?g_TabProperty@@3PAUUNIT_PROPERTY@@A 00483520     krnln_static:krnl2.obj
 0003:00000660       ?g_LabelProperty@@3PAUUNIT_PROPERTY@@A 00483660     krnln_static:krnl2.obj
 0003:000008a8       ?g_PicBoxProperty@@3PAUUNIT_PROPERTY@@A 004838a8     krnln_static:krnl2.obj
 0003:000009d8       ?g_ShapeBoxProperty@@3PAUUNIT_PROPERTY@@A 004839d8     krnln_static:krnl2.obj
 0003:00000b08       ?g_GroupBoxProperty@@3PAUUNIT_PROPERTY@@A 00483b08     krnln_static:krnl2.obj
 0003:00000c10       ?g_ButtonProperty@@3PAUUNIT_PROPERTY@@A 00483c10     krnln_static:krnl2.obj
 0003:00000d28       ?g_HScrollBarProperty@@3PAUUNIT_PROPERTY@@A 00483d28     krnln_static:krnl2.obj
 0003:00000e40       ?g_VScrollBarProperty@@3PAUUNIT_PROPERTY@@A 00483e40     krnln_static:krnl2.obj
 0003:00000f58       ?g_ProcessBarProperty@@3PAUUNIT_PROPERTY@@A 00483f58     krnln_static:krnl2.obj
 0003:00001070       ?g_SliderBarProperty@@3PAUUNIT_PROPERTY@@A 00484070     krnln_static:krnl2.obj
 0003:00001200       ?g_AnimateProperty@@3PAUUNIT_PROPERTY@@A 00484200     krnln_static:krnl2.obj
 0003:00001308       ?g_DateTimePickerProperty@@3PAUUNIT_PROPERTY@@A 00484308     krnln_static:krnl2.obj
 0003:00001460       ?g_MonthCalCtrlProperty@@3PAUUNIT_PROPERTY@@A 00484460     krnln_static:krnl2.obj
 0003:00001690       ?g_DrvBoxProperty@@3PAUUNIT_PROPERTY@@A 00484690     krnln_static:krnl2.obj
 0003:00001798       ?g_DirTreeProperty@@3PAUUNIT_PROPERTY@@A 00484798     krnln_static:krnl2.obj
 0003:00001888       ?g_FileBoxProperty@@3PAUUNIT_PROPERTY@@A 00484888     krnln_static:krnl2.obj
 0003:00001a58       ?g_ColorPickerProperty@@3PAUUNIT_PROPERTY@@A 00484a58     krnln_static:krnl2.obj
 0003:00001b20       ?g_HyperLinkerProperty@@3PAUUNIT_PROPERTY@@A 00484b20     krnln_static:krnl2.obj
 0003:00001c88       ?g_SpinProperty@@3PAUUNIT_PROPERTY@@A 00484c88     krnln_static:krnl2.obj
 0003:00001d50       ?g_TimerProperty@@3PAUUNIT_PROPERTY@@A 00484d50     krnln_static:krnl2.obj
 0003:00001e08       ?g_CommonDlgProperty@@3PAUUNIT_PROPERTY@@A 00484e08     krnln_static:krnl2.obj
 0003:00002060       ?g_CheckBoxProperty@@3PAUUNIT_PROPERTY@@A 00485060     krnln_static:krnl2.obj
 0003:00002208       ?g_RadioProperty@@3PAUUNIT_PROPERTY@@A 00485208     krnln_static:krnl2.obj
 0003:00002388       ?g_ComboBoxProperty@@3PAUUNIT_PROPERTY@@A 00485388     krnln_static:krnl2.obj
 0003:00002580       ?g_ListBoxProperty@@3PAUUNIT_PROPERTY@@A 00485580     krnln_static:krnl2.obj
 0003:00002738       ?g_ChkListBoxProperty@@3PAUUNIT_PROPERTY@@A 00485738     krnln_static:krnl2.obj
 0003:0000288c       ?s_wBrhBmpData@@3PAGA      0048588c     krnln_static:krnl2.obj
 0003:00002b8c       ?s_szPenRop2Explain@@3PADA 00485b8c     krnln_static:krnl2.obj
 0003:00002b90       ?s_szBrushStylePick@@3PADA 00485b90     krnln_static:krnl2.obj
 0003:00002b98       ?g_DrawPanelProperty@@3PAUUNIT_PROPERTY@@A 00485b98     krnln_static:krnl2.obj
 0003:00002d90       ?g_PrinterProperty@@3PAUUNIT_PROPERTY@@A 00485d90     krnln_static:krnl2.obj
 0003:00003050       ?g_UDPSockProperty@@3PAUUNIT_PROPERTY@@A 00486050     krnln_static:krnl2.obj
 0003:00003108       ?g_ClientSockProperty@@3PAUUNIT_PROPERTY@@A 00486108     krnln_static:krnl2.obj
 0003:000031a8       ?g_ServerSockProperty@@3PAUUNIT_PROPERTY@@A 004861a8     krnln_static:krnl2.obj
 0003:00003260       ?g_SerialPortProperty@@3PAUUNIT_PROPERTY@@A 00486260     krnln_static:krnl2.obj
 0003:000033f0       ?g_DataSourceProperty@@3PAUUNIT_PROPERTY@@A 004863f0     krnln_static:krnl2.obj
 0003:000034f8       ?g_ProviderProperty@@3PAUUNIT_PROPERTY@@A 004864f8     krnln_static:krnl2.obj
 0003:000035c0       ?g_GridProperty@@3PAUUNIT_PROPERTY@@A 004865c0     krnln_static:krnl2.obj
 0003:00003728       ?g_DBProviderProperty@@3PAUUNIT_PROPERTY@@A 00486728     krnln_static:krnl2.obj
 0003:00003808       ?g_RgnButtonProperty@@3PAUUNIT_PROPERTY@@A 00486808     krnln_static:krnl2.obj
 0003:00003938       ?g_ODBCDBProperty@@3PAUUNIT_PROPERTY@@A 00486938     krnln_static:krnl2.obj
 0003:000039d8       ?g_ODBCProviderProperty@@3PAUUNIT_PROPERTY@@A 004869d8     krnln_static:krnl2.obj
 0003:00003aa0       _krnl_helpfuncs            00486aa0     krnln_static:krnl2.obj
 0003:00003af0       ??_C@_0M@NLCI@Shell32?4dll?$AA@ 00486af0     krnln_static:krnl2.obj
 0003:00003afc       ??_C@_07MFDO@Mpr?4dll?$AA@ 00486afc     krnln_static:krnl2.obj
 0003:00003b04       ??_C@_0N@HMLF@Advapi32?4dll?$AA@ 00486b04     krnln_static:krnl2.obj
 0003:00003b14       ??_C@_0L@PPOC@User32?4dll?$AA@ 00486b14     krnln_static:krnl2.obj
 0003:00003b20       ??_C@_09IBFP@Gdi32?4dll?$AA@ 00486b20     krnln_static:krnl2.obj
 0003:00003b2c       ??_C@_0N@DOLF@Kernel32?4dll?$AA@ 00486b2c     krnln_static:krnl2.obj
 0003:00003b3c       ??_C@_0BP@MOBP@?K?y?L?a?$LJ?$KJ?$LC?N?J?$PN?$LF?D?J?$PN?$LO?$NN?$MA?$OA?P?M?$LC?$LL?$LH?$PL?$LK?O?R?$KK?G?s?$AA@ 00486b3c     krnln_static:krnl2.obj
 0003:00003b5c       ??_C@_0EB@IOAG@?$KB?$LA?V?X?$LG?$KI?R?e?J?$PN?W?i?$KB?$LB?C?$PM?A?n?$LF?D?J?$PN?W?i?N?$KM?$LG?$KI?R?e?$LC?N@ 00486b5c     krnln_static:krnl2.obj
 0003:00003ba0       ??_C@_0DL@HOOC@?$KB?$LA?$LG?$OA?O?n?Q?$KB?T?q?$KB?$LB?C?$PM?A?n?$LF?D?K?w?R?$PN?V?$LF?$LC?N?J?$PN?P?$KB?S?Z@ 00486ba0     krnln_static:krnl2.obj
 0003:00003bdc       ??_C@_0CH@OCBD@?$LB?$LL?$LB?H?$LN?O?J?$PN?$LO?$NN?V?$LL?D?$NM?J?$LJ?S?C?$LF?H?S?Z?$LL?r?$LC?$LL?$LF?H?S?Z?C?$PM@ 00486bdc     krnln_static:krnl2.obj
 0003:00003c04       ??_C@_0DJ@JNJI@?W?S?S?o?$LO?d?$LC?N?J?$PN?N?$LE?$LH?$LF?$LL?X?J?$PN?$LO?$NN?$LL?r?U?$NP?$LH?$LF?$LL?X?A?K?$LH?G@ 00486c04     krnln_static:krnl2.obj
 0003:00003c40       ??_C@_0BK@HGIK@?$LF?w?S?CDLL?C?$PM?A?n?$LK?s?$LH?$KC?O?V?$LG?Q?U?$LL?$LE?m?N?s?$AA@ 00486c40     krnln_static:krnl2.obj
 0003:00003c5c       ??_C@_0BF@FILF@?J?$PN?$LO?$NN?$LL?r?J?$PN?W?i?$MA?$OA?P?M?$LC?$LL?F?$KF?E?d?$AA@ 00486c5c     krnln_static:krnl2.obj
 0003:00003c74       ??_C@_0BO@ONFL@?J?$PN?W?i?$LD?I?T?$LB?R?$PN?S?C?O?B?$LB?j?$LB?X?P?k?$LE?s?S?Z?$LF?H?S?Z1?$AA@ 00486c74     krnln_static:krnl2.obj
 0003:00003c94       ??_C@_0DG@NFLC@?R?$PN?S?C?J?$PN?W?i?$LD?I?T?$LB?J?$LB?N?$KM?J?$PN?$LC?$LL?N?$KK1?G?R?$LC?$LL?$LF?H?S?Z?$LI@ 00486c94     krnln_static:krnl2.obj
 0003:00003ccc       ??_C@_0BJ@HKHC@?N?$LE?$LF?C?$LF?$LN?K?y?P?h?R?$KK?$LF?D?J?$PN?V?$LF?P?M?J?$PN?$LO?$NN?$AA@ 00486ccc     krnln_static:krnl2.obj
 0003:00003ce8       ??_C@_0BN@HCJA@?J?$PN?W?i?$LD?I?T?$LB?R?$PN?S?C?O?B?$LB?j?$LD?$KM?$LD?v?$LG?$KI?R?e?$LH?$LG?N?$KH?$AA@ 00486ce8     krnln_static:krnl2.obj
 0003:00003d08       ??_C@_04IGNI@EDIT?$AA@     00486d08     krnln_static:krnl2.obj
 0003:00003d10       ??_C@_02MECO@?$CFd?$AA@    00486d10     krnln_static:krnl2.obj
 0003:00003d14       ??_C@_01PLJA@0?$AA@        00486d14     krnln_static:krnl2.obj
 0003:00003d18       ??_C@_06GACA@BUTTON?$AA@   00486d18     krnln_static:krnl2.obj
 0003:00003d20       ??_C@_04NMJN@?$LA?$LE?E?$KF?$AA@ 00486d20     krnln_static:krnl2.obj
 0003:00003d28       ??_C@_02OOND@?4?4?$AA@     00486d28     krnln_static:krnl2.obj
 0003:00003d2c       ??_C@_01PJCK@?4?$AA@       00486d2c     krnln_static:krnl2.obj
 0003:00003d30       ??_C@_03DCMC@?$CK?4?$CK?$AA@ 00486d30     krnln_static:krnl2.obj
 0003:00003d34       ??_C@_04BLHP@?M?$LI?C?w?$AA@ 00486d34     krnln_static:krnl2.obj
 0003:00003d3c       ??_C@_01FCOA@?5?$AA@       00486d3c     krnln_static:krnl2.obj
 0003:00003d40       ??_C@_02MIFF@?$CF1?$AA@    00486d40     krnln_static:krnl2.obj
 0003:00003d44       ??_C@_04BGOA@?$CC?$CF1?$CC?$AA@ 00486d44     krnln_static:krnl2.obj
 0003:00003d4c       ??_C@_0BE@LHOH@?2shell?2open?2command?$AA@ 00486d4c     krnln_static:krnl2.obj
 0003:00003d60       ??_C@_04OEFD@?4htm?$AA@    00486d60     krnln_static:krnl2.obj
 0003:00003d68       ??_C@_04KHOB@open?$AA@     00486d68     krnln_static:krnl2.obj
 0003:00003d70       ??_C@_07MMEO@mailto?3?$AA@ 00486d70     krnln_static:krnl2.obj
 0003:00003d78       ??_C@_03JJJD@hlp?$AA@      00486d78     krnln_static:krnl2.obj
 0003:00003d7c       ??_C@_07LGIJ@DISPLAY?$AA@  00486d7c     krnln_static:krnl2.obj
 0003:00003d84       ??_C@_0N@ONME@?N?$LE?A?$KM?$LN?S?J?$PN?$LO?$NN?T?$LE?$AA@ 00486d84     krnln_static:krnl2.obj
 0003:00003d94       ??_C@_0N@EFDL@OpenDatabase?$AA@ 00486d94     krnln_static:krnl2.obj
 0003:00003da4       ??_C@_0O@HIE@CloseDatabase?$AA@ 00486da4     krnln_static:krnl2.obj
 0003:00003db4       ??_C@_0BB@KPHC@GetConnectString?$AA@ 00486db4     krnln_static:krnl2.obj
 0003:00003dc8       ??_C@_0L@CFMO@GetTabList?$AA@ 00486dc8     krnln_static:krnl2.obj
 0003:00003dd4       ??_C@_0BP@MKJB@?R?r?K?y?T?Z?V?$KH?$LD?V?$LP?b?T?X?H?k?$LD?v?$LE?m?$LG?x?N?$NO?$LH?$KI?$LE?$LE?$LN?$KI?$AA@ 00486dd4     krnln_static:krnl2.obj
 0003:00003df4       ??_C@_01POCP@?7?$AA@       00486df4     krnln_static:krnl2.obj
 0003:00003df8       ??_C@_0CD@DGFM@?V?$LI?$LG?$KI?$LE?$LA?$LP?Z?$LL?r?$LE?$LA?$LP?Z?W?i?$LM?$PO?$LC?$LL?$LE?f?T?Z?$LL?r?I?P?N?$LE?T?X@ 00486df8     krnln_static:krnl2.obj
 0003:00003e1c       ??_C@_0BB@DBMH@?T?X?H?k?F?t?$LG?$KP?$LE?$LA?$LP?Z?J?$KH?$LA?$NM?$AA@ 00486e1c     krnln_static:krnl2.obj
 0003:00003e30       ??_C@_0CO@A@?N?$NO?$LH?$KI?U?R?$LF?$LN?V?$LI?$LG?$KIDLL?$LP?b?N?D?$LM?$PO?$KB?$LA?$CFs?$KB?$LB?V?P?$LF?D?J@ 00486e30     krnln_static:krnl2.obj
 0003:00003e60       ??_C@_0CI@MEAF@?N?$NO?$LH?$KI?U?R?$LF?$LN?V?$LI?$LG?$KIDLL?$LP?b?N?D?$LM?$PO?V?P?$LF?D?J?d?$LD?v?C?$PM?A@ 00486e60     krnln_static:krnl2.obj
 0003:00003e88       ??_C@_0BG@DPCH@?$LH?V?E?d?5?$CFd?5?W?V?$LN?Z?D?Z?$LE?f?J?$KH?$LA?$NM?$CB?$AA@ 00486e88     krnln_static:krnl2.obj
 0003:00003ea0       ??_C@_0L@KFNN@?$LE?m?N?s?P?E?O?$KC?$KD?$LK?$AA@ 00486ea0     krnln_static:krnl2.obj
 0003:00003eac       ??_C@_04FGNA@?$AN?6?$AN?6?$AA@ 00486eac     krnln_static:krnl2.obj
 0003:00003eb4       ??_C@_0L@JFPM@?$LE?m?N?s?$LE?z?B?k?$KD?$LK?$AA@ 00486eb4     krnln_static:krnl2.obj
 0003:00003ec0       ??_C@_0BA@NMLJ@?T?K?P?P?J?$LB?$LD?v?$LE?m?$CB?$AN?6?$AN?6?$AA@ 00486ec0     krnln_static:krnl2.obj
 0003:00003ed0       ??_C@_0BE@OBJH@DllUnregisterServer?$AA@ 00486ed0     krnln_static:krnl2.obj
 0003:00003ee4       ??_C@_0BC@GLC@DllRegisterServer?$AA@ 00486ee4     krnln_static:krnl2.obj
 0003:00003ef8       ??_C@_0N@HCHM@DEFAULT_ICON?$AA@ 00486ef8     krnln_static:krnl2.obj
 0003:00003f08       ??_C@_0BB@JLAN@?V?$LI?$LG?$KI?$LE?$LA?$LP?Z?I?P?N?$LE?T?X?H?k?$AA@ 00486f08     krnln_static:krnl2.obj
 0003:00003f1c       ??_C@_0BP@MHHN@?N?$LE?T?X?H?k?S?$PL?$LH?C?N?J?$LE?$LA?$LP?Z?W?i?$LM?$PO?K?y?T?Z?$LF?D?$LE?$LA?$LP?Z?$AA@ 00486f1c     krnln_static:krnl2.obj
 0003:00003f3c       ??_C@_04OGKO@?K?N?L?e?$AA@ 00486f3c     krnln_static:krnl2.obj
 0003:00003f44       ??_C@_0BH@GGAN@?R?$PN?$LH?$KC?J?B?$LM?$PO?$LF?D?$LE?$LA?$LP?Z?W?i?$LM?$PO?N?$NO?P?$KH?$AA@ 00486f44     krnln_static:krnl2.obj
 0003:00003f5c       ??_C@_0BJ@HHBO@?N?$LE?U?R?$LF?$LN?R?$PN?$LH?$KC?J?B?$LM?$PO?$LF?D?$LE?$LA?$LP?Z?W?i?$LM?$PO?$AA@ 00486f5c     krnln_static:krnl2.obj
 0003:00003f78       ??_C@_0BF@NLFM@?N?$LE?U?R?$LF?$LN?R?$PN?$LH?$KC?J?B?$LM?$PO?$LF?D?$LE?$LA?$LP?Z?$AA@ 00486f78     krnln_static:krnl2.obj
 0003:00003f90       ??_C@_0BH@NAGD@?S?$PL?W?$KK?$LL?$LL?J?$PN?$LO?$NN?$MA?$OA?P?M?$LC?$LL?J?G?J?$PN?V?$LF?$AA@ 00486f90     krnln_static:krnl2.obj
 0003:00003fa8       ??_C@_0N@CLFF@RemovePlayer?$AA@ 00486fa8     krnln_static:krnl2.obj
 0003:00003fb8       ?g_WinProperty@@3PAUUNIT_PROPERTY@@A 00486fb8     krnln_static:Winform.obj
 0003:00004238       ?g_WinPropertyCount@@3HA   00487238     krnln_static:Winform.obj
 0003:00004608       ??_C@_0N@DNDN@CWinFormUnit?$AA@ 00487608     krnln_static:Winform.obj
 0003:00004618       ??_C@_08NFKG@WTWindow?$AA@ 00487618     krnln_static:Winform.obj
 0003:00004640       ?g_nMonthDays@@3PAHA       00487640     krnln_static:FUNC.OBJ
 0003:00004670       ?s_naryCursorType@@3PAHA   00487670     krnln_static:FUNC.OBJ
 0003:000046ac       ?s_nCursorTypeCount@@3HA   004876ac     krnln_static:FUNC.OBJ
 0003:000046b0       ??_C@_04EOIO@?$CF?46g?$AA@ 004876b0     krnln_static:FUNC.OBJ
 0003:000046b8       ??_C@_05GMEM@?$CF?413g?$AA@ 004876b8     krnln_static:FUNC.OBJ
 0003:000046c0       ??_C@_04OIBF@?$CFd?J?$LB?$AA@ 004876c0     krnln_static:FUNC.OBJ
 0003:000046c8       ??_C@_08IMDP@?$CFd?J?$LB?$CFd?$LH?V?$AA@ 004876c8     krnln_static:FUNC.OBJ
 0003:000046d4       ??_C@_02JKJF@?U?f?$AA@     004876d4     krnln_static:FUNC.OBJ
 0003:000046d8       ??_C@_02LMFB@?$LM?Y?$AA@   004876d8     krnln_static:FUNC.OBJ
 0003:000046dc       ??_C@_04FCNP@?$LE?m?N?s?$AA@ 004876dc     krnln_static:FUNC.OBJ
 0003:000046e8       ?s_PYNameTab@@3PAUPY_NAME_TAB@@A 004876e8     krnln_static:PY.OBJ
 0003:000048a8       ?m_btSPSMChar@@3PAEA       004878a8     krnln_static:PY.OBJ
 0003:000048c0       ?m_btSPSMCode@@3PAEA       004878c0     krnln_static:PY.OBJ
 0003:000048d8       ?m_btSPYMChar@@3PAEA       004878d8     krnln_static:PY.OBJ
 0003:000048fc       ?m_btSPYMCode@@3PAEA       004878fc     krnln_static:PY.OBJ
 0003:00004920       ?m_btSP_First_YMChar@@3PAEA 00487920     krnln_static:PY.OBJ
 0003:0000492c       ?m_btSP_First_YMCode@@3PAEA 0048792c     krnln_static:PY.OBJ
 0003:00004938       ?s_wPYTab@@3PAGA           00487938     krnln_static:PY.OBJ
 0003:00007e18       ?s_wManyPYTab@@3PAGA       0048ae18     krnln_static:PY.OBJ
 0003:00008954       ??_C@_01KBCC@v?$AA@        0048b954     krnln_static:PY.OBJ
 0003:00008958       ??_C@_01FOJL@u?$AA@        0048b958     krnln_static:PY.OBJ
 0003:0000895c       ??_C@_01JAP@i?$AA@         0048b95c     krnln_static:PY.OBJ
 0003:00008960       ??_C@_02KPCD@uo?$AA@       0048b960     krnln_static:PY.OBJ
 0003:00008964       ??_C@_02EOJ@ua?$AA@        0048b964     krnln_static:PY.OBJ
 0003:00008968       ??_C@_02IBLO@ia?$AA@       0048b968     krnln_static:PY.OBJ
 0003:0000896c       ??_C@_02FLE@un?$AA@        0048b96c     krnln_static:PY.OBJ
 0003:00008970       ??_C@_02IAOD@in?$AA@       0048b970     krnln_static:PY.OBJ
 0003:00008974       ??_C@_02KOLF@ue?$AA@       0048b974     krnln_static:PY.OBJ
 0003:00008978       ??_C@_02CLOC@ie?$AA@       0048b978     krnln_static:PY.OBJ
 0003:0000897c       ??_C@_02ICJC@iu?$AA@       0048b97c     krnln_static:PY.OBJ
 0003:00008980       ??_C@_02FAFB@ui?$AA@       0048b980     krnln_static:PY.OBJ
 0003:00008984       ??_C@_03DAGL@ian?$AA@      0048b984     krnln_static:PY.OBJ
 0003:00008988       ??_C@_03JKPM@iao?$AA@      0048b988     krnln_static:PY.OBJ
 0003:0000898c       ??_C@_03MJOO@uan?$AA@      0048b98c     krnln_static:PY.OBJ
 0003:00008990       ??_C@_03JMAL@uai?$AA@      0048b990     krnln_static:PY.OBJ
 0003:00008994       ??_C@_03PGDC@ong?$AA@      0048b994     krnln_static:PY.OBJ
 0003:00008998       ??_C@_03BKEF@ing?$AA@      0048b998     krnln_static:PY.OBJ
 0003:0000899c       ??_C@_04HDH@iong?$AA@      0048b99c     krnln_static:PY.OBJ
 0003:000089a4       ??_C@_04HLPF@iang?$AA@     0048b9a4     krnln_static:PY.OBJ
 0003:000089ac       ??_C@_04JBAM@uang?$AA@     0048b9ac     krnln_static:PY.OBJ
 0003:000089b4       ??_C@_01PHOL@e?$AA@        0048b9b4     krnln_static:PY.OBJ
 0003:000089b8       ??_C@_01PGHN@o?$AA@        0048b9b8     krnln_static:PY.OBJ
 0003:000089bc       ??_C@_01FNLH@a?$AA@        0048b9bc     krnln_static:PY.OBJ
 0003:000089c0       ??_C@_02DKPI@ei?$AA@       0048b9c0     krnln_static:PY.OBJ
 0003:000089c4       ??_C@_02GPBN@en?$AA@       0048b9c4     krnln_static:PY.OBJ
 0003:000089c8       ??_C@_02DIIJ@er?$AA@       0048b9c8     krnln_static:PY.OBJ
 0003:000089cc       ??_C@_02PFGN@ou?$AA@       0048b9cc     krnln_static:PY.OBJ
 0003:000089d0       ??_C@_02JPCA@ao?$AA@       0048b9d0     krnln_static:PY.OBJ
 0003:000089d4       ??_C@_02GAFC@ai?$AA@       0048b9d4     krnln_static:PY.OBJ
 0003:000089d8       ??_C@_02DFLH@an?$AA@       0048b9d8     krnln_static:PY.OBJ
 0003:000089dc       ??_C@_03MCKK@eng?$AA@      0048b9dc     krnln_static:PY.OBJ
 0003:000089e0       ??_C@_03IKPA@ang?$AA@      0048b9e0     krnln_static:PY.OBJ
 0003:000089e4       ??_C@_01LLF@w?$AA@         0048b9e4     krnln_static:PY.OBJ
 0003:000089e8       ??_C@_01KAHP@y?$AA@        0048b9e8     krnln_static:PY.OBJ
 0003:000089ec       ??_C@_01KBOJ@s?$AA@        0048b9ec     krnln_static:PY.OBJ
 0003:000089f0       ??_C@_01IJJ@c?$AA@         0048b9f0     krnln_static:PY.OBJ
 0003:000089f4       ??_C@_01FPMG@z?$AA@        0048b9f4     krnln_static:PY.OBJ
 0003:000089f8       ??_C@_01LHO@r?$AA@         0048b9f8     krnln_static:PY.OBJ
 0003:000089fc       ??_C@_01KOI@x?$AA@         0048b9fc     krnln_static:PY.OBJ
 0003:00008a00       ??_C@_01PEMH@q?$AA@        0048ba00     krnln_static:PY.OBJ
 0003:00008a04       ??_C@_01PGLG@j?$AA@        0048ba04     krnln_static:PY.OBJ
 0003:00008a08       ??_C@_01KDJI@h?$AA@        0048ba08     krnln_static:PY.OBJ
 0003:00008a0c       ??_C@_01FMCB@k?$AA@        0048ba0c     krnln_static:PY.OBJ
 0003:00008a10       ??_C@_01KCMF@g?$AA@        0048ba10     krnln_static:PY.OBJ
 0003:00008a14       ??_C@_01JME@l?$AA@         0048ba14     krnln_static:PY.OBJ
 0003:00008a18       ??_C@_01FMOK@n?$AA@        0048ba18     krnln_static:PY.OBJ
 0003:00008a1c       ??_C@_01PEAM@t?$AA@        0048ba1c     krnln_static:PY.OBJ
 0003:00008a20       ??_C@_01FNHM@d?$AA@        0048ba20     krnln_static:PY.OBJ
 0003:00008a24       ??_C@_01IFC@f?$AA@         0048ba24     krnln_static:PY.OBJ
 0003:00008a28       ??_C@_01KDFD@m?$AA@        0048ba28     krnln_static:PY.OBJ
 0003:00008a2c       ??_C@_01FOFA@p?$AA@        0048ba2c     krnln_static:PY.OBJ
 0003:00008a30       ??_C@_01KCAO@b?$AA@        0048ba30     krnln_static:PY.OBJ
 0003:00008a34       ??_C@_02INDJ@sh?$AA@       0048ba34     krnln_static:PY.OBJ
 0003:00008a38       ??_C@_02OHJA@ch?$AA@       0048ba38     krnln_static:PY.OBJ
 0003:00008a3c       ??_C@_02COMH@zh?$AA@       0048ba3c     krnln_static:PY.OBJ
 0003:00008a40       ??_C@_05FIDG@zheng?$AA@    0048ba40     krnln_static:PY.OBJ
 0003:00008a48       ??_C@_04JHI@zeng?$AA@      0048ba48     krnln_static:PY.OBJ
 0003:00008a50       ??_C@_03LNJA@zen?$AA@      0048ba50     krnln_static:PY.OBJ
 0003:00008a54       ??_C@_04PDAF@zhen?$AA@     0048ba54     krnln_static:PY.OBJ
 0003:00008a9c       ??_C@_03NAME@?4?4?4?$AA@   0048ba9c     krnln_static:DLG.OBJ
 0003:00008aa0       ??_C@_0BB@GDDO@?$LB?$KD?$LE?f?O?V?P?P?$LM?G?B?$LM?J?$KH?$LA?$NM?$AA@ 0048baa0     krnln_static:DLG.OBJ
 0003:00008ab4       ??_C@_03DMDD@?5?9?5?$AA@   0048bab4     krnln_static:DLG.OBJ
 0003:00008ab8       ??_C@_08OGBG@?$DP?$DP?5?1?5?$CFd?$FN?$AA@ 0048bab8     krnln_static:DLG.OBJ
 0003:00008ac4       ??_C@_08POPH@?$CFd?5?1?5?$CFd?$FN?$AA@ 0048bac4     krnln_static:DLG.OBJ
 0003:00008ad0       ??_C@_08MKDD@?$CK?$LB?$LL?I?$LO?$LD?$PN?5?$AA@ 0048bad0     krnln_static:DLG.OBJ
 0003:00008adc       ??_C@_04BAIN@?5?9?5?$FL?$AA@ 0048badc     krnln_static:DLG.OBJ
 0003:00008ae4       ??_C@_04PHEN@?$LB?$OA?$LM?$KN?$AA@ 0048bae4     krnln_static:DLG.OBJ
 0003:00008aec       ??_C@_04DGLI@?$LC?i?$LP?$LE?$AA@ 0048baec     krnln_static:DLG.OBJ
 0003:00008af4       ??_C@_08EIMK@?$LB?$LI?W?$KC?W?V?$LG?N?$AA@ 0048baf4     krnln_static:DLG.OBJ
 0003:00008b00       ??_C@_0L@LAHG@?W?V?$LN?Z?$LM?$KP?W?V?$LG?N?$AA@ 0048bb00     krnln_static:DLG.OBJ
 0003:00008b0c       ??_C@_0BC@FHHC@?5?9?5?$FL?J?$PN?$LO?$NN?$LD?$NP?$LE?g?3?5?$CFd?$FN?$AA@ 0048bb0c     krnln_static:DLG.OBJ
 0003:00008b20       ??_C@_0BB@EJPM@?$LE?$LE?$LN?$KI?M?$LM?F?$KM?T?$KE?$MA?$MA?J?$KH?$LA?$NM?$AA@ 0048bb20     krnln_static:DLG.OBJ
 0003:00008b34       ??_C@_0N@POHN@?P?$LE?$LD?v?N?D?$LM?$PO?J?$KH?$LA?$NM?$AA@ 0048bb34     krnln_static:DLG.OBJ
 0003:00008b44       ??_C@_03DPCO@TXT?$AA@      0048bb44     krnln_static:DLG.OBJ
 0003:00008b48       ??_C@_0BF@JCLB@?K?y?S?P?N?D?$LM?$PO?5?$CI?$CK?4?$CK?$CJ?$HM?$CK?4?$CK?$HM?$HM?$AA@ 0048bb48     krnln_static:DLG.OBJ
 0003:00008b60       ??_C@_0FF@EDMD@?K?y?S?P?I?y?R?t?N?D?$LM?$PO?5?$CI?$CK?4WAV?$DL?$CK?4MID?$CJ?$HM?$CK?4WAV@ 0048bb60     krnln_static:DLG.OBJ
 0003:00008bb8       ??_C@_0CM@EDOB@?N?D?$LB?$LO?N?D?$LM?$PO?5?$CI?$CK?4txt?$CJ?$HM?$CK?4txt?$HM?K?y?S?P?N?D?$LM?$PO?5@ 0048bbb8     krnln_static:DLG.OBJ
 0003:00008be4       ??_C@_0N@BPOK@?$LC?$LL?J?G?I?y?R?t?J?$PN?$LO?$NN?$AA@ 0048bbe4     krnln_static:DLG.OBJ
 0003:00008bf4       ?g_szQuickKeyName@@3PAPBDA 0048bbf4     krnln_static:MENU.OBJ
 0003:00008d2c       ?QuickKey@@3PAUtagQUICK_KEY@@A 0048bd2c     krnln_static:MENU.OBJ
 0003:00008e64       ??_C@_03PHMD@Del?$AA@      0048be64     krnln_static:MENU.OBJ
 0003:00008e68       ??_C@_03FLLM@Ins?$AA@      0048be68     krnln_static:MENU.OBJ
 0003:00008e6c       ??_C@_0P@DEIO@Ctrl?$CLShift?$CLF12?$AA@ 0048be6c     krnln_static:MENU.OBJ
 0003:00008e7c       ??_C@_0P@MLDH@Ctrl?$CLShift?$CLF11?$AA@ 0048be7c     krnln_static:MENU.OBJ
 0003:00008e8c       ??_C@_0P@GBKA@Ctrl?$CLShift?$CLF10?$AA@ 0048be8c     krnln_static:MENU.OBJ
 0003:00008e9c       ??_C@_0O@GEFI@Ctrl?$CLShift?$CLF9?$AA@ 0048be9c     krnln_static:MENU.OBJ
 0003:00008eac       ??_C@_0O@MOMP@Ctrl?$CLShift?$CLF8?$AA@ 0048beac     krnln_static:MENU.OBJ
 0003:00008ebc       ??_C@_0O@MPJC@Ctrl?$CLShift?$CLF7?$AA@ 0048bebc     krnln_static:MENU.OBJ
 0003:00008ecc       ??_C@_0O@GFAF@Ctrl?$CLShift?$CLF6?$AA@ 0048becc     krnln_static:MENU.OBJ
 0003:00008edc       ??_C@_0O@JKLM@Ctrl?$CLShift?$CLF5?$AA@ 0048bedc     krnln_static:MENU.OBJ
 0003:00008eec       ??_C@_0O@DACL@Ctrl?$CLShift?$CLF4?$AA@ 0048beec     krnln_static:MENU.OBJ
 0003:00008efc       ??_C@_0O@GFMO@Ctrl?$CLShift?$CLF3?$AA@ 0048befc     krnln_static:MENU.OBJ
 0003:00008f0c       ??_C@_0O@MPFJ@Ctrl?$CLShift?$CLF2?$AA@ 0048bf0c     krnln_static:MENU.OBJ
 0003:00008f1c       ??_C@_0O@DAOA@Ctrl?$CLShift?$CLF1?$AA@ 0048bf1c     krnln_static:MENU.OBJ
 0003:00008f2c       ??_C@_09DNFD@Shift?$CLF12?$AA@ 0048bf2c     krnln_static:MENU.OBJ
 0003:00008f38       ??_C@_09MCOK@Shift?$CLF11?$AA@ 0048bf38     krnln_static:MENU.OBJ
 0003:00008f44       ??_C@_09GIHN@Shift?$CLF10?$AA@ 0048bf44     krnln_static:MENU.OBJ
 0003:00008f50       ??_C@_08LJND@Shift?$CLF9?$AA@ 0048bf50     krnln_static:MENU.OBJ
 0003:00008f5c       ??_C@_08BDEE@Shift?$CLF8?$AA@ 0048bf5c     krnln_static:MENU.OBJ
 0003:00008f68       ??_C@_08BCBJ@Shift?$CLF7?$AA@ 0048bf68     krnln_static:MENU.OBJ
 0003:00008f74       ??_C@_08LIIO@Shift?$CLF6?$AA@ 0048bf74     krnln_static:MENU.OBJ
 0003:00008f80       ??_C@_08EHDH@Shift?$CLF5?$AA@ 0048bf80     krnln_static:MENU.OBJ
 0003:00008f8c       ??_C@_08ONKA@Shift?$CLF4?$AA@ 0048bf8c     krnln_static:MENU.OBJ
 0003:00008f98       ??_C@_08LIEF@Shift?$CLF3?$AA@ 0048bf98     krnln_static:MENU.OBJ
 0003:00008fa4       ??_C@_08BCNC@Shift?$CLF2?$AA@ 0048bfa4     krnln_static:MENU.OBJ
 0003:00008fb0       ??_C@_08ONGL@Shift?$CLF1?$AA@ 0048bfb0     krnln_static:MENU.OBJ
 0003:00008fbc       ??_C@_08FHBO@Ctrl?$CLF12?$AA@ 0048bfbc     krnln_static:MENU.OBJ
 0003:00008fc8       ??_C@_08KIKH@Ctrl?$CLF11?$AA@ 0048bfc8     krnln_static:MENU.OBJ
 0003:00008fd4       ??_C@_08CDA@Ctrl?$CLF10?$AA@ 0048bfd4     krnln_static:MENU.OBJ
 0003:00008fe0       ??_C@_07PEBJ@Ctrl?$CLF9?$AA@ 0048bfe0     krnln_static:MENU.OBJ
 0003:00008fe8       ??_C@_07FOIO@Ctrl?$CLF8?$AA@ 0048bfe8     krnln_static:MENU.OBJ
 0003:00008ff0       ??_C@_07FPND@Ctrl?$CLF7?$AA@ 0048bff0     krnln_static:MENU.OBJ
 0003:00008ff8       ??_C@_07PFEE@Ctrl?$CLF6?$AA@ 0048bff8     krnln_static:MENU.OBJ
 0003:00009000       ??_C@_07KPN@Ctrl?$CLF5?$AA@ 0048c000     krnln_static:MENU.OBJ
 0003:00009008       ??_C@_07KAGK@Ctrl?$CLF4?$AA@ 0048c008     krnln_static:MENU.OBJ
 0003:00009010       ??_C@_07PFIP@Ctrl?$CLF3?$AA@ 0048c010     krnln_static:MENU.OBJ
 0003:00009018       ??_C@_07FPBI@Ctrl?$CLF2?$AA@ 0048c018     krnln_static:MENU.OBJ
 0003:00009020       ??_C@_07KAKB@Ctrl?$CLF1?$AA@ 0048c020     krnln_static:MENU.OBJ
 0003:00009028       ??_C@_03GODC@F12?$AA@      0048c028     krnln_static:MENU.OBJ
 0003:0000902c       ??_C@_03JBIL@F11?$AA@      0048c02c     krnln_static:MENU.OBJ
 0003:00009030       ??_C@_03DLBM@F10?$AA@      0048c030     krnln_static:MENU.OBJ
 0003:00009034       ??_C@_02NIOF@F9?$AA@       0048c034     krnln_static:MENU.OBJ
 0003:00009038       ??_C@_02HCHC@F8?$AA@       0048c038     krnln_static:MENU.OBJ
 0003:0000903c       ??_C@_02HDCP@F7?$AA@       0048c03c     krnln_static:MENU.OBJ
 0003:00009040       ??_C@_02NJLI@F6?$AA@       0048c040     krnln_static:MENU.OBJ
 0003:00009044       ??_C@_02CGAB@F5?$AA@       0048c044     krnln_static:MENU.OBJ
 0003:00009048       ??_C@_02IMJG@F4?$AA@       0048c048     krnln_static:MENU.OBJ
 0003:0000904c       ??_C@_02NJHD@F3?$AA@       0048c04c     krnln_static:MENU.OBJ
 0003:00009050       ??_C@_02HDOE@F2?$AA@       0048c050     krnln_static:MENU.OBJ
 0003:00009054       ??_C@_02IMFN@F1?$AA@       0048c054     krnln_static:MENU.OBJ
 0003:00009058       ??_C@_06PBNK@Ctrl?$CLZ?$AA@ 0048c058     krnln_static:MENU.OBJ
 0003:00009060       ??_C@_06OGD@Ctrl?$CLY?$AA@ 0048c060     krnln_static:MENU.OBJ
 0003:00009068       ??_C@_06KEPE@Ctrl?$CLX?$AA@ 0048c068     krnln_static:MENU.OBJ
 0003:00009070       ??_C@_06KFKJ@Ctrl?$CLW?$AA@ 0048c070     krnln_static:MENU.OBJ
 0003:00009078       ??_C@_06PDO@Ctrl?$CLV?$AA@ 0048c078     krnln_static:MENU.OBJ
 0003:00009080       ??_C@_06PAIH@Ctrl?$CLU?$AA@ 0048c080     krnln_static:MENU.OBJ
 0003:00009088       ??_C@_06FKBA@Ctrl?$CLT?$AA@ 0048c088     krnln_static:MENU.OBJ
 0003:00009090       ??_C@_06PPF@Ctrl?$CLS?$AA@ 0048c090     krnln_static:MENU.OBJ
 0003:00009098       ??_C@_06KFGC@Ctrl?$CLR?$AA@ 0048c098     krnln_static:MENU.OBJ
 0003:000090a0       ??_C@_06FKNL@Ctrl?$CLQ?$AA@ 0048c0a0     krnln_static:MENU.OBJ
 0003:000090a8       ??_C@_06PAEM@Ctrl?$CLP?$AA@ 0048c0a8     krnln_static:MENU.OBJ
 0003:000090b0       ??_C@_06FIGB@Ctrl?$CLO?$AA@ 0048c0b0     krnln_static:MENU.OBJ
 0003:000090b8       ??_C@_06PCPG@Ctrl?$CLN?$AA@ 0048c0b8     krnln_static:MENU.OBJ
 0003:000090c0       ??_C@_06NEP@Ctrl?$CLM?$AA@ 0048c0c0     krnln_static:MENU.OBJ
 0003:000090c8       ??_C@_06KHNI@Ctrl?$CLL?$AA@ 0048c0c8     krnln_static:MENU.OBJ
 0003:000090d0       ??_C@_06PCDN@Ctrl?$CLK?$AA@ 0048c0d0     krnln_static:MENU.OBJ
 0003:000090d8       ??_C@_06FIKK@Ctrl?$CLJ?$AA@ 0048c0d8     krnln_static:MENU.OBJ
 0003:000090e0       ??_C@_06KHBD@Ctrl?$CLI?$AA@ 0048c0e0     krnln_static:MENU.OBJ
 0003:000090e8       ??_C@_06NIE@Ctrl?$CLH?$AA@ 0048c0e8     krnln_static:MENU.OBJ
 0003:000090f0       ??_C@_06MNJ@Ctrl?$CLG?$AA@ 0048c0f0     krnln_static:MENU.OBJ
 0003:000090f8       ??_C@_06KGEO@Ctrl?$CLF?$AA@ 0048c0f8     krnln_static:MENU.OBJ
 0003:00009100       ??_C@_06FJPH@Ctrl?$CLE?$AA@ 0048c100     krnln_static:MENU.OBJ
 0003:00009108       ??_C@_06PDGA@Ctrl?$CLD?$AA@ 0048c108     krnln_static:MENU.OBJ
 0003:00009110       ??_C@_06KGIF@Ctrl?$CLC?$AA@ 0048c110     krnln_static:MENU.OBJ
 0003:00009118       ??_C@_06MBC@Ctrl?$CLB?$AA@ 0048c118     krnln_static:MENU.OBJ
 0003:00009120       ??_C@_06PDKL@Ctrl?$CLA?$AA@ 0048c120     krnln_static:MENU.OBJ
 0003:00009128       ??_C@_06EKND@?$KD?$KI?N?$NO?$KD?$KJ?$AA@ 0048c128     krnln_static:MENU.OBJ
 0003:00009130       ??_C@_01GJD@?9?$AA@        0048c130     krnln_static:MENU.OBJ
 0003:00009134       ??_C@_0MM@LHMO@?K?y?S?P?M?$LM?F?$KM?N?D?$LM?$PO?5?$CI?$CK?4JPG?$DL?$CK?4BMP?$DL?$CK?4GIF?$DL@ 0048c134     krnln_static:Pic.obj
 0003:00009200       ??_C@_05HDAD@?$CFs?3?$CFd?$AA@ 0048c200     krnln_static:sockwnd.obj
 0003:00009208       ??_C@_04KIKH@none?$AA@     0048c208     krnln_static:MDataSrc.obj
 0003:00009210       ??_C@_07EPIM@devices?$AA@  0048c210     krnln_static:MDataSrc.obj
 0003:00009218       ??_C@_07CIAP@windows?$AA@  0048c218     krnln_static:MDataSrc.obj
 0003:00009220       ??_C@_06GFPG@device?$AA@   0048c220     krnln_static:MDataSrc.obj
 0003:00009228       ??_C@_03MJC@?0?0?0?$AA@    0048c228     krnln_static:MDataSrc.obj
 0003:00009250       ??_C@_04NCCD@true?$AA@     0048c250     krnln_static:Provider.obj
 0003:00009258       ??_C@_01FBAH@1?$AA@        0048c258     krnln_static:Provider.obj
 0003:0000925c       ??_C@_0L@NBIE@MGridCells?$AA@ 0048c25c     krnln_static:MGrid.obj
 0003:00009268       ??_C@_08JJHO@?$LF?Z?5?$CFd?5?R?$LD?$AA@ 0048c268     krnln_static:MGrid.obj
 0003:00009500       ??_C@_0P@BIMM@?N?$NO?P?$KH?$LF?D?C?$NM?B?k?N?D?$LB?$LO?$AA@ 0048c500     krnln_static:DBERR.OBJ
 0003:00009510       ??_C@_0CB@NPDF@?P?$NO?$LI?D?$LH?C?N?J?C?$NM?B?k?J?$LB?$LI?$PM?P?B?J?$PN?$LO?$NN?$LP?b?J?$PN?$LO?$NN?J?$KH?$LA?$NM@ 0048c510     krnln_static:DBERR.OBJ
 0003:00009534       ??_C@_0CH@IHCF@?N?$LE?L?a?$LJ?$KJ?J?$PN?$LO?$NN?$LP?b?$LH?C?N?J?C?$NM?B?k?$LL?r?L?a?$LJ?$KJ?A?K?$LE?m?N?s@ 0048c534     krnln_static:DBERR.OBJ
 0003:0000955c       ??_C@_0DE@JKKC@?$LH?G?F?s?R?$LF?$LA?f?K?y?$LB?$OA?R?k?$LF?D?$LD?L?P?r?$LC?$LL?D?$NM?$LE?r?$LP?$KK?$LD?$KM?$LJ?$PN@ 0048c55c     krnln_static:DBERR.OBJ
 0003:00009590       ??_C@_0P@MGKM@?$LB?m?$LE?o?J?$LN?$MA?$OA?P?M?$LE?m?N?s?$AA@ 0048c590     krnln_static:DBERR.OBJ
 0003:000095a0       ??_C@_0P@GFJJ@?$LM?F?K?c?$LB?m?$LE?o?J?$LN?$LD?v?$LE?m?$AA@ 0048c5a0     krnln_static:DBERR.OBJ
 0003:000095b0       ??_C@_0CG@MPPF@?J?$PN?$LO?$NN?$LP?b?$LF?D?$LJ?$LC?O?m?$LE?r?$LP?$KK?$LH?$LN?J?$LN?$LC?$LL?J?G?$KB?$LA?$CD?$LN?$PL?V?$LJ?$LG@ 0048c5b0     krnln_static:DBERR.OBJ
 0003:000095d8       ??_C@_0DD@NKOC@?K?y?L?a?$LJ?$KJ?S?$PL?$LC?i?U?R?J?$PN?$LO?$NN?$LF?D?J?$PN?D?$LP?S?k?$LF?$LB?G?$LA?K?w?R?$PN@ 0048c5d8     krnln_static:DBERR.OBJ
 0003:0000960c       ??_C@_0CB@DDO@?K?y?L?a?$LJ?$KJ?J?$PN?$LO?$NN?$LF?D?$MA?$OA?P?M?S?k?W?V?$LG?N?$MA?$OA?P?M?$LC?$LL?F?$KF?E?d@ 0048c60c     krnln_static:DBERR.OBJ
 0003:00009630       ??_C@_0BL@EGGJ@?N?$LE?V?$LI?$LG?$KI?W?V?$LG?N?$LL?r?U?$NP?W?V?$LG?N?$MA?$OA?P?M?$LE?m?N?s?$AA@ 0048c630     krnln_static:DBERR.OBJ
 0003:0000964c       ??_C@_0N@CEHP@?W?V?$LG?N?$MA?$OA?P?M?$LE?m?N?s?$AA@ 0048c64c     krnln_static:DBERR.OBJ
 0003:0000965c       ??_C@_0P@JHKN@?N?$LE?I?h?V?C?$LF?$LB?G?$LA?K?w?R?$PN?$AA@ 0048c65c     krnln_static:DBERR.OBJ
 0003:0000966c       ??_C@_0BB@CGGD@?U?R?$LC?$LL?$LF?$LN?V?$LI?$LG?$KI?$LF?D?K?w?R?$PN?$AA@ 0048c66c     krnln_static:DBERR.OBJ
 0003:00009680       ??_C@_0BB@FENL@?N?$LE?I?h?V?C?$LF?$LB?G?$LA?J?$PN?$LO?$NN?$LP?b?$AA@ 0048c680     krnln_static:DBERR.OBJ
 0003:00009694       ??_C@_0BB@MLCI@?N?$LE?$LE?r?$LP?$KK?V?$LI?$LG?$KI?J?$PN?$LO?$NN?$LP?b?$AA@ 0048c694     krnln_static:DBERR.OBJ
 0003:000096a8       ??_C@_0BD@ICIJ@?H?$KB?J?$PN?$LO?$NN?$LP?b?$LM?G?B?$LM?J?$PN?J?$KH?$LA?$NM?$AA@ 0048c6a8     krnln_static:DBERR.OBJ
 0003:000096bc       ??_C@_0N@GKHB@?$LI?$PM?$LI?D?K?w?R?$PN?J?$KH?$LA?$NM?$AA@ 0048c6bc     krnln_static:DBERR.OBJ
 0003:000096cc       ??_C@_0L@EFEA@?P?$LE?$LM?G?B?$LM?J?$KH?$LA?$NM?$AA@ 0048c6cc     krnln_static:DBERR.OBJ
 0003:000096d8       ??_C@_0L@FJPC@?$LG?A?$LM?G?B?$LM?J?$KH?$LA?$NM?$AA@ 0048c6d8     krnln_static:DBERR.OBJ
 0003:000096e4       ??_C@_0P@LKPM@?O?V?P?P?$LM?G?B?$LM?$LC?$LL?$LE?f?T?Z?$AA@ 0048c6e4     krnln_static:DBERR.OBJ
 0003:000096f4       ??_C@_0BJ@GLBN@?$LH?C?N?J?J?$PN?$LO?$NN?$LP?b?$LF?D?$LI?$KI?V?z?N?D?$LM?$PO?J?$KH?$LA?$NM?$AA@ 0048c6f4     krnln_static:DBERR.OBJ
 0003:00009710       ??_C@_0BH@CMKK@?U?R?$LC?$LL?$LF?$LN?V?$LI?$LG?$KI?$LM?G?B?$LM?$LF?D?K?w?R?$PN?O?n?$AA@ 0048c710     krnln_static:DBERR.OBJ
 0003:00009728       ??_C@_0BD@FLDO@?R?Q?$LF?$LN?W?n?$LK?s?R?$LL?$LI?v?K?w?R?$PN?O?n?$AA@ 0048c728     krnln_static:DBERR.OBJ
 0003:0000973c       ??_C@_0BD@IKAO@?K?w?R?$PN?W?V?$LG?N?$LF?D?$LD?$NP?$LE?g?$LJ?$PN?$LE?s?$AA@ 0048c73c     krnln_static:DBERR.OBJ
 0003:00009750       ??_C@_08BIO@?D?Z?$LE?f?$LC?$LL?W?c?$AA@ 0048c750     krnln_static:DBERR.OBJ
 0003:0000975c       ??_C@_0CL@CBHD@?K?w?R?$PN?K?y?J?$LJ?S?C?W?V?$LG?N?$LF?D?$MA?$OA?P?M?S?k?J?$PN?$LO?$NN?$LP?b?D?Z?$LF?D@ 0048c75c     krnln_static:DBERR.OBJ
 0003:00009788       ??_C@_0CL@JECH@?K?w?R?$PN?K?y?J?$LJ?S?C?W?V?$LG?N?$LF?D?$LD?$NP?$LE?g?S?k?J?$PN?$LO?$NN?$LP?b?D?Z?$LF?D@ 0048c788     krnln_static:DBERR.OBJ
 0003:000097b4       ??_C@_0BB@CDDI@?$LH?C?N?J?K?w?R?$PN?O?n?D?$LP?J?$KH?$LA?$NM?$AA@ 0048c7b4     krnln_static:DBERR.OBJ
 0003:000097c8       ??_C@_0BB@NIFI@?$LM?S?H?k?K?w?R?$PN?O?n?D?$LP?J?$KH?$LA?$NM?$AA@ 0048c7c8     krnln_static:DBERR.OBJ
 0003:000097dc       ??_C@_0BH@LMEE@?$LE?$LE?$LN?$KI?J?$PN?$LO?$NN?$LP?b?$LI?$KI?V?z?N?D?$LM?$PO?J?$KH?$LA?$NM?$AA@ 0048c7dc     krnln_static:DBERR.OBJ
 0003:000097f4       ??_C@_0BH@GIFL@?J?$PN?$LO?$NN?$LP?b?K?w?R?$PN?N?D?$LM?$PO?$LD?$NP?$LE?g?$LE?m?N?s?$AA@ 0048c7f4     krnln_static:DBERR.OBJ
 0003:0000980c       ??_C@_0BD@OKCB@?J?$PN?$LO?$NN?$LP?b?N?D?$LM?$PO?$LD?$NP?$LE?g?$LE?m?N?s?$AA@ 0048c80c     krnln_static:DBERR.OBJ
 0003:00009820       ??_C@_0P@LLFG@?P?$LE?V?$LI?$LG?$KI?W?V?$LG?N?J?$KH?$LA?$NM?$AA@ 0048c820     krnln_static:DBERR.OBJ
 0003:00009830       ??_C@_0P@BAAE@?$LG?A?V?$LI?$LG?$KI?W?V?$LG?N?J?$KH?$LA?$NM?$AA@ 0048c830     krnln_static:DBERR.OBJ
 0003:00009840       ??_C@_0BB@GAEJ@?$LH?V?E?d?D?Z?$LE?f?$LP?U?$LM?d?J?$KH?$LA?$NM?$AA@ 0048c840     krnln_static:DBERR.OBJ
 0003:00009854       ??_C@_0P@KCPD@?V?$LI?$LG?$KI?$LM?G?B?$LM?$LC?$LL?$LE?f?T?Z?$AA@ 0048c854     krnln_static:DBERR.OBJ
 0003:00009864       ??_C@_0BJ@EDAM@?$LC?$LL?D?$NM?U?R?$LF?$LN?K?w?R?$PN?K?y?J?$LJ?S?C?$LF?D?W?V?$LG?N?$AA@ 0048c864     krnln_static:DBERR.OBJ
 0003:00009880       ??_C@_0CJ@PCPM@?K?w?R?$PN?K?y?J?$LJ?S?C?$LF?D?W?V?$LG?N?$LC?$LL?D?$NM?N?$KK?$LB?$LI?W?$KC?$LL?r?U?$NP?W?V@ 0048c880     krnln_static:DBERR.OBJ
 0003:000098ac       ??_C@_0BH@KJAN@?$LE?$LE?$LN?$KI?J?$PN?$LO?$NN?$LP?b?K?w?R?$PN?N?D?$LM?$PO?J?$KH?$LA?$NM?$AA@ 0048c8ac     krnln_static:DBERR.OBJ
 0003:000098c4       ??_C@_0P@FGNM@?N?$LE?U?R?$LF?$LN?V?$LI?$LG?$KI?W?V?$LG?N?$AA@ 0048c8c4     krnln_static:DBERR.OBJ
 0003:000098d4       ??_C@_0BF@CEMB@?K?w?R?$PN?K?y?J?$LJ?S?C?$LF?D?W?V?$LG?N?L?$KL?$LG?$OA?$AA@ 0048c8d4     krnln_static:DBERR.OBJ
 0003:000098ec       ??_C@_0BF@OKJG@?V?$LI?$LG?$KI?J?$PN?$LO?$NN?$LP?b?R?Q?$LO?$KN?$LB?$LL?$LE?r?$LP?$KK?$AA@ 0048c8ec     krnln_static:DBERR.OBJ
 0003:00009904       ??_C@_0CF@FMGM@?V?$LI?$LG?$KI?N?D?$LM?$PO?$LC?$LL?J?G?J?$PN?$LO?$NN?$LP?b?$LI?$KI?V?z?N?D?$LM?$PO?$LL?r?R?Q?$LB?$LL@ 0048c904     krnln_static:DBERR.OBJ
 0003:0000992c       ??_C@_0CH@GODL@?J?$PN?$LO?$NN?$LP?b?$LI?$KI?V?z?N?D?$LM?$PO?$LF?D?$LA?f?$LB?$LO?S?k?J?$PN?$LO?$NN?$LP?b?$LB?$LO?I?m@ 0048c92c     krnln_static:DBERR.OBJ
 0003:00009954       ??_C@_0BH@LAHE@?$LG?A?H?k?J?$PN?$LO?$NN?$LP?b?$LI?$KI?V?z?N?D?$LM?$PO?J?$KH?$LA?$NM?$AA@ 0048c954     krnln_static:DBERR.OBJ
 0003:0000996c       ??_C@_0BN@EBOF@?N?$KK?M?$KM?R?$LL?J?$PN?$LO?$NN?$LP?b?$LE?r?$LP?$KK?K?w?R?$PN?N?D?$LM?$PO?$LJ?$PN?$LG?$OA?$AA@ 0048c96c     krnln_static:DBERR.OBJ
 0003:0000998c       ??_C@_0BD@PHIF@?K?w?R?$PN?N?D?$LM?$PO?R?Q?$LO?$KN?$LB?$LL?$LE?r?$LP?$KK?$AA@ 0048c98c     krnln_static:DBERR.OBJ
 0003:000099a0       ??_C@_0CB@LCKJ@?K?w?R?$PN?N?D?$LM?$PO?$LF?D?$LA?f?$LB?$LO?S?k?J?$PN?$LO?$NN?$LP?b?$LB?$LO?I?m?$LC?$LL?R?$LL?V?B@ 0048c9a0     krnln_static:DBERR.OBJ
 0003:000099c4       ??_C@_0CF@BDFC@?V?$LI?$LG?$KI?N?D?$LM?$PO?$LC?$LL?J?G?J?$PN?$LO?$NN?$LP?b?K?w?R?$PN?N?D?$LM?$PO?$LL?r?R?Q?$LB?$LL@ 0048c9c4     krnln_static:DBERR.OBJ
 0003:000099ec       ??_C@_0BF@NCNI@?$LE?r?$LP?$KK?V?$LI?$LG?$KI?K?w?R?$PN?N?D?$LM?$PO?J?$KH?$LA?$NM?$AA@ 0048c9ec     krnln_static:DBERR.OBJ
 0003:00009a04       ??_C@_08FHFL@?$LN?b?K?x?J?$KH?$LA?$NM?$AA@ 0048ca04     krnln_static:DBERR.OBJ
 0003:00009a10       ??_C@_08KAO@?$LM?S?K?x?J?$KH?$LA?$NM?$AA@ 0048ca10     krnln_static:DBERR.OBJ
 0003:00009a1c       ??_C@_0BB@IJFJ@?$LF?$LB?G?$LA?N?$LE?$LE?r?$LP?$KK?J?$PN?$LO?$NN?$LP?b?$AA@ 0048ca1c     krnln_static:DBERR.OBJ
 0003:00009a30       ??_C@_0BH@CKFI@?R?Q?$LO?$KN?T?$LN?$LJ?$PN?J?$PN?$LO?$NN?$LP?b?$LF?D?D?$KJ?$LM?G?B?$LM?$AA@ 0048ca30     krnln_static:DBERR.OBJ
 0003:00009a48       ??_C@_0BH@DEMH@?R?Q?$LO?$KN?T?$LN?$LJ?$PN?J?$PN?$LO?$NN?$LP?b?$LF?D?J?W?$LM?G?B?$LM?$AA@ 0048ca48     krnln_static:DBERR.OBJ
 0003:00009a60       ??_C@_0FJ@LEOP@?N?$NO?P?$KH?$LF?D?$LB?p?C?$PL?$KB?$KD?$LB?p?C?$PL?J?W?W?V?$LH?$PL?$LB?X?P?k?N?$KK?H?$KL?$LA?k@ 0048ca60     krnln_static:DBERR.OBJ
 0003:00009abc       ??_C@_0DB@CBN@?V?$LI?$LG?$KI?J?$PN?$LO?$NN?$LP?b?N?D?$LM?$PO?$LA?f?$LB?$LO?L?$KL?$LI?$NP?$KD?$KM?N?$NO?$LH?$KI?$LG?A?H?k@ 0048cabc     krnln_static:DBERR.OBJ
 0003:00009af0       ??_C@_0BH@IKEI@?V?$LI?$LG?$KI?N?D?$LM?$PO?$LC?$LL?J?G?J?$PN?$LO?$NN?$LP?b?N?D?$LM?$PO?$AA@ 0048caf0     krnln_static:DBERR.OBJ
 0003:00009b08       ??_C@_0BD@GOAO@?$LE?r?$LP?$KK?V?$LI?$LG?$KI?J?$PN?$LO?$NN?$LP?b?J?$KH?$LA?$NM?$AA@ 0048cb08     krnln_static:DBERR.OBJ
 0003:00009b1c       ??_C@_0BD@OICD@?$LE?f?T?Z?V?X?$LI?$LE?$LF?D?W?V?$LG?N?C?$PL?$LD?F?$AA@ 0048cb1c     krnln_static:DBERR.OBJ
 0003:00009b30       ??_C@_0P@KPJL@?N?$NO?P?$KH?$LF?D?W?V?$LG?N?$LD?$NP?$LE?g?$AA@ 0048cb30     krnln_static:DBERR.OBJ
 0003:00009b40       ??_C@_0HH@FDIO@?N?$NO?P?$KH?$LF?D?W?V?$LG?N?C?$PL?$LD?F?$KB?$KD?C?$PL?$LD?F?J?W?W?V?$LH?$PL?$LB?X?P?k?N?$KK@ 0048cb40     krnln_static:DBERR.OBJ
 0003:00009bb8       ??_C@_0P@FAML@?N?$NO?P?$KH?$LF?D?W?V?$LG?N?$MA?$OA?P?M?$AA@ 0048cbb8     krnln_static:DBERR.OBJ
 0003:00009bc8       ??_C@_0BE@MFIJ@?W?V?$LG?N?J?$PN?D?$LP?$LB?X?P?k?$LE?s?S?Z?50?5?$AA@ 0048cbc8     krnln_static:DBERR.OBJ
 0003:00009bdc       ??_C@_0P@OCGF@?R?Q?$LO?$KN?$LF?$LN?$LE?o?N?D?$LM?$PO?N?$LC?$AA@ 0048cbdc     krnln_static:DBERR.OBJ
 0003:00009bec       ??_C@_0N@CIPI@?$LE?E?E?L?$LP?U?$LM?d?$LC?$LL?$LJ?$LL?$AA@ 0048cbec     krnln_static:DBERR.OBJ
 0003:00009bfc       ??_C@_0N@JDMK@?$LM?S?K?x?N?D?$LM?$PO?J?$KH?$LA?$NM?$AA@ 0048cbfc     krnln_static:DBERR.OBJ
 0003:00009c0c       ??_C@_0BH@LFOA@?$LH?C?N?J?N?D?$LM?$PO?J?$LB?$LC?z?I?z?$LJ?$LC?O?m?$LD?e?M?$LL?$AA@ 0048cc0c     krnln_static:DBERR.OBJ
 0003:00009c24       ??_C@_0BH@NFAL@?$LH?C?N?J?N?D?$LM?$PO?J?$LB?S?$LC?$LM?$PO?$LC?z?I?z?$LJ?J?U?O?$AA@ 0048cc24     krnln_static:DBERR.OBJ
 0003:00009c3c       ??_C@_0BB@POKL@?N?D?$LM?$PO?V?$LI?U?k?$LG?$KI?N?$LL?J?$KH?$LA?$NM?$AA@ 0048cc3c     krnln_static:DBERR.OBJ
 0003:00009c50       ??_C@_0N@IIGN@?$LE?$LE?$LN?$KI?D?$LP?B?$LM?$LJ?$PN?$LG?$OA?$AA@ 0048cc50     krnln_static:DBERR.OBJ
 0003:00009c60       ??_C@_0BF@EPLE@?$LC?$LL?D?$NM?I?$LO?$LD?$PN?O?V?P?P?$LJ?$KE?W?w?D?$LP?B?$LM?$AA@ 0048cc60     krnln_static:DBERR.OBJ
 0003:00009c78       ??_C@_0N@JOLF@?N?$NO?P?$KH?$LF?D?N?D?$LM?$PO?$LK?E?$AA@ 0048cc78     krnln_static:DBERR.OBJ
 0003:00009c88       ??_C@_0BD@KHDE@?V?$LI?$LG?$KI?N?D?$LM?$PO?$LC?$LL?D?$NM?$LB?$LL?$LH?C?N?J?$AA@ 0048cc88     krnln_static:DBERR.OBJ
 0003:00009c9c       ??_C@_0N@JIMF@?$LE?r?$LP?$KK?N?D?$LM?$PO?$LJ?$PN?$LG?$OA?$AA@ 0048cc9c     krnln_static:DBERR.OBJ
 0003:00009cac       ??_C@_0L@ONEI@?N?$NO?P?$KH?$LF?D?B?$LH?$LO?$LG?$AA@ 0048ccac     krnln_static:DBERR.OBJ
 0003:00009cb8       ??_C@_0P@KNKI@?V?$LI?$LG?$KI?N?D?$LM?$PO?N?$LE?U?R?$LF?$LN?$AA@ 0048ccb8     krnln_static:DBERR.OBJ
 0003:00009cc8       ??_C@_0P@OHIP@?$LE?$LE?$LN?$KI?J?$PN?$LO?$NN?$LP?b?J?$KH?$LA?$NM?$AA@ 0048ccc8     krnln_static:DBERR.OBJ
 0003:00009cd8       ??_C@_08LMHB@?N?$LE?V?$KK?$LE?m?N?s?$AA@ 0048ccd8     krnln_static:DBERR.OBJ
 0003:00009ce4       ??_C@_0O@CJOK@CColourPicker?$AA@ 0048cce4     krnln_static:Clrpkr.obj
 0003:00009cf4       ??_C@_0M@HAAP@?F?d?K?$PM?Q?U?I?$KL?4?4?4?$AA@ 0048ccf4     krnln_static:Clrpkr.obj
 0003:00009d00       ??_C@_04OMKF@data?$AA@     0048cd00     krnln_static:wave.obj
 0003:00009d08       ??_C@_04HBLJ@fmt?5?$AA@    0048cd08     krnln_static:wave.obj
 0003:00009d10       ??_C@_04DOFO@WAVE?$AA@     0048cd10     krnln_static:wave.obj
 0003:00009d18       ??_C@_04ILOB@RIFF?$AA@     0048cd18     krnln_static:wave.obj
 0003:00009d20       ??_C@_0BI@MIAD@?T?X?H?k?$LE?$LA?$LP?Z?D?$KD?$LA?e?J?$PN?$LO?$NN?$LG?N?$LD?v?$LE?m?$CB?$AA@ 0048cd20     krnln_static:static_lib.obj
 0003:00009d78       ??_C@_02JDLK@?$CFx?$AA@    0048cd78     krnln_static:md5.obj
 0003:00009d7c       ??_C@_03PAAF@0?$CFx?$AA@   0048cd7c     krnln_static:md5.obj
 0003:00009d80       ??_C@_02EEGL@00?$AA@       0048cd80     krnln_static:md5.obj
 0003:00009d84       ??_C@_0BE@OFKF@?$LC?$LL?D?$NM?$LE?r?$LP?$KK?$LE?r?S?$KB?$LL?z?I?h?$LB?$LI?4?$AA@ 0048cd84     krnln_static:PrinterSetup.obj
 0003:00009d98       ??_C@_0BG@GCEF@?G?k?Q?$KB?T?q?S?$PL?$LE?r?S?$KB?$LF?$LN?N?D?$LM?$PO?C?$PL?3?$AA@ 0048cd98     krnln_static:PrinterSetup.obj
 0003:00009db0       ??_C@_07NNEC@out?4prn?$AA@ 0048cdb0     krnln_static:PrinterSetup.obj
 0003:00009db8       ??_C@_0CP@GKOF@?N?$NO?$AA?I?O?$LB?$NP?W?s?$AA?I?O?$LB?$NP?V?P?$AA?I?O?$LB?$NP?S?R?$AA?O?B?$LB?$NP?W?s?$AA?O@ 0048cdb8     krnln_static:PrinterSetup.obj
 0003:00009de8       ??_C@_0CH@KLAK@?$LE?r?S?$KB?H?$KL?$LC?$LP?R?$LD?$AA?$LN?v?$LE?r?S?$KB?F?f?J?$PN?R?$LD?$AA?$LN?v?$LE?r?S?$KB?E?$LM@ 0048cde8     krnln_static:PrinterSetup.obj
 0003:00009e10       ??_C@_09IJGO@?$LN?a?J?x?R?$LD?$LK?E?3?$AA@ 0048ce10     krnln_static:PrinterSetup.obj
 0003:00009e1c       ??_C@_09FIBF@?$LN?a?J?x?P?P?$LK?E?3?$AA@ 0048ce1c     krnln_static:PrinterSetup.obj
 0003:00009e28       ??_C@_09NGDF@?F?p?J?$LM?R?$LD?$LK?E?3?$AA@ 0048ce28     krnln_static:PrinterSetup.obj
 0003:00009e34       ??_C@_09HEO@?F?p?J?$LM?P?P?$LK?E?3?$AA@ 0048ce34     krnln_static:PrinterSetup.obj
 0003:00009e40       ??_C@_05LFKM@?$CFd?4?$CFd?$AA@ 0048ce40     krnln_static:PrinterSetup.obj
 0003:00009e98       ??_C@_04LEJI@?M?K?$LD?v?$AA@ 0048ce98     krnln_static:PreviewDlg.obj
 0003:00009ea0       ??_C@_04OBLB@?$LF?H?$LI?$NP?$AA@ 0048cea0     krnln_static:PreviewDlg.obj
 0003:00009ea8       ??_C@_04COFK@?$LF?H?$LP?m?$AA@ 0048cea8     krnln_static:PreviewDlg.obj
 0003:00009eb0       ??_C@_04GJFE@?K?u?P?$KB?$AA@ 0048ceb0     krnln_static:PreviewDlg.obj
 0003:00009eb8       ??_C@_04GCBG@?$LH?E?$LE?s?$AA@ 0048ceb8     krnln_static:PreviewDlg.obj
 0003:00009ec0       ??_C@_08EEBK@?$LF?$LN?V?$LI?$LG?$KI?R?$LD?$AA@ 0048cec0     krnln_static:PreviewDlg.obj
 0003:00009ecc       ??_C@_04PAMJ@?O?B?R?$LD?$AA@ 0048cecc     krnln_static:PreviewDlg.obj
 0003:00009ed4       ??_C@_04KFNM@?I?O?R?$LD?$AA@ 0048ced4     krnln_static:PreviewDlg.obj
 0003:00009edc       ??_C@_08IOPL@?$LE?r?S?$KB?I?h?V?C?$AA@ 0048cedc     krnln_static:PreviewDlg.obj
 0003:00009ee8       ??_C@_04JHAC@?$LE?r?S?$KB?$AA@ 0048cee8     krnln_static:PreviewDlg.obj
 0003:00009ef0       ??_C@_07DEMH@?$CFd?5?1?5?$CFd?$AA@ 0048cef0     krnln_static:PreviewDlg.obj
 0003:00009ef8       ??_C@_0L@HBJA@?$LE?r?S?$KB?R?$LD?J?$KH?$LA?$NM?$AA@ 0048cef8     krnln_static:PrintStatusDlg.obj
 0003:00009f04       ??_C@_0CD@CNP@?U?$PN?T?Z?$LE?r?S?$KB?$LF?Z?5?$CFd?1?$CFd?5?$LH?$NN?5?$CFd?1?$CFd?5?R?$LD?$LF?$LN?5?$CF@ 0048cf04     krnln_static:PrintStatusDlg.obj
 0003:00009f28       ??_C@_0BB@PGNG@?$LE?$LE?$LN?$KI?$LE?r?S?$KB?W?w?R?$LF?J?$KH?$LA?$NM?$AA@ 0048cf28     krnln_static:PrintStatusDlg.obj
 0003:00009f3c       ??_C@_0BD@BLJI@?N?$NO?$LH?$KI?$LE?$LE?$LN?$KI?$LE?r?S?$KB?$LL?z?I?h?$LB?$LI?$AA@ 0048cf3c     krnln_static:PrintStatusDlg.obj
 0003:00009f50       ??_C@_06JJEO@?$LE?r?S?$KB?$LL?z?$AA@ 0048cf50     krnln_static:PrintStatusDlg.obj
 0003:00009f58       ??_C@_06POJK@?N?D?$LM?$PO?3?5?$AA@ 0048cf58     krnln_static:PrintStatusDlg.obj
 0003:00009f60       ??_C@_0BJ@INBD@?N?$LE?V?$LI?$LG?$KI?S?$PL?$LE?r?S?$KB?$LF?$LN?$LF?D?N?D?$LM?$PO?C?$PL?$LD?F?$AA@ 0048cf60     krnln_static:PrintStatusDlg.obj
 0003:00009f7c       ??_C@_04LOMG@?$LB?$KI?$LB?m?$AA@ 0048cf7c     krnln_static:PrintStatusDlg.obj
 0003:00009f88       ?m_crColours@CColourPopup@@2PAUColourTableEntry@@A 0048cf88     krnln_static:Clrpopup.obj
 0003:0000a088       ??_C@_04DEKB@?I?n?$LL?R?$AA@ 0048d088     krnln_static:Clrpopup.obj
 0003:0000a090       ??_C@_04MFJB@?$NM?$LN?$LK?l?$AA@ 0048d090     krnln_static:Clrpopup.obj
 0003:0000a098       ??_C@_04HJBL@?L?R?$LK?l?$AA@ 0048d098     krnln_static:Clrpopup.obj
 0003:0000a0a0       ??_C@_04FCPN@?$LD?H?$LL?F?$AA@ 0048d0a0     krnln_static:Clrpopup.obj
 0003:0000a0a8       ??_C@_04HLJG@?G?$OA?$MA?$LG?$AA@ 0048d0a8     krnln_static:Clrpopup.obj
 0003:0000a0b0       ??_C@_04NKKJ@?$LL?R?B?L?$AA@ 0048d0b0     krnln_static:Clrpopup.obj
 0003:0000a0b8       ??_C@_04OGBP@?L?l?$MA?$LG?$AA@ 0048d0b8     krnln_static:Clrpopup.obj
 0003:0000a0c0       ??_C@_04BMEL@?W?O?I?$KL?$AA@ 0048d0c0     krnln_static:Clrpopup.obj
 0003:0000a0c8       ??_C@_04GHJL@?R?x?$LA?W?$AA@ 0048d0c8     krnln_static:Clrpopup.obj
 0003:0000a0d0       ??_C@_04NEPE@?D?$NL?$LL?F?$AA@ 0048d0d0     krnln_static:Clrpopup.obj
 0003:0000a0d8       ??_C@_04FFDI@?$LH?$NL?$LK?l?$AA@ 0048d0d8     krnln_static:Clrpopup.obj
 0003:0000a0e0       ??_C@_04LLHF@?$LL?F?$LK?V?$AA@ 0048d0e0     krnln_static:Clrpopup.obj
 0003:0000a0e8       ??_C@_04JAF@?G?$OA?B?L?$AA@ 0048d0e8     krnln_static:Clrpopup.obj
 0003:0000a0f0       ??_C@_04GDMC@?D?$NL?B?L?$AA@ 0048d0f0     krnln_static:Clrpopup.obj
 0003:0000a0f8       ??_C@_04JDGA@?$LC?X?$MA?$LG?$AA@ 0048d0f8     krnln_static:Clrpopup.obj
 0003:0000a100       ??_C@_04PBG@?$MA?$LG?$LL?R?$AA@ 0048d100     krnln_static:Clrpopup.obj
 0003:0000a108       ??_C@_04KJON@?$LA?W?I?$KL?$AA@ 0048d108     krnln_static:Clrpopup.obj
 0003:0000a110       ??_C@_04JPPH@?$LL?F?I?$KL?$AA@ 0048d110     krnln_static:Clrpopup.obj
 0003:0000a118       ??_C@_04MEBM@?F?$LH?$LK?l?$AA@ 0048d118     krnln_static:Clrpopup.obj
 0003:0000a120       ??_C@_04MMOI@?$LK?l?I?$KL?$AA@ 0048d120     krnln_static:Clrpopup.obj
 0003:0000a128       ??_C@_04HMLB@?Q?$NO?G?$OA?$AA@ 0048d128     krnln_static:Clrpopup.obj
 0003:0000a130       ??_C@_04PEL@?B?L?I?$KL?$AA@ 0048d130     krnln_static:Clrpopup.obj
 0003:0000a138       ??_C@_04JHGC@?$MA?$LG?I?$KL?$AA@ 0048d138     krnln_static:Clrpopup.obj
 0003:0000a140       ??_C@_04PGMH@?$LL?R?I?$KL?$AA@ 0048d140     krnln_static:Clrpopup.obj
 0003:0000a148       ??_C@_04OPOE@?G?$LD?$LL?R?$AA@ 0048d148     krnln_static:Clrpopup.obj
 0003:0000a150       ??_C@_04LHKB@?$LK?V?B?L?$AA@ 0048d150     krnln_static:Clrpopup.obj
 0003:0000a158       ??_C@_04MCMP@?W?O?$LK?l?$AA@ 0048d158     krnln_static:Clrpopup.obj
 0003:0000a160       ??_C@_04OIGK@?$LK?l?$LK?V?$AA@ 0048d160     krnln_static:Clrpopup.obj
 0003:0000a168       ??_C@_04GALP@?I?n?G?$OA?$AA@ 0048d168     krnln_static:Clrpopup.obj
 0003:0000a170       ??_C@_04IFNH@?D?$KL?B?L?$AA@ 0048d170     krnln_static:Clrpopup.obj
 0003:0000a178       ??_C@_04BPH@?$LC?X?G?$OA?$AA@ 0048d178     krnln_static:Clrpopup.obj
 0003:0000a180       ??_C@_04EDCA@?$LK?Z?I?$KL?$AA@ 0048d180     krnln_static:Clrpopup.obj
 0003:0000a188       ??_C@_0BG@LNGG@Bogus?5message?5code?5?$CFd?$AA@ 0048d188     krnln_static:JERROR.OBJ
 0003:0000a1a0       ??_C@_0BL@EODA@?G?k?J?d?H?k?S?$PL?L?x?W?$KK?$LF?$LN?R?$LD?$LK?E?$CI?$CFd?9?$CFd?$CJ?3?$AA@ 0048d1a0     krnln_static:GotoPageDlg.obj
 0003:0000a1bc       ??_C@_05HLOL@?$CFld?$CFc?$AA@ 0048d1bc     krnln_static:JMEMMGR.OBJ
 0003:0000a1c4       ??_C@_07CBHP@JPEGMEM?$AA@  0048d1c4     krnln_static:JMEMMGR.OBJ
 0003:0000a1cc       edroptarget_??_C@_02PIMC@?$AN?6?$AA@ 0048d1cc     edroptarget_static:GuiElib.obj
 0003:0000a1d0       edroptarget_??_C@_0BM@PGAF@EDropTarget?3?3QueryInterface?$AA@ 0048d1d0     edroptarget_static:EDropTargetclass.obj
 0003:0000a1ec       edroptarget_??_C@_0BH@PMMI@EDropTarget?3?3DragEnter?$AA@ 0048d1ec     edroptarget_static:EDropTargetclass.obj
 0003:0000a204       edroptarget_??_C@_0BG@OHHB@EDropTarget?3?3DragOver?$AA@ 0048d204     edroptarget_static:EDropTargetclass.obj
 0003:0000a21c       edroptarget_??_C@_0BH@IOEE@EDropTarget?3?3DragLeave?$AA@ 0048d21c     edroptarget_static:EDropTargetclass.obj
 0003:0000a234       edroptarget_??_C@_13ECNF@?$AA?5?$AA?$AA@ 0048d234     edroptarget_static:EDropTargetclass.obj
 0003:0000a238       edroptarget_??_C@_0BC@PKGO@EDropTarget?3?3Drop?$AA@ 0048d238     edroptarget_static:EDropTargetclass.obj
 0003:0000a24c       edroptarget_??_C@_0BH@NIGK@UniformResourceLocator?$AA@ 0048d24c     edroptarget_static:EDropTargetclass.obj
 0003:0000a264       edroptarget_??_C@_0M@HPLO@HTML?5Format?$AA@ 0048d264     edroptarget_static:EDropTargetclass.obj
 0003:0000a270       edroptarget_??_R0PAVCException@@@8 0048d270     edroptarget_static:PIDropTarget.obj
 0003:0000a290       iext_??_R0PAVCException@@@8 0048d290     iext_static:unit.obj
 0003:0000a2b0       ?_afxNewHandler@@3P6AHI@ZA 0048d2b0     nafxcw:afxmem.obj
 0003:0000a2b4       ?_afxPchNil@@3PBDB         0048d2b4     nafxcw:strcore.obj
 0003:0000a2b8       ?_afxDataNil@@3PAUCStringData@@A 0048d2b8     nafxcw:strcore.obj
 0003:0000a2bc       ?_afxInitData@@3PAHA       0048d2bc     nafxcw:strcore.obj
 0003:0000a2cc       ?_afxMonthDays@@3PAHA      0048d2cc     nafxcw:olevar.obj
 0003:0000a300       ??_R0PAX@8                 0048d300     nafxcw:except.obj
 0003:0000a310       ??_R0PAVCObject@@@8        0048d310     nafxcw:except.obj
 0003:0000a328       ??_R0PAVCSimpleException@@@8 0048d328     nafxcw:except.obj
 0003:0000a348       ??_R0PAVCMemoryException@@@8 0048d348     nafxcw:except.obj
 0003:0000a368       ??_R0?AVCObject@@@8        0048d368     nafxcw:except.obj
 0003:0000a380       ??_R0?AVCException@@@8     0048d380     nafxcw:except.obj
 0003:0000a3a0       ??_R0?AVCSimpleException@@@8 0048d3a0     nafxcw:except.obj
 0003:0000a3c0       ??_R0?AVCMemoryException@@@8 0048d3c0     nafxcw:except.obj
 0003:0000a3e0       ??_R0?AVCNotSupportedException@@@8 0048d3e0     nafxcw:except.obj
 0003:0000a408       ??_R0?AVCFile@@@8          0048d408     nafxcw:filecore.obj
 0003:0000a420       ??_R0?AVCFileException@@@8 0048d420     nafxcw:filecore.obj
 0003:0000a440       ??_R0?AVCMemFile@@@8       0048d440     nafxcw:filemem.obj
 0003:0000a458       ??_R0?AVCDC@@@8            0048d458     nafxcw:wingdi.obj
 0003:0000a470       ??_R0?AVCClientDC@@@8      0048d470     nafxcw:wingdi.obj
 0003:0000a488       ??_R0?AVCWindowDC@@@8      0048d488     nafxcw:wingdi.obj
 0003:0000a4a0       ??_R0?AVCPaintDC@@@8       0048d4a0     nafxcw:wingdi.obj
 0003:0000a4b8       ??_R0?AVCGdiObject@@@8     0048d4b8     nafxcw:wingdi.obj
 0003:0000a4d8       ??_R0?AVCPen@@@8           0048d4d8     nafxcw:wingdi.obj
 0003:0000a4f0       ??_R0?AVCBrush@@@8         0048d4f0     nafxcw:wingdi.obj
 0003:0000a508       ??_R0?AVCTempDC@@@8        0048d508     nafxcw:wingdi.obj
 0003:0000a520       ??_R0?AVCTempGdiObject@@@8 0048d520     nafxcw:wingdi.obj
 0003:0000a540       ??_R0PAVCResourceException@@@8 0048d540     nafxcw:wingdi.obj
 0003:0000a568       ??_R0PAVCUserException@@@8 0048d568     nafxcw:wingdi.obj
 0003:0000a588       ??_R0?AVCResourceException@@@8 0048d588     nafxcw:wingdi.obj
 0003:0000a5b0       ??_R0?AVCUserException@@@8 0048d5b0     nafxcw:wingdi.obj
 0003:0000a5d0       ??_R0?AVCCmdTarget@@@8     0048d5d0     nafxcw:dlgcore.obj
 0003:0000a5f0       ??_R0?AVCWnd@@@8           0048d5f0     nafxcw:dlgcore.obj
 0003:0000a608       ??_R0?AVCDialog@@@8        0048d608     nafxcw:dlgcore.obj
 0003:0000a620       ??_R0?AVCCmdUI@@@8         0048d620     nafxcw:wincore.obj
 0003:0000a638       ??_R0?AVCTestCmdUI@@@8     0048d638     nafxcw:wincore.obj
 0003:0000a658       ??_R0?AVCTempWnd@@@8       0048d658     nafxcw:wincore.obj
 0003:0000a670       ??_R0?AVCNoTrackObject@@@8 0048d670     nafxcw:wincore.obj
 0003:0000a690       ??_R0?AV_AFX_CTL3D_STATE@@@8 0048d690     nafxcw:wincore.obj
 0003:0000a6b0       ??_R0?AVCPtrArray@@@8      0048d6b0     nafxcw:array_p.obj
 0003:0000a6c8       ??_R0?AVCStatic@@@8        0048d6c8     nafxcw:winctrl1.obj
 0003:0000a6e0       ??_R0?AVCButton@@@8        0048d6e0     nafxcw:winctrl1.obj
 0003:0000a6f8       ??_R0?AVCComboBox@@@8      0048d6f8     nafxcw:winctrl1.obj
 0003:0000a710       ??_R0?AVCEdit@@@8          0048d710     nafxcw:winctrl1.obj
 0003:0000a728       ??_R0?AV_AFX_CHECKLIST_STATE@@@8 0048d728     nafxcw:winctrl3.obj
 0003:0000a750       ??_R0?AVCBitmap@@@8        0048d750     nafxcw:winctrl3.obj
 0003:0000a768       ??_R0?AVCRgn@@@8           0048d768     nafxcw:wingdix.obj
 0003:0000a780       ??_R0?AVCCommonDialog@@@8  0048d780     nafxcw:dlgprnt.obj
 0003:0000a7a0       ??_R0?AVCFileDialog@@@8    0048d7a0     nafxcw:dlgfile.obj
 0003:0000a7c0       ??_R0?AV_AFX_THREAD_STATE@@@8 0048d7c0     nafxcw:afxstate.obj
 0003:0000a7e0       ??_R0?AVAFX_MODULE_STATE@@@8 0048d7e0     nafxcw:afxstate.obj
 0003:0000a800       ??_R0?AVAFX_MODULE_THREAD_STATE@@@8 0048d800     nafxcw:afxstate.obj
 0003:0000a828       ??_R0?AV_AFX_BASE_MODULE_STATE@@@8 0048d828     nafxcw:afxstate.obj
 0003:0000a850       ?classCStringArray@CStringArray@@2UCRuntimeClass@@A 0048d850     nafxcw:array_s.obj
 0003:0000a868       ??_R0?AVCStringArray@@@8   0048d868     nafxcw:array_s.obj
 0003:0000a888       ??_R0?AUCThreadData@@@8    0048d888     nafxcw:afxtls.obj
 0003:0000a8a4       ?bStaticInit@CDocManager@@2HA 0048d8a4     nafxcw:appcore.obj
 0003:0000a8a8       ??_R0?AV_AFX_WIN_STATE@@@8 0048d8a8     nafxcw:appcore.obj
 0003:0000a8c8       ??_R0?AVCWinThread@@@8     0048d8c8     nafxcw:appcore.obj
 0003:0000a8e8       ??_R0?AVCWinApp@@@8        0048d8e8     nafxcw:appcore.obj
 0003:0000a900       ??_R0?AVCListCtrl@@@8      0048d900     nafxcw:winctrl2.obj
 0003:0000a918       ??_R0?AVCProgressCtrl@@@8  0048d918     nafxcw:winctrl2.obj
 0003:0000a938       ??_R0?AVCImageList@@@8     0048d938     nafxcw:winctrl2.obj
 0003:0000a958       ??_R0?AVCTempImageList@@@8 0048d958     nafxcw:winctrl2.obj
 0003:0000a978       ??_R0PAVCArchiveException@@@8 0048d978     nafxcw:arccore.obj
 0003:0000a998       ??_R0?AVCArchiveException@@@8 0048d998     nafxcw:arcex.obj
 0003:0000a9b8       ??_R0?AVCSharedFile@@@8    0048d9b8     nafxcw:fileshrd.obj
 0003:0000a9d4       ?_dispatchEntryCount@CCmdTarget@@0IA 0048d9d4     nafxcw:cmdtarg.obj
 0003:0000a9d8       ?_dwStockPropMask@CCmdTarget@@0KA 0048d9d8     nafxcw:cmdtarg.obj
 0003:0000a9dc       ?_eventsinkEntryCount@CCmdTarget@@0IA 0048d9dc     nafxcw:cmdtarg.obj
 0003:0000a9e0       ??_R0?AVCFontDialog@@@8    0048d9e0     nafxcw:dlgfnt.obj
 0003:0000aa00       ??_R0?AV_AFX_CTL3D_THREAD@@@8 0048da00     nafxcw:thrdcore.obj
 0003:0000aa20       ??_R0?AVCMenu@@@8          0048da20     nafxcw:winmenu.obj
 0003:0000aa38       ??_R0?AVCTempMenu@@@8      0048da38     nafxcw:winmenu.obj
 0003:0000aa50       ?classCDWordArray@CDWordArray@@2UCRuntimeClass@@A 0048da50     nafxcw:array_d.obj
 0003:0000aa68       ??_R0?AVCDWordArray@@@8    0048da68     nafxcw:array_d.obj
 0003:0000aa88       ?classCWordArray@CWordArray@@2UCRuntimeClass@@A 0048da88     nafxcw:array_w.obj
 0003:0000aaa0       ??_R0?AVCWordArray@@@8     0048daa0     nafxcw:array_w.obj
 0003:0000aac0       ??_R0?AVCMapPtrToPtr@@@8   0048dac0     nafxcw:map_pp.obj
 0003:0000aae0       ??_R0?AVCToolTipCtrl@@@8   0048dae0     nafxcw:tooltip.obj
 0003:0000ab00       ??_R0?AV_AFX_COLOR_STATE@@@8 0048db00     nafxcw:dlgclr.obj
 0003:0000ab20       ??_R0?AVCColorDialog@@@8   0048db20     nafxcw:dlgclr.obj
 0003:0000ab40       ??_R0?AUIUnknown@@@8       0048db40     nafxcw:arcstrm.obj
 0003:0000ab58       ??_R0?AUISequentialStream@@@8 0048db58     nafxcw:arcstrm.obj
 0003:0000ab78       ??_R0?AUIStream@@@8        0048db78     nafxcw:arcstrm.obj
 0003:0000ab90       ??_R0?AVCArchiveStream@@@8 0048db90     nafxcw:arcstrm.obj
 0003:0000abb0       ??_R0?AVCHandleMap@@@8     0048dbb0     nafxcw:winhand.obj
 0003:0000abd0       ??_R0?AVCMapStringToPtr@@@8 0048dbd0     nafxcw:map_sp.obj
 0003:0000abf0       __aexit_rtn                0048dbf0     libcmt:wincrt0.obj
 0003:0000abf4       ___app_type                0048dbf4     libcmt:wincrt0.obj
 0003:0000abf8       __fltused                  0048dbf8     libcmt:fpinit.obj
 0003:0000abfc       __ldused                   0048dbfc     libcmt:fpinit.obj
 0003:0000ac00       __FPinit                   0048dc00     libcmt:fpinit.obj
 0003:0000ac04       __FPmtinit                 0048dc04     libcmt:fpinit.obj
 0003:0000ac08       __FPmtterm                 0048dc08     libcmt:fpinit.obj
 0003:0000ac10       __half                     0048dc10     libcmt:pow.obj
 0003:0000ac20       __OP_FMODjmptab            0048dc20     libcmt:87fmod.obj
 0003:0000ac74       __NLG_Destination          0048dc74     libcmt:exsup.obj
 0003:0000ac90       ??_R0?AVtype_info@@@8      0048dc90     libcmt:typinfo.obj
 0003:0000acb0       __iob                      0048dcb0     libcmt:_file.obj
 0003:0000af30       ?__pMyUnhandledExceptionFilter@@3PAXA 0048df30     libcmt:throw.obj
 0003:0000af38       ___lc_time_curr            0048df38     libcmt:strftime.obj
 0003:0000af40       ___lc_time_c               0048df40     libcmt:strftime.obj
 0003:0000b250       __XcptActTab               0048e250     libcmt:winxfltr.obj
 0003:0000b2c8       __First_FPE_Indx           0048e2c8     libcmt:winxfltr.obj
 0003:0000b2cc       __Num_FPE                  0048e2cc     libcmt:winxfltr.obj
 0003:0000b2d0       __XcptActTabSize           0048e2d0     libcmt:winxfltr.obj
 0003:0000b2d4       __XcptActTabCount          0048e2d4     libcmt:winxfltr.obj
 0003:0000b2d8       ___badioinfo               0048e2d8     libcmt:ioinit.obj
 0003:0000b2fc       ___tlsindex                0048e2fc     libcmt:tidtable.obj
 0003:0000b300       __amblksiz                 0048e300     libcmt:heapinit.obj
 0003:0000b398       __cfltcvt_tab              0048e398     libcmt:cmiscdat.obj
 0003:0000b3b0       __infinity                 0048e3b0     libcmt:87tran.obj
 0003:0000b3ba       __minfinity                0048e3ba     libcmt:87tran.obj
 0003:0000b3c4       __logemax                  0048e3c4     libcmt:87tran.obj
 0003:0000b3ea       __OP_EXPjmptab             0048e3ea     libcmt:87tran.obj
 0003:0000b410       __indefinite               0048e410     libcmt:87disp.obj
 0003:0000b41a       __piby2                    0048e41a     libcmt:87disp.obj
 0003:0000b518       __d_inf                    0048e518     libcmt:util.obj
 0003:0000b520       __d_ind                    0048e520     libcmt:util.obj
 0003:0000b528       __d_max                    0048e528     libcmt:util.obj
 0003:0000b530       __d_min                    0048e530     libcmt:util.obj
 0003:0000b538       __d_mzero                  0048e538     libcmt:util.obj
 0003:0000b6c0       __locktable                0048e6c0     libcmt:mlock.obj
 0003:0000b790       ?__pInconsistency@@3P6AXXZA 0048e790     libcmt:hooks.obj
 0003:0000b794       __pctype                   0048e794     libcmt:ctype.obj
 0003:0000b798       __pwctype                  0048e798     libcmt:ctype.obj
 0003:0000b79c       __ctype                    0048e79c     libcmt:ctype.obj
 0003:0000b9a0       ___mb_cur_max              0048e9a0     libcmt:nlsdata1.obj
 0003:0000b9a4       ___decimal_point           0048e9a4     libcmt:nlsdata1.obj
 0003:0000b9a8       ___decimal_point_length    0048e9a8     libcmt:nlsdata1.obj
 0003:0000b9b0       ___old_small_block_heap    0048e9b0     libcmt:sbheap.obj
 0003:0000d9d4       ___old_sbh_threshold       004909d4     libcmt:sbheap.obj
 0003:0000d9d8       ___nullstring              004909d8     libcmt:output.obj
 0003:0000d9dc       ___wnullstring             004909dc     libcmt:output.obj
 0003:0000db00       __timezone                 00490b00     libcmt:timeset.obj
 0003:0000db04       __daylight                 00490b04     libcmt:timeset.obj
 0003:0000db08       __dstbias                  00490b08     libcmt:timeset.obj
 0003:0000db8c       __tzname                   00490b8c     libcmt:timeset.obj
 0003:0000dbb4       __lpdays                   00490bb4     libcmt:days.obj
 0003:0000dbe8       __days                     00490be8     libcmt:days.obj
 0003:0000dc50       __matherr_flag             00490c50     libcmt:matherr.obj
 0003:0000dc60       ___lconv_static_decimal    00490c60     libcmt:lconv.obj
 0003:0000dc68       ___lconv_c                 00490c68     libcmt:lconv.obj
 0003:0000dc98       ___lconv                   00490c98     libcmt:lconv.obj
 0003:0000dca0       __pow10pos                 00490ca0     libcmt:constpow.obj
 0003:0000de00       __pow10neg                 00490e00     libcmt:constpow.obj
 0003:0000df60       ??_R0?AVexception@@@8      00490f60     libcpmt:string.obj
 0003:0000df78       ??_R0?AVlogic_error@std@@@8 00490f78     libcpmt:string.obj
 0003:0000df98       ??_R0?AVlength_error@std@@@8 00490f98     libcpmt:string.obj
 0003:0000dfb8       ??_R0?AVout_of_range@std@@@8 00490fb8     libcpmt:string.obj
 0003:0000e324       __coninpfh                 00491324     libcmt:initcon.obj
 0003:0000e328       __confh                    00491328     libcmt:initcon.obj
 0003:0000e374       ?s_DBState@@3V?$CThreadLocal@VCMDBState@@@@A 00491374     krnln_static:Libfn.obj
 0003:0000e37c       ??_C@_00A@?$AA@            0049137c     krnln_static:Libfn.obj
 0003:0000e3b8       ?_m_membuf@@3UMEM_BUF@@A   004913b8     krnln_static:krnl2.obj
 0003:0001a430       ?g_fnNotifySys@@3P6GHHKK@ZA 0049d430     krnln_static:krnl2.obj
 0003:0001a458       ?theApp@@3VCKrnlApp@@A     0049d458     krnln_static:Krnl.obj
 0003:0001aa5c       ?s_wRet@@3GA               0049da5c     krnln_static:Diskid32.obj
 0003:0001aa60       ?diskdata@@3PAKA           0049da60     krnln_static:Diskid32.obj
 0003:0001ae60       ?s_cfCellsData@@3GA        0049de60     krnln_static:MGrid.obj
 0003:0001ae88       ?s_ComState@@3V?$CThreadLocal@VCMComState@@@@A 0049de88     krnln_static:com.obj
 0003:0001aec0       ?m_nWaitMillisecond@CEDatabase@@2HA 0049dec0     krnln_static:Database.obj
 0003:0001aee8       ?gcs@@3U_RTL_CRITICAL_SECTION@@A 0049dee8     krnln_static:wave.obj
 0003:0001af00       ?g_Waves@@3V?$vector@PAUGWAVE@@V?$allocator@PAUGWAVE@@@std@@@std@@A 0049df00     krnln_static:wave.obj
 0003:0001af4c       edroptarget_??_C@_00A@?$AA@ 0049df4c     edroptarget_static:EDropTarget1.obj
 0003:0001af50       iext_??_C@_00A@?$AA@       0049df50     iext_static:libfn.obj
 0003:0001af54       iext_?g_nLastNotifyResult@@3HA 0049df54     iext_static:iext.obj
 0003:0001af58       iext_?g_fnNotifySys@@3P6GHHKK@ZA 0049df58     iext_static:iext.obj
 0003:0001af60       iext_?_m_membuf@@3UMEM_BUF@@A 0049df60     iext_static:Mem.obj
 0003:00026fc8       __afxForceEXCLUDE          004a9fc8     nafxcw:nolib.obj
 0003:00026fd0       ?_afxAlloc512@@3VCFixedAlloc@@A 004a9fd0     nafxcw:strcore.obj
 0003:00026ff8       ?_afxAlloc256@@3VCFixedAlloc@@A 004a9ff8     nafxcw:strcore.obj
 0003:00027020       ?_afxAlloc128@@3VCFixedAlloc@@A 004aa020     nafxcw:strcore.obj
 0003:00027048       ?_afxAlloc64@@3VCFixedAlloc@@A 004aa048     nafxcw:strcore.obj
 0003:00027070       ?afxChNil@@3DA             004aa070     nafxcw:strcore.obj
 0003:00027078       ?_simpleNotSupportedException@@3VCNotSupportedException@@A 004aa078     nafxcw:except.obj
 0003:00027110       ?_simpleMemoryException@@3VCMemoryException@@A 004aa110     nafxcw:except.obj
 0003:000271b0       ?_simpleUserException@@3VCUserException@@A 004aa1b0     nafxcw:wingdi.obj
 0003:00027248       ?_simpleResourceException@@3VCResourceException@@A 004aa248     nafxcw:wingdi.obj
 0003:000272e0       ?s_alloc@CTempGdiObject@@1VCFixedAlloc@@A 004aa2e0     nafxcw:wingdi.obj
 0003:00027308       ?s_alloc@CTempDC@@1VCFixedAlloc@@A 004aa308     nafxcw:wingdi.obj
 0003:00027334       ?_afxGotScrollLines@@3HA   004aa334     nafxcw:wincore.obj
 0003:00027338       ?_afxMsgCache@@3PAUAFX_MSG_CACHE@@A 004aa338     nafxcw:wincore.obj
 0003:00028b38       ?s_alloc@CTempWnd@@1VCFixedAlloc@@A 004abb38     nafxcw:wincore.obj
 0003:00028b60       ?wndNoTopMost@CWnd@@2V1@B  004abb60     nafxcw:wincore.obj
 0003:00028ba0       ?wndTopMost@CWnd@@2V1@B    004abba0     nafxcw:wincore.obj
 0003:00028be0       ?wndBottom@CWnd@@2V1@B     004abbe0     nafxcw:wincore.obj
 0003:00028c20       ?wndTop@CWnd@@2V1@B        004abc20     nafxcw:wincore.obj
 0003:00028c5c       ?m_nMsgDragList@CWnd@@1IB  004abc5c     nafxcw:wincore.obj
 0003:00028c60       _g_pfnGetSystemMetrics     004abc60     nafxcw:wincore.obj
 0003:00028c64       _g_pfnMonitorFromWindow    004abc64     nafxcw:wincore.obj
 0003:00028c68       _g_pfnMonitorFromRect      004abc68     nafxcw:wincore.obj
 0003:00028c6c       _g_pfnMonitorFromPoint     004abc6c     nafxcw:wincore.obj
 0003:00028c70       _g_pfnGetMonitorInfo       004abc70     nafxcw:wincore.obj
 0003:00028c74       _g_pfnEnumDisplayMonitors  004abc74     nafxcw:wincore.obj
 0003:00028c78       _g_fMultiMonInitDone       004abc78     nafxcw:wincore.obj
 0003:00028c7c       ?_afxChecklistState@@3V?$CProcessLocal@V_AFX_CHECKLIST_STATE@@@@A 004abc7c     nafxcw:winctrl3.obj
 0003:00028c80       ?_afxHalftoneBrush@@3PAUHBRUSH__@@A 004abc80     nafxcw:wingdix.obj
 0003:00028c84       ?_afxWingdixTerm@@3DA      004abc84     nafxcw:wingdix.obj
 0003:00028c88       ?_afxBaseModuleState@@3V?$CProcessLocal@V_AFX_BASE_MODULE_STATE@@@@A 004abc88     nafxcw:afxstate.obj
 0003:00028c8c       ?_afxThreadState@@3V?$CThreadLocal@V_AFX_THREAD_STATE@@@@A 004abc8c     nafxcw:afxstate.obj
 0003:00028c90       ?_init_CStringArray@@3UAFX_CLASSINIT@@A 004abc90     nafxcw:array_s.obj
 0003:00028c94       ?_afxTlsRef@@3JA           004abc94     nafxcw:afxtls.obj
 0003:00028c98       ?_afxThreadData@@3PAVCThreadSlotData@@A 004abc98     nafxcw:afxtls.obj
 0003:00028c9c       ?__afxThreadData@@3PAEA    004abc9c     nafxcw:afxtls.obj
 0003:00028cd0       ?_afxWinState@@3V?$CProcessLocal@V_AFX_WIN_STATE@@@@A 004abcd0     nafxcw:appcore.obj
 0003:00028cd4       ?pStaticDocManager@CDocManager@@2PAV1@A 004abcd4     nafxcw:appcore.obj
 0003:00028cd8       ?pStaticList@CDocManager@@2PAVCPtrList@@A 004abcd8     nafxcw:appcore.obj
 0003:00028ce8       ?s_alloc@CTempImageList@@1VCFixedAlloc@@A 004abce8     nafxcw:winctrl2.obj
 0003:00028d18       ?s_alloc@CTempMenu@@1VCFixedAlloc@@A 004abd18     nafxcw:winmenu.obj
 0003:00028d40       ?_init_CDWordArray@@3UAFX_CLASSINIT@@A 004abd40     nafxcw:array_d.obj
 0003:00028d44       ?_init_CWordArray@@3UAFX_CLASSINIT@@A 004abd44     nafxcw:array_w.obj
 0003:00028d48       ?_afxClrState@@3V?$CProcessLocal@V_AFX_COLOR_STATE@@@@A 004abd48     nafxcw:dlgclr.obj
 0003:00028d4c       ?_afxCtl3dThread@@3V?$CThreadLocal@V_AFX_CTL3D_THREAD@@@@A 004abd4c     nafxcw:app3d.obj
 0003:00028d50       ?_afxCtl3dState@@3V?$CProcessLocal@V_AFX_CTL3D_STATE@@@@A 004abd50     nafxcw:app3d.obj
 0003:00028d58       ?afxData@@3UAUX_DATA@@A    004abd58     nafxcw:auxdata.obj
 0003:00028dc4       ?_afxDBCS@@3HB             004abdc4     nafxcw:afxdbcs.obj
 0003:00028dc8       ?_afxLockInit@@3PAHA       004abdc8     nafxcw:afxcrit.obj
 0003:00028e10       ?_afxLockInitLock@@3U_RTL_CRITICAL_SECTION@@A 004abe10     nafxcw:afxcrit.obj
 0003:00028e28       ?_afxResourceLock@@3PAU_RTL_CRITICAL_SECTION@@A 004abe28     nafxcw:afxcrit.obj
 0003:00028fc0       ?_afxCriticalWin32s@@3HA   004abfc0     nafxcw:afxcrit.obj
 0003:00028fc4       ?_afxCriticalInit@@3HA     004abfc4     nafxcw:afxcrit.obj
 0003:00028fc8       ?_afxMsgSETRGB@@3IA        004abfc8     nafxcw:dlgcomm.obj
 0003:00028fcc       ?_afxMsgHELP@@3IA          004abfcc     nafxcw:dlgcomm.obj
 0003:00028fd0       ?_afxMsgCOLOROK@@3IA       004abfd0     nafxcw:dlgcomm.obj
 0003:00028fd4       ?_afxMsgFILEOK@@3IA        004abfd4     nafxcw:dlgcomm.obj
 0003:00028fd8       ?_afxMsgSHAREVI@@3IA       004abfd8     nafxcw:dlgcomm.obj
 0003:00028fdc       ?_afxMsgLBSELCHANGE@@3IA   004abfdc     nafxcw:dlgcomm.obj
 0003:00028ff0       __aenvptr                  004abff0     libcmt:wincrt0.obj
 0003:00028ff4       __wenvptr                  004abff4     libcmt:wincrt0.obj
 0003:00028ff8       ___error_mode              004abff8     libcmt:wincrt0.obj
 0003:00028ffc       ___fastflag                004abffc     libcmt:fpinit.obj
 0003:00029000       __adjust_fdiv              004ac000     libcmt:fpinit.obj
 0003:00029004       __cflush                   004ac004     libcmt:_file.obj
 0003:00029020       __umaskval                 004ac020     libcmt:crt0dat.obj
 0003:00029024       __osver                    004ac024     libcmt:crt0dat.obj
 0003:00029028       __winver                   004ac028     libcmt:crt0dat.obj
 0003:0002902c       __winmajor                 004ac02c     libcmt:crt0dat.obj
 0003:00029030       __winminor                 004ac030     libcmt:crt0dat.obj
 0003:00029034       ___argc                    004ac034     libcmt:crt0dat.obj
 0003:00029038       ___argv                    004ac038     libcmt:crt0dat.obj
 0003:0002903c       ___wargv                   004ac03c     libcmt:crt0dat.obj
 0003:00029040       __environ                  004ac040     libcmt:crt0dat.obj
 0003:00029044       ___initenv                 004ac044     libcmt:crt0dat.obj
 0003:00029048       __wenviron                 004ac048     libcmt:crt0dat.obj
 0003:0002904c       ___winitenv                004ac04c     libcmt:crt0dat.obj
 0003:00029050       __pgmptr                   004ac050     libcmt:crt0dat.obj
 0003:00029054       __wpgmptr                  004ac054     libcmt:crt0dat.obj
 0003:00029058       __exitflag                 004ac058     libcmt:crt0dat.obj
 0003:0002905c       __C_Termination_Done       004ac05c     libcmt:crt0dat.obj
 0003:00029060       __C_Exit_Done              004ac060     libcmt:crt0dat.obj
 0003:00029198       __adbgmsg                  004ac198     libcmt:crt0msg.obj
 0003:00029208       __newmode                  004ac208     libcmt:_newmode.obj
 0003:0002920c       ?_pnhHeap@@3P6AHI@ZA       004ac20c     libcmt:handler.obj
 0003:00029210       __stdbuf                   004ac210     libcmt:_sftbuf.obj
 0003:00029224       ___lc_handle               004ac224     libcmt:nlsdata2.obj
 0003:0002923c       ___lc_codepage             004ac23c     libcmt:nlsdata2.obj
 0003:00029240       ___lc_collate_cp           004ac240     libcmt:nlsdata2.obj
 0003:0002931c       ___lc_time_intl            004ac31c     libcmt:inittime.obj
 0003:00029338       ___lc_id                   004ac338     libcmt:nlsdata3.obj
 0003:000293a0       ___lconv_static_null       004ac3a0     libcmt:lconv.obj
 0003:000293b4       ?_afxInitAppState@@3DA     004ac3b4     nafxcw:appmodul.obj
 0003:000293b5       edroptarget_??_B?1???id@?$ctype@G@std@@$D@@9@51_0 004ac3b5     <common>
 0003:000293b6       edroptarget_??_B?1???id@?$ctype@G@std@@$D@@9@51_3 004ac3b6     <common>
 0003:000293b7       edroptarget_??_B?1???id@?$ctype@G@std@@$D@@9@51_2 004ac3b7     <common>
 0003:000293b8       edroptarget_??_B?1???id@?$ctype@G@std@@$D@@9@51_1 004ac3b8     <common>
 0003:000293bc       ___setlc_active            004ac3bc     <common>
 0003:000293c0       ___unguarded_readlc_active 004ac3c0     <common>
 0003:000293c4       ___sbh_sizeHeaderList      004ac3c4     <common>
 0003:000293c8       ___sbh_indGroupDefer       004ac3c8     <common>
 0003:000293cc       ___sbh_pHeaderScan         004ac3cc     <common>
 0003:000293d0       ___sbh_pHeaderDefer        004ac3d0     <common>
 0003:000293d4       ___sbh_cntHeaderList       004ac3d4     <common>
 0003:000293d8       ___sbh_pHeaderList         004ac3d8     <common>
 0003:000293dc       ___sbh_threshold           004ac3dc     <common>
 0003:000293e0       __crtheap                  004ac3e0     <common>
 0003:000293e4       ___active_heap             004ac3e4     <common>
 0003:00029400       ___pioinfo                 004ac400     <common>
 0003:00029500       __nhandle                  004ac500     <common>
 0003:00029504       ___mbcodepage              004ac504     <common>
 0003:00029510       ___mbulinfo                004ac510     <common>
 0003:0002951c       ___ismbcodepage            004ac51c     <common>
 0003:00029520       __mbcasemap                004ac520     <common>
 0003:00029620       __mbctype                  004ac620     <common>
 0003:00029724       ___mblcid                  004ac724     <common>
 0003:00029728       ___env_initialized         004ac728     <common>
 0003:0002972c       ___mbctype_initialized     004ac72c     <common>
 0003:00029730       ___onexitend               004ac730     <common>
 0003:00029734       ___onexitbegin             004ac734     <common>
 0003:00029738       ___piob                    004ac738     <common>
 0003:00029740       __bufin                    004ac740     <common>
 0003:0002a740       __nstream                  004ad740     <common>
 0003:0002a744       __acmdln                   004ad744     <common>
 0003:0002a748       ??_B?1???id@?$ctype@G@std@@$D@@9@51 004ad748     <common>
 0003:0002a749       ??_B?1???id@?$collate@D@std@@$D@@9@51 004ad749     <common>

 entry point at        0001:0004f000

 Static symbols

 0001:00045380       ?create_colormap@@YAXPAUjpeg_decompress_struct@@@Z 00446380 f   krnln_static:JQUANT1.OBJ
 0001:000454d0       ?select_ncolors@@YAHPAUjpeg_decompress_struct@@QAH@Z 004464d0 f   krnln_static:JQUANT1.OBJ
 0001:000455b0       ?output_value@@YAHPAUjpeg_decompress_struct@@HHH@Z 004465b0 f   krnln_static:JQUANT1.OBJ
 0001:000455d0       ?create_colorindex@@YAXPAUjpeg_decompress_struct@@@Z 004465d0 f   krnln_static:JQUANT1.OBJ
 0001:00045710       ?largest_input_value@@YAHPAUjpeg_decompress_struct@@HHH@Z 00446710 f   krnln_static:JQUANT1.OBJ
 0001:00045730       ?alloc_fs_workspace@@YAXPAUjpeg_decompress_struct@@@Z 00446730 f   krnln_static:JQUANT1.OBJ
 0001:00045770       ?start_pass_1_quant@@YAXPAUjpeg_decompress_struct@@H@Z 00446770 f   krnln_static:JQUANT1.OBJ
 0001:00045860       ?create_odither_tables@@YAXPAUjpeg_decompress_struct@@@Z 00446860 f   krnln_static:JQUANT1.OBJ
 0001:000458c0       ?make_odither_array@@YAPAY0BA@HPAUjpeg_decompress_struct@@H@Z 004468c0 f   krnln_static:JQUANT1.OBJ
 0001:00045930       ?color_quantize@@YAXPAUjpeg_decompress_struct@@PAPAE1H@Z 00446930 f   krnln_static:JQUANT1.OBJ
 0001:000459f0       ?color_quantize3@@YAXPAUjpeg_decompress_struct@@PAPAE1H@Z 004469f0 f   krnln_static:JQUANT1.OBJ
 0001:00045ab0       ?quantize_ord_dither@@YAXPAUjpeg_decompress_struct@@PAPAE1H@Z 00446ab0 f   krnln_static:JQUANT1.OBJ
 0001:00045be0       ?quantize3_ord_dither@@YAXPAUjpeg_decompress_struct@@PAPAE1H@Z 00446be0 f   krnln_static:JQUANT1.OBJ
 0001:00045d10       ?quantize_fs_dither@@YAXPAUjpeg_decompress_struct@@PAPAE1H@Z 00446d10 f   krnln_static:JQUANT1.OBJ
 0001:00045ee0       ?finish_pass_1_quant@@YAXPAUjpeg_decompress_struct@@@Z 00446ee0 f   krnln_static:JQUANT1.OBJ
 0001:00045ef0       ?new_color_map_1_quant@@YAXPAUjpeg_decompress_struct@@@Z 00446ef0 f   krnln_static:JQUANT1.OBJ
 0001:00044030       ?init_error_limit@@YAXPAUjpeg_decompress_struct@@@Z 00445030 f   krnln_static:JQUANT2.OBJ
 0001:000440d0       ?start_pass_2_quant@@YAXPAUjpeg_decompress_struct@@H@Z 004450d0 f   krnln_static:JQUANT2.OBJ
 0001:000441e0       ?prescan_quantize@@YAXPAUjpeg_decompress_struct@@PAPAE1H@Z 004451e0 f   krnln_static:JQUANT2.OBJ
 0001:00044260       ?pass2_no_dither@@YAXPAUjpeg_decompress_struct@@PAPAE1H@Z 00445260 f   krnln_static:JQUANT2.OBJ
 0001:00044330       ?fill_inverse_cmap@@YAXPAUjpeg_decompress_struct@@HHH@Z 00445330 f   krnln_static:JQUANT2.OBJ
 0001:00044450       ?find_nearby_colors@@YAHPAUjpeg_decompress_struct@@HHHQAE@Z 00445450 f   krnln_static:JQUANT2.OBJ
 0001:00044650       ?find_best_colors@@YAXPAUjpeg_decompress_struct@@HHHHQAE1@Z 00445650 f   krnln_static:JQUANT2.OBJ
 0001:000447b0       ?pass2_fs_dither@@YAXPAUjpeg_decompress_struct@@PAPAE1H@Z 004457b0 f   krnln_static:JQUANT2.OBJ
 0001:00044a90       ?finish_pass1@@YAXPAUjpeg_decompress_struct@@@Z 00445a90 f   krnln_static:JQUANT2.OBJ
 0001:00044ac0       ?select_colors@@YAXPAUjpeg_decompress_struct@@H@Z 00445ac0 f   krnln_static:JQUANT2.OBJ
 0001:00044b40       ?update_box@@YAXPAUjpeg_decompress_struct@@PAUbox@@@Z 00445b40 f   krnln_static:JQUANT2.OBJ
 0001:00044f90       ?median_cut@@YAHPAUjpeg_decompress_struct@@PAUbox@@HH@Z 00445f90 f   krnln_static:JQUANT2.OBJ
 0001:000450d0       ?find_biggest_color_pop@@YAPAUbox@@PAU1@H@Z 004460d0 f   krnln_static:JQUANT2.OBJ
 0001:00045110       ?find_biggest_volume@@YAPAUbox@@PAU1@H@Z 00446110 f   krnln_static:JQUANT2.OBJ
 0001:00045140       ?compute_color@@YAXPAUjpeg_decompress_struct@@PAUbox@@H@Z 00446140 f   krnln_static:JQUANT2.OBJ
 0001:00045ee0       ?finish_pass2@@YAXPAUjpeg_decompress_struct@@@Z 00446ee0 f   krnln_static:JQUANT1.OBJ
 0001:000452e0       ?new_color_map_2_quant@@YAXPAUjpeg_decompress_struct@@@Z 004462e0 f   krnln_static:JQUANT2.OBJ
 0001:000439c0       ?build_ycc_rgb_table@@YAXPAUjpeg_decompress_struct@@@Z 004449c0 f   krnln_static:JDMERGE.OBJ
 0001:00043a80       ?start_pass_merged_upsample@@YAXPAUjpeg_decompress_struct@@@Z 00444a80 f   krnln_static:JDMERGE.OBJ
 0001:00043aa0       ?merged_2v_upsample@@YAXPAUjpeg_decompress_struct@@PAPAPAEPAIIPAPAE2I@Z 00444aa0 f   krnln_static:JDMERGE.OBJ
 0001:00043b70       ?merged_1v_upsample@@YAXPAUjpeg_decompress_struct@@PAPAPAEPAIIPAPAE2I@Z 00444b70 f   krnln_static:JDMERGE.OBJ
 0001:00043bb0       ?h2v1_merged_upsample@@YAXPAUjpeg_decompress_struct@@PAPAPAEIPAPAE@Z 00444bb0 f   krnln_static:JDMERGE.OBJ
 0001:00043d10       ?h2v2_merged_upsample@@YAXPAUjpeg_decompress_struct@@PAPAPAEIPAPAE@Z 00444d10 f   krnln_static:JDMERGE.OBJ
 0001:00043510       ?build_ycc_rgb_table@@YAXPAUjpeg_decompress_struct@@@Z 00444510 f   krnln_static:Jdcolor.obj
 0001:000435d0       ?ycc_rgb_convert@@YAXPAUjpeg_decompress_struct@@PAPAPAEIPAPAEH@Z 004445d0 f   krnln_static:Jdcolor.obj
 0001:00043700       ?null_convert@@YAXPAUjpeg_decompress_struct@@PAPAPAEIPAPAEH@Z 00444700 f   krnln_static:Jdcolor.obj
 0001:00043790       ?grayscale_convert@@YAXPAUjpeg_decompress_struct@@PAPAPAEIPAPAEH@Z 00444790 f   krnln_static:Jdcolor.obj
 0001:000437c0       ?ycck_cmyk_convert@@YAXPAUjpeg_decompress_struct@@PAPAPAEIPAPAEH@Z 004447c0 f   krnln_static:Jdcolor.obj
 0001:00045ee0       ?start_pass_dcolor@@YAXPAUjpeg_decompress_struct@@@Z 00446ee0 f   krnln_static:JQUANT1.OBJ
 0001:00042e00       ?start_pass_upsample@@YAXPAUjpeg_decompress_struct@@@Z 00443e00 f   krnln_static:JDSAMPLE.OBJ
 0001:00042e20       ?sep_upsample@@YAXPAUjpeg_decompress_struct@@PAPAPAEPAIIPAPAE2I@Z 00443e20 f   krnln_static:JDSAMPLE.OBJ
 0001:00042f20       ?fullsize_upsample@@YAXPAUjpeg_decompress_struct@@PAUjpeg_component_info@@PAPAEPAPAPAE@Z 00443f20 f   krnln_static:JDSAMPLE.OBJ
 0001:00042f30       ?noop_upsample@@YAXPAUjpeg_decompress_struct@@PAUjpeg_component_info@@PAPAEPAPAPAE@Z 00443f30 f   krnln_static:JDSAMPLE.OBJ
 0001:00042f40       ?int_upsample@@YAXPAUjpeg_decompress_struct@@PAUjpeg_component_info@@PAPAEPAPAPAE@Z 00443f40 f   krnln_static:JDSAMPLE.OBJ
 0001:00043060       ?h2v1_upsample@@YAXPAUjpeg_decompress_struct@@PAUjpeg_component_info@@PAPAEPAPAPAE@Z 00444060 f   krnln_static:JDSAMPLE.OBJ
 0001:000430c0       ?h2v2_upsample@@YAXPAUjpeg_decompress_struct@@PAUjpeg_component_info@@PAPAEPAPAPAE@Z 004440c0 f   krnln_static:JDSAMPLE.OBJ
 0001:00043150       ?h2v1_fancy_upsample@@YAXPAUjpeg_decompress_struct@@PAUjpeg_component_info@@PAPAEPAPAPAE@Z 00444150 f   krnln_static:JDSAMPLE.OBJ
 0001:00043220       ?h2v2_fancy_upsample@@YAXPAUjpeg_decompress_struct@@PAUjpeg_component_info@@PAPAEPAPAPAE@Z 00444220 f   krnln_static:JDSAMPLE.OBJ
 0001:00042950       ?start_pass_dpost@@YAXPAUjpeg_decompress_struct@@W4J_BUF_MODE@@@Z 00443950 f   krnln_static:JDPOSTCT.OBJ
 0001:00042a30       ?post_process_1pass@@YAXPAUjpeg_decompress_struct@@PAPAPAEPAIIPAPAE2I@Z 00443a30 f   krnln_static:JDPOSTCT.OBJ
 0001:00042ab0       ?post_process_prepass@@YAXPAUjpeg_decompress_struct@@PAPAPAEPAIIPAPAE2I@Z 00443ab0 f   krnln_static:JDPOSTCT.OBJ
 0001:00042b60       ?post_process_2pass@@YAXPAUjpeg_decompress_struct@@PAPAPAEPAIIPAPAE2I@Z 00443b60 f   krnln_static:JDPOSTCT.OBJ
 0001:000426b0       ?start_pass@@YAXPAUjpeg_decompress_struct@@@Z 004436b0 f   krnln_static:JDDCTMGR.OBJ
 0001:00041900       ?start_pass_phuff_decoder@@YAXPAUjpeg_decompress_struct@@@Z 00442900 f   krnln_static:JDPHUFF.OBJ
 0001:00041b70       ?decode_mcu_DC_first@@YAHPAUjpeg_decompress_struct@@PAPAY0EA@F@Z 00442b70 f   krnln_static:JDPHUFF.OBJ
 0001:00041db0       ?process_restart@@YAHPAUjpeg_decompress_struct@@@Z 00442db0 f   krnln_static:JDPHUFF.OBJ
 0001:00041e40       ?decode_mcu_AC_first@@YAHPAUjpeg_decompress_struct@@PAPAY0EA@F@Z 00442e40 f   krnln_static:JDPHUFF.OBJ
 0001:000420b0       ?decode_mcu_DC_refine@@YAHPAUjpeg_decompress_struct@@PAPAY0EA@F@Z 004430b0 f   krnln_static:JDPHUFF.OBJ
 0001:000421d0       ?decode_mcu_AC_refine@@YAHPAUjpeg_decompress_struct@@PAPAY0EA@F@Z 004431d0 f   krnln_static:JDPHUFF.OBJ
 0001:000412a0       ?start_pass_huff_decoder@@YAXPAUjpeg_decompress_struct@@@Z 004422a0 f   krnln_static:JDHUFF.OBJ
 0001:000413c0       ?decode_mcu@@YAHPAUjpeg_decompress_struct@@PAPAY0EA@F@Z 004423c0 f   krnln_static:JDHUFF.OBJ
 0001:00041810       ?process_restart@@YAHPAUjpeg_decompress_struct@@@Z 00442810 f   krnln_static:JDHUFF.OBJ
 0001:0003ffe0       ?start_input_pass@@YAXPAUjpeg_decompress_struct@@@Z 00440fe0 f   krnln_static:Jdcoefct.obj
 0001:00040000       ?start_iMCU_row@@YAXPAUjpeg_decompress_struct@@@Z 00441000 f   krnln_static:Jdcoefct.obj
 0001:00040060       ?start_output_pass@@YAXPAUjpeg_decompress_struct@@@Z 00441060 f   krnln_static:Jdcoefct.obj
 0001:000400b0       ?decompress_onepass@@YAHPAUjpeg_decompress_struct@@PAPAPAE@Z 004410b0 f   krnln_static:Jdcoefct.obj
 0001:00040310       ?dummy_consume_data@@YAHPAUjpeg_decompress_struct@@@Z 00441310 f   krnln_static:Jdcoefct.obj
 0001:00040320       ?consume_data@@YAHPAUjpeg_decompress_struct@@@Z 00441320 f   krnln_static:Jdcoefct.obj
 0001:00040540       ?decompress_data@@YAHPAUjpeg_decompress_struct@@PAPAPAE@Z 00441540 f   krnln_static:Jdcoefct.obj
 0001:00040700       ?smoothing_ok@@YAHPAUjpeg_decompress_struct@@@Z 00441700 f   krnln_static:Jdcoefct.obj
 0001:00040820       ?decompress_smooth_data@@YAHPAUjpeg_decompress_struct@@PAPAPAE@Z 00441820 f   krnln_static:Jdcoefct.obj
 0001:0003f8b0       ?alloc_funny_pointers@@YAXPAUjpeg_decompress_struct@@@Z 004408b0 f   krnln_static:JDMAINCT.OBJ
 0001:0003f960       ?start_pass_main@@YAXPAUjpeg_decompress_struct@@W4J_BUF_MODE@@@Z 00440960 f   krnln_static:JDMAINCT.OBJ
 0001:0003f9d0       ?make_funny_pointers@@YAXPAUjpeg_decompress_struct@@@Z 004409d0 f   krnln_static:JDMAINCT.OBJ
 0001:0003fb20       ?process_data_simple_main@@YAXPAUjpeg_decompress_struct@@PAPAEPAII@Z 00440b20 f   krnln_static:JDMAINCT.OBJ
 0001:0003fba0       ?process_data_context_main@@YAXPAUjpeg_decompress_struct@@PAPAEPAII@Z 00440ba0 f   krnln_static:JDMAINCT.OBJ
 0001:0003fcf0       ?set_wraparound_pointers@@YAXPAUjpeg_decompress_struct@@@Z 00440cf0 f   krnln_static:JDMAINCT.OBJ
 0001:0003fe00       ?set_bottom_pointers@@YAXPAUjpeg_decompress_struct@@@Z 00440e00 f   krnln_static:JDMAINCT.OBJ
 0001:0003fea0       ?process_data_crank_post@@YAXPAUjpeg_decompress_struct@@PAPAEPAII@Z 00440ea0 f   krnln_static:JDMAINCT.OBJ
 0001:0003f210       ?use_merged_upsample@@YAHPAUjpeg_decompress_struct@@@Z 00440210 f   krnln_static:JDMASTER.OBJ
 0001:0003f2e0       ?master_selection@@YAXPAUjpeg_decompress_struct@@@Z 004402e0 f   krnln_static:JDMASTER.OBJ
 0001:0003f4b0       ?prepare_range_limit_table@@YAXPAUjpeg_decompress_struct@@@Z 004404b0 f   krnln_static:JDMASTER.OBJ
 0001:0003f530       ?prepare_for_output_pass@@YAXPAUjpeg_decompress_struct@@@Z 00440530 f   krnln_static:JDMASTER.OBJ
 0001:0003f690       ?finish_output_pass@@YAXPAUjpeg_decompress_struct@@@Z 00440690 f   krnln_static:JDMASTER.OBJ
 0001:0003e520       ?alloc_small@@YAPAXPAUjpeg_common_struct@@HI@Z 0043f520 f   krnln_static:JMEMMGR.OBJ
 0001:00045ef0       ?out_of_memory@@YAXPAUjpeg_common_struct@@H@Z 00446ef0 f   krnln_static:JQUANT1.OBJ
 0001:0003e650       ?alloc_large@@YAPAXPAUjpeg_common_struct@@HI@Z 0043f650 f   krnln_static:JMEMMGR.OBJ
 0001:0003e6e0       ?alloc_sarray@@YAPAPAEPAUjpeg_common_struct@@HII@Z 0043f6e0 f   krnln_static:JMEMMGR.OBJ
 0001:0003e780       ?alloc_barray@@YAPAPAY0EA@FPAUjpeg_common_struct@@HII@Z 0043f780 f   krnln_static:JMEMMGR.OBJ
 0001:0003e830       ?request_virt_sarray@@YAPAUjvirt_sarray_control@@PAUjpeg_common_struct@@HHIII@Z 0043f830 f   krnln_static:JMEMMGR.OBJ
 0001:0003e890       ?request_virt_barray@@YAPAUjvirt_barray_control@@PAUjpeg_common_struct@@HHIII@Z 0043f890 f   krnln_static:JMEMMGR.OBJ
 0001:0003e8f0       ?realize_virt_arrays@@YAXPAUjpeg_common_struct@@@Z 0043f8f0 f   krnln_static:JMEMMGR.OBJ
 0001:0003ea80       ?access_virt_sarray@@YAPAPAEPAUjpeg_common_struct@@PAUjvirt_sarray_control@@IIH@Z 0043fa80 f   krnln_static:JMEMMGR.OBJ
 0001:0003ebb0       ?do_sarray_io@@YAXPAUjpeg_common_struct@@PAUjvirt_sarray_control@@H@Z 0043fbb0 f   krnln_static:JMEMMGR.OBJ
 0001:0003ec50       ?access_virt_barray@@YAPAPAY0EA@FPAUjpeg_common_struct@@PAUjvirt_barray_control@@IIH@Z 0043fc50 f   krnln_static:JMEMMGR.OBJ
 0001:0003ed90       ?do_barray_io@@YAXPAUjpeg_common_struct@@PAUjvirt_barray_control@@H@Z 0043fd90 f   krnln_static:JMEMMGR.OBJ
 0001:0003ee30       ?free_pool@@YAXPAUjpeg_common_struct@@H@Z 0043fe30 f   krnln_static:JMEMMGR.OBJ
 0001:0003ef20       ?self_destruct@@YAXPAUjpeg_common_struct@@@Z 0043ff20 f   krnln_static:JMEMMGR.OBJ
 0001:0003ce10       ?next_marker@@YAHPAUjpeg_decompress_struct@@@Z 0043de10 f   krnln_static:JDMARKER.OBJ
 0001:0003cfb0       ?get_app0@@YAHPAUjpeg_decompress_struct@@@Z 0043dfb0 f   krnln_static:JDMARKER.OBJ
 0001:0003d190       ?get_app14@@YAHPAUjpeg_decompress_struct@@@Z 0043e190 f   krnln_static:JDMARKER.OBJ
 0001:0003d2d0       ?skip_variable@@YAHPAUjpeg_decompress_struct@@@Z 0043e2d0 f   krnln_static:JDMARKER.OBJ
 0001:0003d360       ?read_markers@@YAHPAUjpeg_decompress_struct@@@Z 0043e360 f   krnln_static:JDMARKER.OBJ
 0001:0003d680       ?get_soi@@YAHPAUjpeg_decompress_struct@@@Z 0043e680 f   krnln_static:JDMARKER.OBJ
 0001:0003d720       ?get_sof@@YAHPAUjpeg_decompress_struct@@HH@Z 0043e720 f   krnln_static:JDMARKER.OBJ
 0001:0003d9f0       ?get_sos@@YAHPAUjpeg_decompress_struct@@@Z 0043e9f0 f   krnln_static:JDMARKER.OBJ
 0001:0003dc50       ?get_dac@@YAHPAUjpeg_decompress_struct@@@Z 0043ec50 f   krnln_static:JDMARKER.OBJ
 0001:0003dda0       ?get_dht@@YAHPAUjpeg_decompress_struct@@@Z 0043eda0 f   krnln_static:JDMARKER.OBJ
 0001:0003dfd0       ?get_dqt@@YAHPAUjpeg_decompress_struct@@@Z 0043efd0 f   krnln_static:JDMARKER.OBJ
 0001:0003e1c0       ?get_dri@@YAHPAUjpeg_decompress_struct@@@Z 0043f1c0 f   krnln_static:JDMARKER.OBJ
 0001:0003e2a0       ?first_marker@@YAHPAUjpeg_decompress_struct@@@Z 0043f2a0 f   krnln_static:JDMARKER.OBJ
 0001:0003e330       ?read_restart_marker@@YAHPAUjpeg_decompress_struct@@@Z 0043f330 f   krnln_static:JDMARKER.OBJ
 0001:0003e3b0       ?reset_marker_reader@@YAXPAUjpeg_decompress_struct@@@Z 0043f3b0 f   krnln_static:JDMARKER.OBJ
 0001:0003c7f0       ?start_input_pass@@YAXPAUjpeg_decompress_struct@@@Z 0043d7f0 f   krnln_static:JDINPUT.OBJ
 0001:0003c830       ?per_scan_setup@@YAXPAUjpeg_decompress_struct@@@Z 0043d830 f   krnln_static:JDINPUT.OBJ
 0001:0003c9b0       ?latch_quant_tables@@YAXPAUjpeg_decompress_struct@@@Z 0043d9b0 f   krnln_static:JDINPUT.OBJ
 0001:0003ca50       ?finish_input_pass@@YAXPAUjpeg_decompress_struct@@@Z 0043da50 f   krnln_static:JDINPUT.OBJ
 0001:0003ca70       ?consume_markers@@YAHPAUjpeg_decompress_struct@@@Z 0043da70 f   krnln_static:JDINPUT.OBJ
 0001:0003cb30       ?initial_setup@@YAXPAUjpeg_decompress_struct@@@Z 0043db30 f   krnln_static:JDINPUT.OBJ
 0001:0003cce0       ?reset_input_controller@@YAXPAUjpeg_decompress_struct@@@Z 0043dce0 f   krnln_static:JDINPUT.OBJ
 0001:0003c570       ?error_exit@@YAXPAUjpeg_common_struct@@@Z 0043d570 f   krnln_static:JERROR.OBJ
 0001:00045ee0       ?output_message@@YAXPAUjpeg_common_struct@@@Z 00446ee0 f   krnln_static:JQUANT1.OBJ
 0001:00045ee0       ?emit_message@@YAXPAUjpeg_common_struct@@H@Z 00446ee0 f   krnln_static:JQUANT1.OBJ
 0001:00045ee0       ?format_message@@YAXPAUjpeg_common_struct@@PAD@Z 00446ee0 f   krnln_static:JQUANT1.OBJ
 0001:0003c580       ?reset_error_mgr@@YAXPAUjpeg_common_struct@@@Z 0043d580 f   krnln_static:JERROR.OBJ
 0001:0003c460       ?init_source@@YAXPAUjpeg_decompress_struct@@@Z 0043d460 f   krnln_static:Jdatasrc.obj
 0001:0003c470       ?fill_input_buffer@@YAHPAUjpeg_decompress_struct@@@Z 0043d470 f   krnln_static:Jdatasrc.obj
 0001:0003c4e0       ?skip_input_data@@YAXPAUjpeg_decompress_struct@@J@Z 0043d4e0 f   krnln_static:Jdatasrc.obj
 0001:00045ee0       ?term_source@@YAXPAUjpeg_decompress_struct@@@Z 00446ee0 f   krnln_static:JQUANT1.OBJ
 0001:0003c290       ?output_pass_setup@@YAHPAUjpeg_decompress_struct@@@Z 0043d290 f   krnln_static:JDAPISTD.OBJ
 0001:0003bf90       ?default_decompress_parms@@YAXPAUjpeg_decompress_struct@@@Z 0043cf90 f   krnln_static:JDAPIMIN.OBJ
 0001:000365c0       ?my_error_exit@@YAXPAUjpeg_common_struct@@@Z 004375c0 f   krnln_static:Jpegfile.obj
 0001:00034790       _$E254                     00435790 f   krnln_static:wave.obj
 0001:000347a0       _$E251                     004357a0 f   krnln_static:wave.obj
 0001:000347c0       _$E253                     004357c0 f   krnln_static:wave.obj
 0001:000347d0       _$E252                     004357d0 f   krnln_static:wave.obj
 0001:000349c0       ?GlobalStopPlay@@YAHXZ     004359c0 f   krnln_static:wave.obj
 0001:00034df0       ?GlobalPlayThread@@YGIPAX@Z 00435df0 f   krnln_static:wave.obj
 0001:00035040       ?globalWaveOutProc@@YGXPAUHWAVEOUT__@@IKKK@Z 00436040 f   krnln_static:wave.obj
 0001:000325a0       _$E263                     004335a0 f   krnln_static:container.obj
 0001:0002d800       _$E286                     0042e800 f   krnln_static:com.obj
 0001:0002d810       _$E283                     0042e810 f   krnln_static:com.obj
 0001:0002d820       _$E285                     0042e820 f   krnln_static:com.obj
 0001:0002d830       _$E284                     0042e830 f   krnln_static:com.obj
 0001:00026f90       _$E298                     00427f90 f   krnln_static:MGrid.obj
 0001:00026fa0       _$E297                     00427fa0 f   krnln_static:MGrid.obj
 0001:00019900       _$E288                     0041a900 f   krnln_static:FUNC.OBJ
 0001:00019910       _$E287                     0041a910 f   krnln_static:FUNC.OBJ
 0001:00018e40       _$E411                     00419e40 f   krnln_static:Krnl.obj
 0001:00018e50       _$E408                     00419e50 f   krnln_static:Krnl.obj
 0001:00018e60       _$E410                     00419e60 f   krnln_static:Krnl.obj
 0001:00018e80       _$E409                     00419e80 f   krnln_static:Krnl.obj
 0001:0000a8b0       _$E409                     0040b8b0 f   krnln_static:krnl2.obj
 0001:0000a8c0       _$E408                     0040b8c0 f   krnln_static:krnl2.obj
 0001:0000b4e0       _$E412                     0040c4e0 f   krnln_static:krnl2.obj
 0001:0000b4f0       _$E411                     0040c4f0 f   krnln_static:krnl2.obj
 0001:0000d040       ?GetUnitDataPtr@@YAPAEPAVCWinUnitIDManger@@PAE@Z 0040e040 f   krnln_static:krnl2.obj
 0001:00010510       _$E415                     00411510 f   krnln_static:krnl2.obj
 0001:00002400       _$E413                     00403400 f   krnln_static:Libfn.obj
 0001:00002410       _$E410                     00403410 f   krnln_static:Libfn.obj
 0001:00002420       _$E412                     00403420 f   krnln_static:Libfn.obj
 0001:00002430       _$E411                     00403430 f   krnln_static:Libfn.obj
 0001:00049af0       _$E288                     0044aaf0 f   edroptarget_static:PIDropTarget.obj
 0001:00049b10       _$E287                     0044ab10 f   edroptarget_static:PIDropTarget.obj
 0001:00049760       _$E288                     0044a760 f   edroptarget_static:EDropTarget1.obj
 0001:00049780       _$E287                     0044a780 f   edroptarget_static:EDropTarget1.obj
 0001:00049100       _$E289                     0044a100 f   edroptarget_static:EDropTargetclass.obj
 0001:00049120       _$E288                     0044a120 f   edroptarget_static:EDropTargetclass.obj
 0001:00047780       ?Create_EDropTarget@@YGKPAEHKPAUHWND__@@IPAUHMENU__@@HHHHKK1H@Z 00448780 f   edroptarget_static:GuiElib.obj
 0001:000478f0       ?DropTextCallBack@@YAHKKPAVCString@@@Z 004488f0 f   edroptarget_static:GuiElib.obj
 0001:000479c0       ?DropHtmlCallBack@@YAHKKPAD@Z 004489c0 f   edroptarget_static:GuiElib.obj
 0001:00047aa0       ?DropUrlCallBack@@YAHKKPAVCString@@@Z 00448aa0 f   edroptarget_static:GuiElib.obj
 0001:00047b70       ?DropFileCallBack@@YAHKKPAPADH@Z 00448b70 f   edroptarget_static:GuiElib.obj
 0001:00047cd0       ?NotifyPropertyChanged_EDropTarget@@YGHKHPATUNIT_PROPERTY_VALUE@@PAPAD@Z 00448cd0 f   edroptarget_static:GuiElib.obj
 0001:00047d80       ?GetPropertyData_EDropTarget@@YGHKHPATUNIT_PROPERTY_VALUE@@@Z 00448d80 f   edroptarget_static:GuiElib.obj
 0001:00047e20       ?GetAllPropertyData_EDropTarget@@YGPAXK@Z 00448e20 f   edroptarget_static:GuiElib.obj
 0001:00047ea0       _$E300                     00448ea0 f   edroptarget_static:GuiElib.obj
 0001:00047ec0       _$E299                     00448ec0 f   edroptarget_static:GuiElib.obj
 0001:0004a350       ?TVCheckToPost_CheckBoxStateChanged@@YAHPAVCUTreeBox@@PAUtagNMHDR@@@Z 0044b350 f   iext_static:unit.obj
 0001:0004a630       ?RunFindItemIndex@@YAHPAVCTreeCtrl@@PAU_TREEITEM@@1AAH@Z 0044b630 f   iext_static:unit.obj
 0001:0004b5b0       ?Create_ListView@@YGKPAEHKPAUHWND__@@IPAUHMENU__@@HHHHKK1H@Z 0044c5b0 f   iext_static:unit.obj
 0001:0004b9f0       ?NotifyPropertyChanged_ListView@@YGHKHPATUNIT_PROPERTY_VALUE@@PAPAD@Z 0044c9f0 f   iext_static:unit.obj
 0001:0004c160       ?GetPropertyData_ListView@@YGHKHPATUNIT_PROPERTY_VALUE@@@Z 0044d160 f   iext_static:unit.obj
 0001:0004c650       ?GetAllPropertyData_ListView@@YGPAXK@Z 0044d650 f   iext_static:unit.obj
 0001:0004cbd0       ?LVCheckToPost_CheckBoxStateChanged@@YAHPAVCUListView@@PAUtagNMHDR@@@Z 0044dbd0 f   iext_static:unit.obj
 0001:0004d2f0       ?ReDrawTransparentWnd@@YAXPAVCWnd@@@Z 0044e2f0 f   iext_static:unit.obj
 0001:0004d3b0       ?ReDrawAllChild@@YAXPAUHWND__@@AAVCRect@@@Z 0044e3b0 f   iext_static:unit.obj
 0001:0004d490       ?EnumAllVisibleChild@@YAXPAUHWND__@@AAVCMyDWordArray@@@Z 0044e490 f   iext_static:unit.obj
 0001:0005d39d       _$E366                     0045e39d f   nafxcw:appmodul.obj
 0001:0005d3a2       _$E365                     0045e3a2 f   nafxcw:appmodul.obj
 0001:0006a710       _$E366                     0046b710 f   nafxcw:afxdbcs.obj
 0001:0006a715       _$E365                     0046b715 f   nafxcw:afxdbcs.obj
 0001:0006a5d6       _$E368                     0046b5d6 f   nafxcw:auxdata.obj
 0001:0006a5e0       _$E365                     0046b5e0 f   nafxcw:auxdata.obj
 0001:0006a5ea       _$E367                     0046b5ea f   nafxcw:auxdata.obj
 0001:0006a5f6       _$E366                     0046b5f6 f   nafxcw:auxdata.obj
 0001:0006a594       _$E368                     0046b594 f   nafxcw:app3d.obj
 0001:0006a59e       _$E365                     0046b59e f   nafxcw:app3d.obj
 0001:0006a59f       _$E367                     0046b59f f   nafxcw:app3d.obj
 0001:0006a5ab       _$E366                     0046b5ab f   nafxcw:app3d.obj
 0001:0006a5b5       _$E373                     0046b5b5 f   nafxcw:app3d.obj
 0001:0006a5bf       _$E370                     0046b5bf f   nafxcw:app3d.obj
 0001:0006a5c0       _$E372                     0046b5c0 f   nafxcw:app3d.obj
 0001:0006a5cc       _$E371                     0046b5cc f   nafxcw:app3d.obj
 0001:0006a300       _$E368                     0046b300 f   nafxcw:dlgclr.obj
 0001:0006a30a       _$E365                     0046b30a f   nafxcw:dlgclr.obj
 0001:0006a30b       _$E367                     0046b30b f   nafxcw:dlgclr.obj
 0001:0006a317       _$E366                     0046b317 f   nafxcw:dlgclr.obj
 0001:0006a2d8       _$E366                     0046b2d8 f   nafxcw:array_w.obj
 0001:0006a2dd       _$E365                     0046b2dd f   nafxcw:array_w.obj
 0001:0006a2ab       _$E366                     0046b2ab f   nafxcw:array_d.obj
 0001:0006a2b0       _$E365                     0046b2b0 f   nafxcw:array_d.obj
 0001:0006a24e       _$E371                     0046b24e f   nafxcw:winmenu.obj
 0001:0006a258       _$E367                     0046b258 f   nafxcw:winmenu.obj
 0001:0006a267       _$E370                     0046b267 f   nafxcw:winmenu.obj
 0001:0006a273       _$E368                     0046b273 f   nafxcw:winmenu.obj
 0001:00069fd0       _$E371                     0046afd0 f   nafxcw:winctrl2.obj
 0001:00069fda       _$E367                     0046afda f   nafxcw:winctrl2.obj
 0001:00069fe9       _$E370                     0046afe9 f   nafxcw:winctrl2.obj
 0001:00069ff5       _$E368                     0046aff5 f   nafxcw:winctrl2.obj
 0001:00069f30       _$E368                     0046af30 f   nafxcw:appcore.obj
 0001:00069f3a       _$E365                     0046af3a f   nafxcw:appcore.obj
 0001:00069f3b       _$E367                     0046af3b f   nafxcw:appcore.obj
 0001:00069f47       _$E366                     0046af47 f   nafxcw:appcore.obj
 0001:0005f16c       ?DestructElements@@YAXPAVCString@@H@Z 0046016c f   nafxcw:array_s.obj
 0001:0005f2ab       ?ConstructElements@@YAXPAVCString@@H@Z 004602ab f   nafxcw:array_s.obj
 0001:0006962e       _$E366                     0046a62e f   nafxcw:array_s.obj
 0001:00069633       _$E365                     0046a633 f   nafxcw:array_s.obj
 0001:0006931f       _$E368                     0046a31f f   nafxcw:afxstate.obj
 0001:00069329       _$E365                     0046a329 f   nafxcw:afxstate.obj
 0001:0006932a       _$E367                     0046a32a f   nafxcw:afxstate.obj
 0001:00069336       _$E366                     0046a336 f   nafxcw:afxstate.obj
 0001:00069520       _$E373                     0046a520 f   nafxcw:afxstate.obj
 0001:0006952a       _$E370                     0046a52a f   nafxcw:afxstate.obj
 0001:0006952b       _$E372                     0046a52b f   nafxcw:afxstate.obj
 0001:00069537       _$E371                     0046a537 f   nafxcw:afxstate.obj
 0001:00068c2f       _$E366                     00469c2f f   nafxcw:wingdix.obj
 0001:00068c34       _$E365                     00469c34 f   nafxcw:wingdix.obj
 0001:00069211       _$E368                     0046a211 f   nafxcw:winctrl3.obj
 0001:0006921b       _$E365                     0046a21b f   nafxcw:winctrl3.obj
 0001:0006921c       _$E367                     0046a21c f   nafxcw:winctrl3.obj
 0001:00069228       _$E366                     0046a228 f   nafxcw:winctrl3.obj
 0001:000614ba       _$E374                     004624ba f   nafxcw:wincore.obj
 0001:000614bf       _$E373                     004624bf f   nafxcw:wincore.obj
 0001:000614d0       _$E380                     004624d0 f   nafxcw:wincore.obj
 0001:000614da       _$E376                     004624da f   nafxcw:wincore.obj
 0001:000614e7       _$E379                     004624e7 f   nafxcw:wincore.obj
 0001:000614f3       _$E377                     004624f3 f   nafxcw:wincore.obj
 0001:0006150e       _$E385                     0046250e f   nafxcw:wincore.obj
 0001:00061518       _$E382                     00462518 f   nafxcw:wincore.obj
 0001:00061525       _$E384                     00462525 f   nafxcw:wincore.obj
 0001:00061531       _$E383                     00462531 f   nafxcw:wincore.obj
 0001:0006154c       _$E390                     0046254c f   nafxcw:wincore.obj
 0001:00061556       _$E387                     00462556 f   nafxcw:wincore.obj
 0001:00061563       _$E389                     00462563 f   nafxcw:wincore.obj
 0001:0006156f       _$E388                     0046256f f   nafxcw:wincore.obj
 0001:0006158a       _$E395                     0046258a f   nafxcw:wincore.obj
 0001:00061594       _$E392                     00462594 f   nafxcw:wincore.obj
 0001:000615a1       _$E394                     004625a1 f   nafxcw:wincore.obj
 0001:000615ad       _$E393                     004625ad f   nafxcw:wincore.obj
 0001:00069152       _$E403                     0046a152 f   nafxcw:wincore.obj
 0001:0006915c       _$E399                     0046a15c f   nafxcw:wincore.obj
 0001:0006916b       _$E402                     0046a16b f   nafxcw:wincore.obj
 0001:00069177       _$E400                     0046a177 f   nafxcw:wincore.obj
 0001:00068e90       _$E372                     00469e90 f   nafxcw:wingdi.obj
 0001:00068e9a       _$E369                     00469e9a f   nafxcw:wingdi.obj
 0001:00068eac       _$E371                     00469eac f   nafxcw:wingdi.obj
 0001:00068eb8       _$E370                     00469eb8 f   nafxcw:wingdi.obj
 0001:00068ec8       _$E377                     00469ec8 f   nafxcw:wingdi.obj
 0001:00068ed2       _$E374                     00469ed2 f   nafxcw:wingdi.obj
 0001:00068ee4       _$E376                     00469ee4 f   nafxcw:wingdi.obj
 0001:00068ef0       _$E375                     00469ef0 f   nafxcw:wingdi.obj
 0001:00069029       _$E383                     0046a029 f   nafxcw:wingdi.obj
 0001:00069033       _$E379                     0046a033 f   nafxcw:wingdi.obj
 0001:00069042       _$E382                     0046a042 f   nafxcw:wingdi.obj
 0001:0006904e       _$E380                     0046a04e f   nafxcw:wingdi.obj
 0001:00069069       _$E388                     0046a069 f   nafxcw:wingdi.obj
 0001:00069073       _$E385                     0046a073 f   nafxcw:wingdi.obj
 0001:00069082       _$E387                     0046a082 f   nafxcw:wingdi.obj
 0001:0006908e       _$E386                     0046a08e f   nafxcw:wingdi.obj
 0001:00068de0       _$E368                     00469de0 f   nafxcw:except.obj
 0001:00068dea       _$E365                     00469dea f   nafxcw:except.obj
 0001:00068dfc       _$E367                     00469dfc f   nafxcw:except.obj
 0001:00068e08       _$E366                     00469e08 f   nafxcw:except.obj
 0001:00068e18       _$E373                     00469e18 f   nafxcw:except.obj
 0001:00068e22       _$E370                     00469e22 f   nafxcw:except.obj
 0001:00068e34       _$E372                     00469e34 f   nafxcw:except.obj
 0001:00068e40       _$E371                     00469e40 f   nafxcw:except.obj
 0001:0005fdc1       _$E368                     00460dc1 f   nafxcw:strcore.obj
 0001:0005fdcb       _$E365                     00460dcb f   nafxcw:strcore.obj
 0001:0005fdda       _$E367                     00460dda f   nafxcw:strcore.obj
 0001:0005fde6       _$E366                     00460de6 f   nafxcw:strcore.obj
 0001:0005fdf0       _$E373                     00460df0 f   nafxcw:strcore.obj
 0001:0005fdfa       _$E370                     00460dfa f   nafxcw:strcore.obj
 0001:0005fe0c       _$E372                     00460e0c f   nafxcw:strcore.obj
 0001:0005fe18       _$E371                     00460e18 f   nafxcw:strcore.obj
 0001:0005fe22       _$E378                     00460e22 f   nafxcw:strcore.obj
 0001:0005fe2c       _$E375                     00460e2c f   nafxcw:strcore.obj
 0001:0005fe3e       _$E377                     00460e3e f   nafxcw:strcore.obj
 0001:0005fe4a       _$E376                     00460e4a f   nafxcw:strcore.obj
 0001:0005fe54       _$E383                     00460e54 f   nafxcw:strcore.obj
 0001:0005fe5e       _$E380                     00460e5e f   nafxcw:strcore.obj
 0001:0005fe70       _$E382                     00460e70 f   nafxcw:strcore.obj
 0001:0005fe7c       _$E381                     00460e7c f   nafxcw:strcore.obj
 0001:0005c357       _siglookup                 0045d357 f   libcmt:winsig.obj
 0001:00057118       _strncnt                   00458118 f   libcmt:a_map.obj
 0001:0005a87d       __abstract_cw              0045b87d f   libcmt:ieee87.obj
 0001:0005a90f       __hw_cw                    0045b90f f   libcmt:ieee87.obj
 0001:0005a778       _x_ismbbtype               0045b778 f   libcmt:ismbbyte.obj
 0001:0005a1d3       __tzset_lk                 0045b1d3 f   libcmt:tzset.obj
 0001:0005a47b       __isindst_lk               0045b47b f   libcmt:tzset.obj
 0001:0005a627       _cvtdate                   0045b627 f   libcmt:tzset.obj
 0001:00059c9b       __hextodec                 0045ac9b f   libcmt:input.obj
 0001:00059cd2       __inc                      0045acd2 f   libcmt:input.obj
 0001:00059cec       __un_inc                   0045acec f   libcmt:input.obj
 0001:00059d03       __whiteout                 0045ad03 f   libcmt:input.obj
 0001:00058f8f       _flsall                    00459f8f f   libcmt:fflush.obj
 0001:00058c75       _write_char                00459c75 f   libcmt:output.obj
 0001:00058caa       _write_multi_char          00459caa f   libcmt:output.obj
 0001:00058cdb       _write_string              00459cdb f   libcmt:output.obj
 0001:00058d13       _get_int_arg               00459d13 f   libcmt:output.obj
 0001:00058d20       _get_int64_arg             00459d20 f   libcmt:output.obj
 0001:00058d30       _get_short_arg             00459d30 f   libcmt:output.obj
 0001:00057118       _strncnt                   00458118 f   libcmt:a_map.obj
 0001:000564eb       ?FindHandler@@YAXPAUEHExceptionRecord@@PAUEHRegistrationNode@@PAU_CONTEXT@@PAXPBU_s_FuncInfo@@EH1@Z 004574eb f   libcmt:frame.obj
 0001:0005669e       ?FindHandlerForForeignException@@YAXPAUEHExceptionRecord@@PAUEHRegistrationNode@@PAU_CONTEXT@@PAXPBU_s_FuncInfo@@HH1@Z 0045769e f   libcmt:frame.obj
 0001:00056748       ?TypeMatch@@YAHPBU_s_HandlerType@@PBU_s_CatchableType@@PBU_s_ThrowInfo@@@Z 00457748 f   libcmt:frame.obj
 0001:00056843       ?FrameUnwindFilter@@YAHPAU_EXCEPTION_POINTERS@@@Z 00457843 f   libcmt:frame.obj
 0001:00056859       ?CatchIt@@YAXPAUEHExceptionRecord@@PAUEHRegistrationNode@@PAU_CONTEXT@@PAXPBU_s_FuncInfo@@PBU_s_HandlerType@@PBU_s_CatchableType@@PBU_s_TryBlockMapEntry@@H1E@Z 00457859 f   libcmt:frame.obj
 0001:000568d4       ?CallCatchBlock@@YAPAXPAUEHExceptionRecord@@PAUEHRegistrationNode@@PAU_CONTEXT@@PBU_s_FuncInfo@@PAXHK@Z 004578d4 f   libcmt:frame.obj
 0001:000569ef       ?ExFilterRethrow@@YAHPAU_EXCEPTION_POINTERS@@@Z 004579ef f   libcmt:frame.obj
 0001:00056a19       ?BuildCatchObject@@YAXPAUEHExceptionRecord@@PAUEHRegistrationNode@@PBU_s_HandlerType@@PBU_s_CatchableType@@@Z 00457a19 f   libcmt:frame.obj
 0001:00056c44       ?AdjustPointer@@YAPAXPAXABUPMD@@@Z 00457c44 f   libcmt:frame.obj
 0001:0005629e       _findenv                   0045729e f   libcmt:setenv.obj
 0001:000562f6       _copy_environ              004572f6 f   libcmt:setenv.obj
 0001:00055364       label0                     00456364 f   libcmt:adj_fdiv.obj
 0001:0005536a       label1                     0045636a f   libcmt:adj_fdiv.obj
 0001:0005536f       label2                     0045636f f   libcmt:adj_fdiv.obj
 0001:00055375       label3                     00456375 f   libcmt:adj_fdiv.obj
 0001:0005537a       label4                     0045637a f   libcmt:adj_fdiv.obj
 0001:00055380       label5                     00456380 f   libcmt:adj_fdiv.obj
 0001:00055386       label6                     00456386 f   libcmt:adj_fdiv.obj
 0001:0005538c       label7                     0045638c f   libcmt:adj_fdiv.obj
 0001:00055392       label8                     00456392 f   libcmt:adj_fdiv.obj
 0001:000553ae       label9                     004563ae f   libcmt:adj_fdiv.obj
 0001:000553b3       label10                    004563b3 f   libcmt:adj_fdiv.obj
 0001:000553c9       label11                    004563c9 f   libcmt:adj_fdiv.obj
 0001:000553ce       label12                    004563ce f   libcmt:adj_fdiv.obj
 0001:000553ea       label13                    004563ea f   libcmt:adj_fdiv.obj
 0001:000553fa       label14                    004563fa f   libcmt:adj_fdiv.obj
 0001:0005540e       label15                    0045640e f   libcmt:adj_fdiv.obj
 0001:0005541e       label16                    0045641e f   libcmt:adj_fdiv.obj
 0001:0005543e       label17                    0045643e f   libcmt:adj_fdiv.obj
 0001:00055443       label18                    00456443 f   libcmt:adj_fdiv.obj
 0001:0005545d       label19                    0045645d f   libcmt:adj_fdiv.obj
 0001:00055462       label20                    00456462 f   libcmt:adj_fdiv.obj
 0001:00055482       label21                    00456482 f   libcmt:adj_fdiv.obj
 0001:00055496       label22                    00456496 f   libcmt:adj_fdiv.obj
 0001:000554ae       label23                    004564ae f   libcmt:adj_fdiv.obj
 0001:000554c2       label24                    004564c2 f   libcmt:adj_fdiv.obj
 0001:000554e2       label25                    004564e2 f   libcmt:adj_fdiv.obj
 0001:000554e7       label26                    004564e7 f   libcmt:adj_fdiv.obj
 0001:00055501       label27                    00456501 f   libcmt:adj_fdiv.obj
 0001:00055506       label28                    00456506 f   libcmt:adj_fdiv.obj
 0001:00055526       label29                    00456526 f   libcmt:adj_fdiv.obj
 0001:0005553a       label30                    0045653a f   libcmt:adj_fdiv.obj
 0001:00055552       label31                    00456552 f   libcmt:adj_fdiv.obj
 0001:00055566       label32                    00456566 f   libcmt:adj_fdiv.obj
 0001:00055586       label33                    00456586 f   libcmt:adj_fdiv.obj
 0001:0005558b       label34                    0045658b f   libcmt:adj_fdiv.obj
 0001:000555a5       label35                    004565a5 f   libcmt:adj_fdiv.obj
 0001:000555aa       label36                    004565aa f   libcmt:adj_fdiv.obj
 0001:000555ca       label37                    004565ca f   libcmt:adj_fdiv.obj
 0001:000555de       label38                    004565de f   libcmt:adj_fdiv.obj
 0001:000555f6       label39                    004565f6 f   libcmt:adj_fdiv.obj
 0001:0005560a       label40                    0045660a f   libcmt:adj_fdiv.obj
 0001:0005562a       label41                    0045662a f   libcmt:adj_fdiv.obj
 0001:0005562f       label42                    0045662f f   libcmt:adj_fdiv.obj
 0001:00055649       label43                    00456649 f   libcmt:adj_fdiv.obj
 0001:0005564e       label44                    0045664e f   libcmt:adj_fdiv.obj
 0001:0005566e       label45                    0045666e f   libcmt:adj_fdiv.obj
 0001:00055682       label46                    00456682 f   libcmt:adj_fdiv.obj
 0001:0005569a       label47                    0045669a f   libcmt:adj_fdiv.obj
 0001:000556ae       label48                    004566ae f   libcmt:adj_fdiv.obj
 0001:000556ce       label49                    004566ce f   libcmt:adj_fdiv.obj
 0001:000556d3       label50                    004566d3 f   libcmt:adj_fdiv.obj
 0001:000556ed       label51                    004566ed f   libcmt:adj_fdiv.obj
 0001:000556f2       label52                    004566f2 f   libcmt:adj_fdiv.obj
 0001:00055712       label53                    00456712 f   libcmt:adj_fdiv.obj
 0001:00055726       label54                    00456726 f   libcmt:adj_fdiv.obj
 0001:0005573e       label55                    0045673e f   libcmt:adj_fdiv.obj
 0001:00055752       label56                    00456752 f   libcmt:adj_fdiv.obj
 0001:00055772       label57                    00456772 f   libcmt:adj_fdiv.obj
 0001:00055777       label58                    00456777 f   libcmt:adj_fdiv.obj
 0001:00055791       label59                    00456791 f   libcmt:adj_fdiv.obj
 0001:00055796       label60                    00456796 f   libcmt:adj_fdiv.obj
 0001:000557b6       label61                    004567b6 f   libcmt:adj_fdiv.obj
 0001:000557ca       label62                    004567ca f   libcmt:adj_fdiv.obj
 0001:000557e2       label63                    004567e2 f   libcmt:adj_fdiv.obj
 0001:00054d99       __get_fname                00455d99 f   libcmt:fpexcept.obj
 0001:00053fd1       fFEXP                      00454fd1 f   libcmt:87tran.obj
 0001:00054111       _rtforexpinf               00455111 f   libcmt:87tran.obj
 0001:00053cf8       __cftoe2                   00454cf8 f   libcmt:cvt.obj
 0001:00053e0f       __cftof2                   00454e0f f   libcmt:cvt.obj
 0001:00053f9a       __shift                    00454f9a f   libcmt:cvt.obj
 0001:00053171       _parse_cmdline             00454171 f   libcmt:stdargv.obj
 0001:00052f8d       _xcptlookup                00453f8d f   libcmt:winxfltr.obj
 0001:00052c08       _getSystemCP               00453c08 f   libcmt:mbctype.obj
 0001:00052c52       _CPtoLCID                  00453c52 f   libcmt:mbctype.obj
 0001:00052c85       _setSBCS                   00453c85 f   libcmt:mbctype.obj
 0001:00052cae       _setSBUpLow                00453cae f   libcmt:mbctype.obj
 0001:0005276d       __make_time_t              0045376d f   libcmt:mktime.obj
 0001:000524d5       _strtoxl                   004534d5 f   libcmt:strtol.obj
 0001:0005219b       _doexit                    0045319b f   libcmt:crt0dat.obj
 0001:00052252       __initterm                 00453252 f   libcmt:crt0dat.obj
 0001:00051620       LeadUp1                    00452620 f   libcmt:memcpy.obj
 0001:0005164c       LeadUp2                    0045264c f   libcmt:memcpy.obj
 0001:00051670       LeadUp3                    00452670 f   libcmt:memcpy.obj
 0001:000516ef       UnwindUp0                  004526ef f   libcmt:memcpy.obj
 0001:000516dc       UnwindUp1                  004526dc f   libcmt:memcpy.obj
 0001:000516d4       UnwindUp2                  004526d4 f   libcmt:memcpy.obj
 0001:000516cc       UnwindUp3                  004526cc f   libcmt:memcpy.obj
 0001:000516c4       UnwindUp4                  004526c4 f   libcmt:memcpy.obj
 0001:000516bc       UnwindUp5                  004526bc f   libcmt:memcpy.obj
 0001:000516b4       UnwindUp6                  004526b4 f   libcmt:memcpy.obj
 0001:000516ac       UnwindUp7                  004526ac f   libcmt:memcpy.obj
 0001:00051708       TrailUp0                   00452708 f   libcmt:memcpy.obj
 0001:00051710       TrailUp1                   00452710 f   libcmt:memcpy.obj
 0001:0005171c       TrailUp2                   0045271c f   libcmt:memcpy.obj
 0001:00051730       TrailUp3                   00452730 f   libcmt:memcpy.obj
 0001:000517a8       LeadDown1                  004527a8 f   libcmt:memcpy.obj
 0001:000517c8       LeadDown2                  004527c8 f   libcmt:memcpy.obj
 0001:000517f0       LeadDown3                  004527f0 f   libcmt:memcpy.obj
 0001:00051844       UnwindDown7                00452844 f   libcmt:memcpy.obj
 0001:0005184c       UnwindDown6                0045284c f   libcmt:memcpy.obj
 0001:00051854       UnwindDown5                00452854 f   libcmt:memcpy.obj
 0001:0005185c       UnwindDown4                0045285c f   libcmt:memcpy.obj
 0001:00051864       UnwindDown3                00452864 f   libcmt:memcpy.obj
 0001:0005186c       UnwindDown2                0045286c f   libcmt:memcpy.obj
 0001:00051874       UnwindDown1                00452874 f   libcmt:memcpy.obj
 0001:00051887       UnwindDown0                00452887 f   libcmt:memcpy.obj
 0001:000518a0       TrailDown0                 004528a0 f   libcmt:memcpy.obj
 0001:000518a8       TrailDown1                 004528a8 f   libcmt:memcpy.obj
 0001:000518b8       TrailDown2                 004528b8 f   libcmt:memcpy.obj
 0001:000518cc       TrailDown3                 004528cc f   libcmt:memcpy.obj
 0001:000504b6       _x64toa@20                 004514b6 f   libcmt:xtoa.obj
 0001:000501c0       LeadUp1                    004511c0 f   libcmt:memmove.obj
 0001:000501ec       LeadUp2                    004511ec f   libcmt:memmove.obj
 0001:00050210       LeadUp3                    00451210 f   libcmt:memmove.obj
 0001:0005028f       UnwindUp0                  0045128f f   libcmt:memmove.obj
 0001:0005027c       UnwindUp1                  0045127c f   libcmt:memmove.obj
 0001:00050274       UnwindUp2                  00451274 f   libcmt:memmove.obj
 0001:0005026c       UnwindUp3                  0045126c f   libcmt:memmove.obj
 0001:00050264       UnwindUp4                  00451264 f   libcmt:memmove.obj
 0001:0005025c       UnwindUp5                  0045125c f   libcmt:memmove.obj
 0001:00050254       UnwindUp6                  00451254 f   libcmt:memmove.obj
 0001:0005024c       UnwindUp7                  0045124c f   libcmt:memmove.obj
 0001:000502a8       TrailUp0                   004512a8 f   libcmt:memmove.obj
 0001:000502b0       TrailUp1                   004512b0 f   libcmt:memmove.obj
 0001:000502bc       TrailUp2                   004512bc f   libcmt:memmove.obj
 0001:000502d0       TrailUp3                   004512d0 f   libcmt:memmove.obj
 0001:00050348       LeadDown1                  00451348 f   libcmt:memmove.obj
 0001:00050368       LeadDown2                  00451368 f   libcmt:memmove.obj
 0001:00050390       LeadDown3                  00451390 f   libcmt:memmove.obj
 0001:000503e4       UnwindDown7                004513e4 f   libcmt:memmove.obj
 0001:000503ec       UnwindDown6                004513ec f   libcmt:memmove.obj
 0001:000503f4       UnwindDown5                004513f4 f   libcmt:memmove.obj
 0001:000503fc       UnwindDown4                004513fc f   libcmt:memmove.obj
 0001:00050404       UnwindDown3                00451404 f   libcmt:memmove.obj
 0001:0005040c       UnwindDown2                0045140c f   libcmt:memmove.obj
 0001:00050414       UnwindDown1                00451414 f   libcmt:memmove.obj
 0001:00050427       UnwindDown0                00451427 f   libcmt:memmove.obj
 0001:00050440       TrailDown0                 00451440 f   libcmt:memmove.obj
 0001:00050448       TrailDown1                 00451448 f   libcmt:memmove.obj
 0001:00050458       TrailDown2                 00451458 f   libcmt:memmove.obj
 0001:0005046c       TrailDown3                 0045146c f   libcmt:memmove.obj
 0001:0004fab0       _gu_return                 00450ab0 f   libcmt:exsup.obj
 0001:0004fab8       __unwind_handler           00450ab8 f   libcmt:exsup.obj
 0001:0004f8cb       ?CatchGuardHandler@@YA?AW4_EXCEPTION_DISPOSITION@@PAUEHExceptionRecord@@PAUCatchGuardRN@@PAX2@Z 004508cb f   libcmt:trnsctrl.obj
 0001:0004f9a6       ?TranslatorGuardHandler@@YA?AW4_EXCEPTION_DISPOSITION@@PAUEHExceptionRecord@@PAUTranslatorGuardRN@@PAX2@Z 004509a6 f   libcmt:trnsctrl.obj
 0001:0004f504       fFMOD                      00450504 f   libcmt:87fmod.obj
 0001:0004f12d       _fast_error_exit           0045012d f   libcmt:wincrt0.obj
 0001:0005d2ec       _$E24                      0045e2ec f   libcpmt:string.obj
 0001:0005d316       _$E20                      0045e316 f   libcpmt:string.obj
 0001:0005d322       _$E23                      0045e322 f   libcpmt:string.obj

 6210 bytes saved through ICF

