 compress

 Timestamp is 5242e64d (Wed Sep 25 21:34:05 2013)

 Preferred load address is 10000000

 Start         Length     Name                   Class
 0001:00000000 000571eeH .text                   CODE
 0001:000571ee 00000d98H .text$AFX_AUX           CODE
 0001:00057f86 0000066fH .text$AFX_CMNCTL        CODE
 0001:000585f5 000007deH .text$AFX_COL1          CODE
 0001:00058dd3 000004c7H .text$AFX_COL2          CODE
 0001:0005929a 000062f8H .text$AFX_CORE1         CODE
 0001:0005f592 0000169eH .text$AFX_CORE2         CODE
 0001:00060c30 000008edH .text$AFX_CORE3         CODE
 0001:0006151d 00000d06H .text$AFX_CORE4         CODE
 0001:00062223 00001bc3H .text$AFX_INIT          CODE
 0001:00063de6 00000000H .text$AFX_OLE1          CODE
 0001:00063de6 00000000H .text$AFX_OLE5          CODE
 0001:00063de6 00000000H .text$AFX_PRNT          CODE
 0001:00063de6 0000015eH .text$AFX_TERM          CODE
 0001:00063f50 00003536H .text$x                 CODE
 0002:00000000 00000690H .idata$5                DATA
 0002:00000690 00007aa8H .rdata                  DATA
 0002:00008138 0000127cH .rdata$r                DATA
 0002:000093b8 00004a60H .xdata$x                DATA
 0002:0000de18 000000f0H .idata$2                DATA
 0002:0000df08 00000014H .idata$3                DATA
 0002:0000df1c 00000690H .idata$4                DATA
 0002:0000e5ac 00001a8cH .idata$6                DATA
 0002:00010040 000000b2H .edata                  DATA
 0003:00000000 00000004H .CRT$XCA                DATA
 0003:00000004 0000002cH .CRT$XCC                DATA
 0003:00000030 00000018H .CRT$XCL                DATA
 0003:00000048 0000005cH .CRT$XCU                DATA
 0003:000000a4 00000004H .CRT$XCZ                DATA
 0003:000000a8 00000004H .CRT$XIA                DATA
 0003:000000ac 0000000cH .CRT$XIC                DATA
 0003:000000b8 00000004H .CRT$XIY                DATA
 0003:000000bc 00000004H .CRT$XIZ                DATA
 0003:000000c0 00000004H .CRT$XPA                DATA
 0003:000000c4 00000008H .CRT$XPX                DATA
 0003:000000cc 00000004H .CRT$XPZ                DATA
 0003:000000d0 00000004H .CRT$XTA                DATA
 0003:000000d4 00000004H .CRT$XTB                DATA
 0003:000000d8 00000004H .CRT$XTZ                DATA
 0003:000000e0 0000feacH .data                   DATA
 0003:0000ff90 000136fcH .bss                    DATA
 0004:00000000 00000b6cH .rsrc$01                DATA
 0004:00000b70 000049c8H .rsrc$02                DATA

  Address         Publics by Value              Rva+Base     Lib:Object

 0001:00000000       _cominf_GetProcAddress     10001000 f   compress.obj
 0001:00000000       _cominf_LoadLibrary        10001000 f   compress.obj
 0001:00000000       _mp3_GetProcAddress        10001000 f   compress.obj
 0001:00000000       _com_GetProcAddress        10001000 f   compress.obj
 0001:00000000       _ocx_GetProcAddress        10001000 f   compress.obj
 0001:00000000       _odbcdb_GetProcAddress     10001000 f   compress.obj
 0001:00000000       _ocx_LoadLibrary           10001000 f   compress.obj
 0001:00000000       _mp3_LoadLibrary           10001000 f   compress.obj
 0001:00000000       _com_LoadLibrary           10001000 f   compress.obj
 0001:00000000       _odbcdb_LoadLibrary        10001000 f   compress.obj
 0001:00000002       _mp3_FreeLibrary           10001002 f   compress.obj
 0001:00000002       _odbcdb_FreeLibrary        10001002 f   compress.obj
 0001:00000002       _cominf_FreeLibrary        10001002 f   compress.obj
 0001:00000002       _com_FreeLibrary           10001002 f   compress.obj
 0001:00000002       _ocx_FreeLibrary           10001002 f   compress.obj
 0001:00000890       _compress@12               10001890 f   compress.obj
 0001:000008af       _free_buffer@4             100018af f   compress.obj
 0001:000008ce       _decompress@12             100018ce f   compress.obj
 0001:0000097f       _length_of_file@4          1000197f f   compress.obj
 0001:000009c7       _get_file_data@8           100019c7 f   compress.obj
 0001:00000a11       _crc@8                     10001a11 f   compress.obj
 0001:00000a32       _EStartup                  10001a32 f   compress.obj
 0001:00000a90       ?GetMDataPtr@@YAPAEPAUMDATA_INF@@PAH@Z 10001a90 f   krnln_static:Libfn.obj
 0001:00000b70       ?RunBitOper@@YAXHPAUMDATA_INF@@H0@Z 10001b70 f   krnln_static:Libfn.obj
 0001:00000bc0       _krnln_fnBNot              10001bc0 f   krnln_static:Libfn.obj
 0001:00000bd0       _krnln_fnBAnd              10001bd0 f   krnln_static:Libfn.obj
 0001:00000bf0       _krnln_fnBXor              10001bf0 f   krnln_static:Libfn.obj
 0001:00000c10       _krnln_fnBinLen            10001c10 f   krnln_static:Libfn.obj
 0001:00000c30       ??_ECFreqMem@@UAEPAXI@Z    10001c30 f i krnln_static:Libfn.obj
 0001:00000c30       ??_GCFreqMem@@UAEPAXI@Z    10001c30 f i krnln_static:Libfn.obj
 0001:00000c60       ??_ECMyDWordArray@@UAEPAXI@Z 10001c60 f i krnln_static:Libfn.obj
 0001:00000c60       ??_GCMyDWordArray@@UAEPAXI@Z 10001c60 f i krnln_static:Libfn.obj
 0001:00000c80       ??1CMyDWordArray@@UAE@XZ   10001c80 f i krnln_static:Libfn.obj
 0001:00000c80       ??1CFreqMem@@UAE@XZ        10001c80 f i krnln_static:Libfn.obj
 0001:00000c90       _krnln_fnFileLen           10001c90 f   krnln_static:Libfn.obj
 0001:00000ce0       _krnln_fnReadFile          10001ce0 f   krnln_static:Libfn.obj
 0001:00000d50       ??1AFX_EXCEPTION_LINK@@QAE@XZ 10001d50 f i krnln_static:Libfn.obj
 0001:00000d60       ??3CObject@@SGXPAX@Z       10001d60 f i krnln_static:Libfn.obj
 0001:00000d70       ?GetCursorDataPtr@CWinUnitIDManger@@QAEPAEPAE@Z 10001d70 f i krnln_static:Libfn.obj
 0001:00000da0       ??_GCGdiObject@@UAEPAXI@Z  10001da0 f i krnln_static:Libfn.obj
 0001:00000da0       ??_ECGdiObject@@UAEPAXI@Z  10001da0 f i krnln_static:Libfn.obj
 0001:00000dc0       ??1CGdiObject@@UAE@XZ      10001dc0 f i krnln_static:Libfn.obj
 0001:00000e00       ??1CBrush@@UAE@XZ          10001e00 f i krnln_static:Libfn.obj
 0001:00000e40       ??1CJBPic@@UAE@XZ          10001e40 f i krnln_static:Libfn.obj
 0001:00000ea0       ??_GCJBPic@@UAEPAXI@Z      10001ea0 f i krnln_static:Libfn.obj
 0001:00000ea0       ??_ECJBPic@@UAEPAXI@Z      10001ea0 f i krnln_static:Libfn.obj
 0001:00000ec0       _krnln_fnpbin              10001ec0 f   krnln_static:Libfn.obj
 0001:00000ee0       _krnln_fnWriteMem          10001ee0 f   krnln_static:Libfn.obj
 0001:00000f70       _krnln_fnSHR               10001f70 f   krnln_static:Libfn.obj
 0001:00000fd0       ??1?$CThreadLocal@VCMDBState@@@@QAE@XZ 10001fd0 f i krnln_static:Libfn.obj
 0001:00000fd0       ??1?$CThreadLocal@VCMComState@@@@QAE@XZ 10001fd0 f i krnln_static:Libfn.obj
 0001:00000fe0       ?SetFilePath@CFile@@UAEXPBD@Z 10001fe0 f i krnln_static:Libfn.obj
 0001:00000ff0       ??_ECCryptFile@@UAEPAXI@Z  10001ff0 f i krnln_static:Libfn.obj
 0001:00000ff0       ??_GCCryptFile@@UAEPAXI@Z  10001ff0 f i krnln_static:Libfn.obj
 0001:00001010       ??1CCryptFile@@UAE@XZ      10002010 f i krnln_static:Libfn.obj
 0001:00001020       ??0CFreqMem@@QAE@XZ        10002020 f   krnln_static:krnl2.obj
 0001:00001040       ?Alloc@CFreqMem@@QAEPAEH@Z 10002040 f   krnln_static:krnl2.obj
 0001:00001110       ?Realloc@CFreqMem@@QAEPAEH@Z 10002110 f   krnln_static:krnl2.obj
 0001:00001220       ?Free@CFreqMem@@QAEXXZ     10002220 f   krnln_static:krnl2.obj
 0001:00001240       ?_Free@CFreqMem@@IAEXPAE@Z 10002240 f   krnln_static:krnl2.obj
 0001:000012b0       ?AddDWord@CFreqMem@@QAEXK@Z 100022b0 f   krnln_static:krnl2.obj
 0001:000012b0       ?AddInt@CFreqMem@@QAEXH@Z  100022b0 f   krnln_static:krnl2.obj
 0001:000012b0       ?AddBool@CFreqMem@@QAEXH@Z 100022b0 f   krnln_static:krnl2.obj
 0001:000012f0       ?AddWord@CFreqMem@@QAEXG@Z 100022f0 f   krnln_static:krnl2.obj
 0001:00001330       ?AddByte@CFreqMem@@QAEXE@Z 10002330 f   krnln_static:krnl2.obj
 0001:00001360       ?XchgMem@CFreqMem@@QAEXAAV1@@Z 10002360 f   krnln_static:krnl2.obj
 0001:000013a0       ?Serialize@CFreqMem@@QAEXAAVCArchive@@@Z 100023a0 f   krnln_static:krnl2.obj
 0001:00001450       ?ReadFile@CFreqMem@@QAEHAAVCString@@H@Z 10002450 f   krnln_static:krnl2.obj
 0001:000015a0       ?WriteFile@CFreqMem@@QAEHAAVCString@@HH@Z 100025a0 f   krnln_static:krnl2.obj
 0001:000016b0       ?Insert@CFreqMem@@QAEHHPAEH@Z 100026b0 f   krnln_static:krnl2.obj
 0001:00001750       ?Append@CFreqMem@@QAEHPAEH@Z 10002750 f   krnln_static:krnl2.obj
 0001:000017b0       ?Replace@CFreqMem@@QAEHHHPAEH@Z 100027b0 f   krnln_static:krnl2.obj
 0001:000018d0       ?Remove@CFreqMem@@QAEHHH@Z 100028d0 f   krnln_static:krnl2.obj
 0001:00001980       ?FindInt@@YAHPAHHH@Z       10002980 f   krnln_static:krnl2.obj
 0001:000019a0       ?IsEmptyStr@@YAHPAD@Z      100029a0 f   krnln_static:krnl2.obj
 0001:000019c0       ?MoveMem@@YAXPAE0K@Z       100029c0 f   krnln_static:krnl2.obj
 0001:00001a20       ?ZeroMem@@YAXPAEK@Z        10002a20 f   krnln_static:krnl2.obj
 0001:00001a70       ?tcsallbytes@@YAHPAD@Z     10002a70 f   krnln_static:krnl2.obj
 0001:00001a90       ?tcsbytes@@YAHPAD@Z        10002a90 f   krnln_static:krnl2.obj
 0001:00001ab0       ?FindByte@@YAHPAEHE@Z      10002ab0 f   krnln_static:krnl2.obj
 0001:00001b00       ?FindDWord@@YAHPAKHK@Z     10002b00 f   krnln_static:krnl2.obj
 0001:00001b50       ?ProcessSysBackColor@@YAKK@Z 10002b50 f   krnln_static:krnl2.obj
 0001:00001b70       ?MyCreateFont@@YAHAAVCFont@@PAUtagLOGFONTA@@@Z 10002b70 f   krnln_static:krnl2.obj
 0001:00001bd0       ?SerializeCString@@YAXAAVCString@@AAVCArchive@@@Z 10002bd0 f   krnln_static:krnl2.obj
 0001:00001c70       ?SetStr@@YAXAAVCString@@PAD@Z 10002c70 f   krnln_static:krnl2.obj
 0001:00001c90       ?FindDataSource@@YAPAVCMDataSource@@KPAVCProvider@@@Z 10002c90 f   krnln_static:krnl2.obj
 0001:00001d30       ?FindDataSource@@YAPAVCMDataSource@@KPADPAPAUHWND__@@@Z 10002d30 f   krnln_static:krnl2.obj
 0001:00001e10       ?FindProvider@@YAPAVCProvider@@KPAD@Z 10002e10 f   krnln_static:krnl2.obj
 0001:00001ed0       ??6CArchive@@QAEAAV0@J@Z   10002ed0 f i krnln_static:krnl2.obj
 0001:00001ed0       ??6CArchive@@QAEAAV0@K@Z   10002ed0 f i krnln_static:krnl2.obj
 0001:00001f00       ??5CArchive@@QAEAAV0@AAJ@Z 10002f00 f i krnln_static:krnl2.obj
 0001:00001f40       ?Serialize@CPropertyInfo@@UAEHAAVCArchive@@@Z 10002f40 f i krnln_static:krnl2.obj
 0001:00001f60       ?DoDataExchange@CWnd@@MAEXPAVCDataExchange@@@Z 10002f60 f i krnln_static:krnl2.obj
 0001:00001f60       ?Serialize@CObject@@UAEXAAVCArchive@@@Z 10002f60 f i krnln_static:krnl2.obj
 0001:00001f70       ?BeginModalState@CWnd@@UAEXXZ 10002f70 f i krnln_static:krnl2.obj
 0001:00001f80       ?EndModalState@CWnd@@UAEXXZ 10002f80 f i krnln_static:krnl2.obj
 0001:00001f90       ?OnDeltapos@CSpin@@IAEXPAUtagNMHDR@@PAJ@Z 10002f90 f   krnln_static:krnl2.obj
 0001:000021a0       ?CtlColor@CSpin@@IAEPAUHBRUSH__@@PAVCDC@@I@Z 100031a0 f   krnln_static:krnl2.obj
 0001:000021c0       ??_ECBrush@@UAEPAXI@Z      100031c0 f i krnln_static:krnl2.obj
 0001:000021c0       ??_GCBrush@@UAEPAXI@Z      100031c0 f i krnln_static:krnl2.obj
 0001:000021e0       ??_ECFont@@UAEPAXI@Z       100031e0 f i krnln_static:krnl2.obj
 0001:000021e0       ??_GCFont@@UAEPAXI@Z       100031e0 f i krnln_static:krnl2.obj
 0001:00002200       ??1CFont@@UAE@XZ           10003200 f i krnln_static:krnl2.obj
 0001:00002240       ??_ECEdit@@UAEPAXI@Z       10003240 f i krnln_static:krnl2.obj
 0001:00002240       ??_GCEdit@@UAEPAXI@Z       10003240 f i krnln_static:krnl2.obj
 0001:00002260       ?OnInit@CUEdit@@QAEJIJ@Z   10003260 f   krnln_static:krnl2.obj
 0001:000022c0       ?OnEraseBkgnd@CUEdit@@QAEHPAVCDC@@@Z 100032c0 f   krnln_static:krnl2.obj
 0001:00002320       ?OnMyNcPaint@CUEdit@@QAEJIJ@Z 10003320 f   krnln_static:krnl2.obj
 0001:00002430       ?OnNcHitTest@CUEdit@@QAEIVCPoint@@@Z 10003430 f   krnln_static:krnl2.obj
 0001:00002490       ?OnNcCalcSize@CUEdit@@QAEXHPAUtagNCCALCSIZE_PARAMS@@@Z 10003490 f   krnln_static:krnl2.obj
 0001:00002570       ?OnDestroy@CUEdit@@QAEXXZ  10003570 f   krnln_static:krnl2.obj
 0001:00002590       ?OnGetDSWnd@CUEdit@@QAEJIJ@Z 10003590 f   krnln_static:krnl2.obj
 0001:000025c0       ?SetDataSourceUnit@CUEdit@@QAEXXZ 100035c0 f   krnln_static:krnl2.obj
 0001:00002600       ?RefrushState@CUEdit@@QAEXXZ 10003600 f   krnln_static:krnl2.obj
 0001:00002650       ?RefrushFromDataSource@CUEdit@@QAEXXZ 10003650 f   krnln_static:krnl2.obj
 0001:00002720       ?OnChange@CUEdit@@QAEXXZ   10003720 f   krnln_static:krnl2.obj
 0001:00002770       ?OnWindowPosChanged@CUEdit@@QAEXPAUtagWINDOWPOS@@@Z 10003770 f   krnln_static:krnl2.obj
 0001:000027c0       ?CtlColor@CUEdit@@QAEPAUHBRUSH__@@PAVCDC@@I@Z 100037c0 f   krnln_static:krnl2.obj
 0001:00002800       ?OnChar@CUEdit@@QAEXIII@Z  10003800 f   krnln_static:krnl2.obj
 0001:00002860       ?GetConvertContext@CUEdit@@QAEHAAVCString@@@Z 10003860 f   krnln_static:krnl2.obj
 0001:00002ae0       ?OnKillfocus@CUEdit@@QAEXXZ 10003ae0 f   krnln_static:krnl2.obj
 0001:00002bc0       ?OnSetfocus@CUEdit@@QAEXXZ 10003bc0 f   krnln_static:krnl2.obj
 0001:00002c10       ?OnShowWindow@CUEdit@@QAEXHI@Z 10003c10 f   krnln_static:krnl2.obj
 0001:00002c50       ?OnSize@CUEdit@@QAEXIHH@Z  10003c50 f   krnln_static:krnl2.obj
 0001:00002c70       ?OnMove@CUEdit@@QAEXHH@Z   10003c70 f   krnln_static:krnl2.obj
 0001:00002c90       ?OnEnable@CUEdit@@QAEXH@Z  10003c90 f   krnln_static:krnl2.obj
 0001:00002cc0       ?AdjustSpinPos@CUEdit@@QAEXXZ 10003cc0 f   krnln_static:krnl2.obj
 0001:00002d80       ?OnInit2@CUTab@@IAEJIJ@Z   10003d80 f   krnln_static:krnl2.obj
 0001:00002d90       ?OnPaint@CUTab@@IAEXXZ     10003d90 f   krnln_static:krnl2.obj
 0001:00002e80       ?GetCurTab@CUTab@@QAEHXZ   10003e80 f   krnln_static:krnl2.obj
 0001:00002eb0       ?OnClick@CUTab@@IAEXPAUtagNMHDR@@PAJ@Z 10003eb0 f   krnln_static:krnl2.obj
 0001:00002f00       ?OnSelchanging@CUTab@@IAEXPAUtagNMHDR@@PAJ@Z 10003f00 f   krnln_static:krnl2.obj
 0001:00002f80       ?ChkCurChildTab@CUTab@@QAEXXZ 10003f80 f   krnln_static:krnl2.obj
 0001:00003030       ?OnSelchange@CUTab@@IAEXPAUtagNMHDR@@PAJ@Z 10004030 f   krnln_static:krnl2.obj
 0001:000030c0       ?OnInit@CULabel@@IAEJIJ@Z  100040c0 f   krnln_static:krnl2.obj
 0001:00003120       ?OnDllMsg@CULabel@@IAEJIJ@Z 10004120 f   krnln_static:krnl2.obj
 0001:000031a0       ?OnGetDSWnd@CULabel@@IAEJIJ@Z 100041a0 f   krnln_static:krnl2.obj
 0001:000031d0       ?SetDataSourceUnit@CULabel@@QAEXXZ 100041d0 f   krnln_static:krnl2.obj
 0001:00003200       ?RefrushFromDataSource@CULabel@@QAEXXZ 10004200 f   krnln_static:krnl2.obj
 0001:000032c0       ?DrawUnitPic@@YAXHPAVCDC@@PAUPIC_INFO@@ABVCRect@@2PAVCRgn@@@Z 100042c0 f   krnln_static:krnl2.obj
 0001:00003610       ??_GCRgn@@UAEPAXI@Z        10004610 f i krnln_static:krnl2.obj
 0001:00003610       ??_ECRgn@@UAEPAXI@Z        10004610 f i krnln_static:krnl2.obj
 0001:00003630       ??1CRgn@@UAE@XZ            10004630 f i krnln_static:krnl2.obj
 0001:00003670       ?OnPaint@CULabel@@IAEXXZ   10004670 f   krnln_static:krnl2.obj
 0001:00003c70       ??1CPicWnd@@UAE@XZ         10004c70 f i krnln_static:krnl2.obj
 0001:00003d20       ??_ECPicWnd@@UAEPAXI@Z     10004d20 f i krnln_static:krnl2.obj
 0001:00003d20       ??_GCPicWnd@@UAEPAXI@Z     10004d20 f i krnln_static:krnl2.obj
 0001:00003d40       ?OnInit@CUPicBox@@IAEJIJ@Z 10004d40 f   krnln_static:krnl2.obj
 0001:00003da0       ?OnDestroy@CUPicBox@@IAEXXZ 10004da0 f   krnln_static:krnl2.obj
 0001:00003dc0       ?OnGetDSWnd@CUPicBox@@IAEJIJ@Z 10004dc0 f   krnln_static:krnl2.obj
 0001:00003df0       ?SetDataSourceUnit@CUPicBox@@QAEXXZ 10004df0 f   krnln_static:krnl2.obj
 0001:00003e20       ?RefrushFromDataSource@CUPicBox@@QAEXXZ 10004e20 f   krnln_static:krnl2.obj
 0001:00003f50       ?OnPaint@CUShapeBox@@IAEXXZ 10004f50 f   krnln_static:krnl2.obj
 0001:00004440       ??_GCPen@@UAEPAXI@Z        10005440 f i krnln_static:krnl2.obj
 0001:00004440       ??_ECPen@@UAEPAXI@Z        10005440 f i krnln_static:krnl2.obj
 0001:00004460       ??1CPen@@UAE@XZ            10005460 f i krnln_static:krnl2.obj
 0001:000044a0       ??_ECButton@@UAEPAXI@Z     100054a0 f i krnln_static:krnl2.obj
 0001:000044a0       ??_GCButton@@UAEPAXI@Z     100054a0 f i krnln_static:krnl2.obj
 0001:000044c0       ?CtlColor@CUGroupBox@@IAEPAUHBRUSH__@@PAVCDC@@I@Z 100054c0 f   krnln_static:krnl2.obj
 0001:00004500       ?OnEraseBkgnd@CUGroupBox@@IAEHPAVCDC@@@Z 10005500 f   krnln_static:krnl2.obj
 0001:00004550       ?OnClicked@CUButton@@IAEXXZ 10005550 f   krnln_static:krnl2.obj
 0001:00004590       ?OnKillFocus@CUButton@@IAEXPAVCWnd@@@Z 10005590 f   krnln_static:krnl2.obj
 0001:000045e0       ?OnSetFocus@CUButton@@IAEXPAVCWnd@@@Z 100055e0 f   krnln_static:krnl2.obj
 0001:00004630       ?HScroll@CUHScrollBar@@IAEXII@Z 10005630 f   krnln_static:krnl2.obj
 0001:00004730       ?OnKillFocus@CUVScrollBar@@IAEXPAVCWnd@@@Z 10005730 f   krnln_static:krnl2.obj
 0001:00004730       ?OnKillFocus@CUHScrollBar@@IAEXPAVCWnd@@@Z 10005730 f   krnln_static:krnl2.obj
 0001:00004780       ?OnSetFocus@CUHScrollBar@@IAEXPAVCWnd@@@Z 10005780 f   krnln_static:krnl2.obj
 0001:00004780       ?OnSetFocus@CUVScrollBar@@IAEXPAVCWnd@@@Z 10005780 f   krnln_static:krnl2.obj
 0001:000047d0       ?OnGetWndPtr@CUHScrollBar@@IAEJIJ@Z 100057d0 f   krnln_static:krnl2.obj
 0001:000047d0       ?OnGetWndPtr@CColourPicker@@IAEJIJ@Z 100057d0 f   krnln_static:krnl2.obj
 0001:000047d0       ?OnGetWndPtr@CUVScrollBar@@IAEJIJ@Z 100057d0 f   krnln_static:krnl2.obj
 0001:000047e0       ?VScroll@CUVScrollBar@@IAEXII@Z 100057e0 f   krnln_static:krnl2.obj
 0001:000048e0       ?VScroll@CUSliderBar@@IAEXII@Z 100058e0 f   krnln_static:krnl2.obj
 0001:000048e0       ?HScroll@CUSliderBar@@IAEXII@Z 100058e0 f   krnln_static:krnl2.obj
 0001:00004940       ?OnKillFocus@CUSliderBar@@IAEXPAVCWnd@@@Z 10005940 f   krnln_static:krnl2.obj
 0001:00004990       ?OnSetFocus@CUSliderBar@@IAEXPAVCWnd@@@Z 10005990 f   krnln_static:krnl2.obj
 0001:000049e0       ?OnPaint@CUAnimate@@IAEXXZ 100059e0 f   krnln_static:krnl2.obj
 0001:00004a00       ?OnInit@CUDateTimePicker@@IAEJIJ@Z 10005a00 f   krnln_static:krnl2.obj
 0001:00004a60       ?OnDestroy@CUDateTimePicker@@IAEXXZ 10005a60 f   krnln_static:krnl2.obj
 0001:00004a80       ?OnGetDSWnd@CUDateTimePicker@@IAEJIJ@Z 10005a80 f   krnln_static:krnl2.obj
 0001:00004ab0       ?SetDataSourceUnit@CUDateTimePicker@@QAEXXZ 10005ab0 f   krnln_static:krnl2.obj
 0001:00004af0       ?RefrushState@CUDateTimePicker@@QAEXXZ 10005af0 f   krnln_static:krnl2.obj
 0001:00004b30       ?RefrushFromDataSource@CUDateTimePicker@@QAEXXZ 10005b30 f   krnln_static:krnl2.obj
 0001:00004c10       ?OnMyDateTimeChange@CUDateTimePicker@@IAEJIJ@Z 10005c10 f   krnln_static:krnl2.obj
 0001:00004ca0       ?OnDatetimechange@CUDateTimePicker@@IAEXPAUtagNMHDR@@PAJ@Z 10005ca0 f   krnln_static:krnl2.obj
 0001:00004cc0       ?OnKillfocus@CUDateTimePicker@@IAEXPAUtagNMHDR@@PAJ@Z 10005cc0 f   krnln_static:krnl2.obj
 0001:00004d20       ?OnSetfocus@CUDateTimePicker@@IAEXPAUtagNMHDR@@PAJ@Z 10005d20 f   krnln_static:krnl2.obj
 0001:00004d80       ?OnSelchange@CUMonthCalCtrl@@IAEXPAUtagNMHDR@@PAJ@Z 10005d80 f   krnln_static:krnl2.obj
 0001:00004dd0       ??5CArchive@@QAEAAV0@AAE@Z 10005dd0 f i krnln_static:krnl2.obj
 0001:00004e10       ??_GCComboBox@@UAEPAXI@Z   10005e10 f i krnln_static:krnl2.obj
 0001:00004e10       ??_ECComboBox@@UAEPAXI@Z   10005e10 f i krnln_static:krnl2.obj
 0001:00004e30       ?CtlColor@CUDrvBox@@IAEPAUHBRUSH__@@PAVCDC@@I@Z 10005e30 f   krnln_static:krnl2.obj
 0001:00004e70       ?OnKillfocus@CUDrvBox@@IAEXXZ 10005e70 f   krnln_static:krnl2.obj
 0001:00004eb0       ?OnSetfocus@CUDrvBox@@IAEXXZ 10005eb0 f   krnln_static:krnl2.obj
 0001:00004ef0       ?OnSelendok@CUDrvBox@@IAEXXZ 10005ef0 f   krnln_static:krnl2.obj
 0001:00004f70       ?OnKillfocus@CUDirTree@@IAEXPAUtagNMHDR@@PAJ@Z 10005f70 f   krnln_static:krnl2.obj
 0001:00004fd0       ?OnSetfocus@CUDirTree@@IAEXPAUtagNMHDR@@PAJ@Z 10005fd0 f   krnln_static:krnl2.obj
 0001:00005030       ?CtlColor@CUDirTree@@IAEPAUHBRUSH__@@PAVCDC@@I@Z 10006030 f   krnln_static:krnl2.obj
 0001:00005060       ?AddDirsToTree@CUDirTree@@QAEXPAU_TREEITEM@@@Z 10006060 f   krnln_static:krnl2.obj
 0001:00005210       ?BuildPathFromTree@CUDirTree@@QAEXPAU_TREEITEM@@@Z 10006210 f   krnln_static:krnl2.obj
 0001:00005380       ?DeleteChildren@CUDirTree@@QAEXPAU_TREEITEM@@@Z 10006380 f   krnln_static:krnl2.obj
 0001:00005400       ?DeletePeers@CUDirTree@@QAEXPAU_TREEITEM@@@Z 10006400 f   krnln_static:krnl2.obj
 0001:00005480       ?OnDblclk@CUDirTree@@IAEXPAUtagNMHDR@@PAJ@Z 10006480 f   krnln_static:krnl2.obj
 0001:00005560       ?OnKeyDown@CUDirTree@@IAEXIII@Z 10006560 f   krnln_static:krnl2.obj
 0001:00005580       ?OnKillfocus@CUFileBox@@IAEXXZ 10006580 f   krnln_static:krnl2.obj
 0001:000055d0       ?OnSetfocus@CUFileBox@@IAEXXZ 100065d0 f   krnln_static:krnl2.obj
 0001:00005620       ?OnDblclk@CUFileBox@@IAEXXZ 10006620 f   krnln_static:krnl2.obj
 0001:00005670       ?CtlColor@CUFileBox@@IAEPAUHBRUSH__@@PAVCDC@@I@Z 10006670 f   krnln_static:krnl2.obj
 0001:000056c0       ?OnSelchange@CUFileBox@@IAEXXZ 100066c0 f   krnln_static:krnl2.obj
 0001:000057f0       ?OnSelEndOK@CUColorPicker@@IAEJIJ@Z 100067f0 f   krnln_static:krnl2.obj
 0001:00005860       ?OnKillFocus@CUColorPicker@@IAEXPAVCWnd@@@Z 10006860 f   krnln_static:krnl2.obj
 0001:000058b0       ?OnSetFocus@CUColorPicker@@IAEXPAVCWnd@@@Z 100068b0 f   krnln_static:krnl2.obj
 0001:00005900       ?OnLButtonDown@CUHyperLinker@@IAEXIVCPoint@@@Z 10006900 f   krnln_static:krnl2.obj
 0001:00005930       ?OnMouseMove@CUHyperLinker@@IAEXIVCPoint@@@Z 10006930 f   krnln_static:krnl2.obj
 0001:000059e0       ?GetRegKey@CUHyperLinker@@IAEJPAUHKEY__@@PBDPAD@Z 100069e0 f   krnln_static:krnl2.obj
 0001:00005a50       ?GotoURL@CUHyperLinker@@QAEHH@Z 10006a50 f   krnln_static:krnl2.obj
 0001:00005c20       ?OnPaint@CUHyperLinker@@IAEXXZ 10006c20 f   krnln_static:krnl2.obj
 0001:00005e90       ?OnDeltapos@CUSpin@@IAEXPAUtagNMHDR@@PAJ@Z 10006e90 f   krnln_static:krnl2.obj
 0001:00005f00       ?OnTimer@CUTimer@@IAEXI@Z  10006f00 f   krnln_static:krnl2.obj
 0001:00005f50       ?OnCreate@CUTimer@@IAEHPAUtagCREATESTRUCTA@@@Z 10006f50 f   krnln_static:krnl2.obj
 0001:00005f90       ?OnPaint@CUTimer@@IAEXXZ   10006f90 f   krnln_static:krnl2.obj
 0001:00005fb0       ?OnDestroy@CUTimer@@IAEXXZ 10006fb0 f   krnln_static:krnl2.obj
 0001:00005fe0       ?OnPaint@CUCommonDlg@@IAEXXZ 10006fe0 f   krnln_static:krnl2.obj
 0001:00006000       ??1CFileDialog@@UAE@XZ     10007000 f i krnln_static:krnl2.obj
 0001:00006050       ?OnInit@CUCheckBox@@IAEJIJ@Z 10007050 f   krnln_static:krnl2.obj
 0001:000060b0       ?OnDestroy@CUCheckBox@@IAEXXZ 100070b0 f   krnln_static:krnl2.obj
 0001:000060d0       ?OnGetDSWnd@CUCheckBox@@IAEJIJ@Z 100070d0 f   krnln_static:krnl2.obj
 0001:00006100       ?SetDataSourceUnit@CUCheckBox@@QAEXXZ 10007100 f   krnln_static:krnl2.obj
 0001:00006140       ?RefrushState@CUCheckBox@@QAEXXZ 10007140 f   krnln_static:krnl2.obj
 0001:00006180       ?RefrushFromDataSource@CUCheckBox@@QAEXXZ 10007180 f   krnln_static:krnl2.obj
 0001:00006230       ?OnClicked@CUCheckBox@@IAEXXZ 10007230 f   krnln_static:krnl2.obj
 0001:00006230       ?OnSelchange@CUChkListBox@@IAEXXZ 10007230 f   krnln_static:krnl2.obj
 0001:00006270       ?CtlColor@CUCheckBox@@IAEPAUHBRUSH__@@PAVCDC@@I@Z 10007270 f   krnln_static:krnl2.obj
 0001:000062b0       ?OnClicked@CURadio@@IAEXXZ 100072b0 f   krnln_static:krnl2.obj
 0001:00006300       ?OnKillFocus@CURadio@@IAEXPAVCWnd@@@Z 10007300 f   krnln_static:krnl2.obj
 0001:00006360       ?OnSetFocus@CURadio@@IAEXPAVCWnd@@@Z 10007360 f   krnln_static:krnl2.obj
 0001:000063c0       ?CtlColor@CURadio@@IAEPAUHBRUSH__@@PAVCDC@@I@Z 100073c0 f   krnln_static:krnl2.obj
 0001:00006400       ?OnInit@CUComboBox@@IAEJIJ@Z 10007400 f   krnln_static:krnl2.obj
 0001:00006460       ?OnDestroy@CUComboBox@@IAEXXZ 10007460 f   krnln_static:krnl2.obj
 0001:00006480       ?OnGetDSWnd@CUComboBox@@IAEJIJ@Z 10007480 f   krnln_static:krnl2.obj
 0001:000064b0       ?SetDataSourceUnit@CUComboBox@@QAEXXZ 100074b0 f   krnln_static:krnl2.obj
 0001:000064f0       ?RefrushState@CUComboBox@@QAEXXZ 100074f0 f   krnln_static:krnl2.obj
 0001:00006530       ?RefrushFromDataSource@CUComboBox@@QAEXXZ 10007530 f   krnln_static:krnl2.obj
 0001:00006630       ?OnKillfocus@CUComboBox@@IAEXXZ 10007630 f   krnln_static:krnl2.obj
 0001:00006680       ?OnSetfocus@CUComboBox@@IAEXXZ 10007680 f   krnln_static:krnl2.obj
 0001:000066d0       ?OnCloseup@CUComboBox@@IAEXXZ 100076d0 f   krnln_static:krnl2.obj
 0001:00006720       ?OnDropdown@CUComboBox@@IAEXXZ 10007720 f   krnln_static:krnl2.obj
 0001:00006770       ?OnDblclk@CUComboBox@@IAEXXZ 10007770 f   krnln_static:krnl2.obj
 0001:000067c0       ?OnEditchange@CUComboBox@@IAEXXZ 100077c0 f   krnln_static:krnl2.obj
 0001:00006810       ?OnSelendok@CUComboBox@@IAEXXZ 10007810 f   krnln_static:krnl2.obj
 0001:00006830       ?OnSelendOkNotify@CUComboBox@@IAEXXZ 10007830 f   krnln_static:krnl2.obj
 0001:00006880       ?CtlColor@CUComboBox@@IAEPAUHBRUSH__@@PAVCDC@@I@Z 10007880 f   krnln_static:krnl2.obj
 0001:000068c0       ?OnEraseBkgnd@CUComboBox@@IAEHPAVCDC@@@Z 100078c0 f   krnln_static:krnl2.obj
 0001:00006920       ?OnInit@CUListBox@@IAEJIJ@Z 10007920 f   krnln_static:krnl2.obj
 0001:00006980       ?OnDestroy@CUListBox@@IAEXXZ 10007980 f   krnln_static:krnl2.obj
 0001:00006980       ?OnDestroy@CULabel@@IAEXXZ 10007980 f   krnln_static:krnl2.obj
 0001:000069a0       ?OnGetDSWnd@CUListBox@@IAEJIJ@Z 100079a0 f   krnln_static:krnl2.obj
 0001:000069d0       ?SetDataSourceUnit@CUListBox@@QAEXXZ 100079d0 f   krnln_static:krnl2.obj
 0001:00006a10       ?RefrushState@CUListBox@@QAEXXZ 10007a10 f   krnln_static:krnl2.obj
 0001:00006a50       ?RefrushFromDataSource@CUListBox@@QAEXXZ 10007a50 f   krnln_static:krnl2.obj
 0001:00006b20       ?CtlColor@CUListBox@@IAEPAUHBRUSH__@@PAVCDC@@I@Z 10007b20 f   krnln_static:krnl2.obj
 0001:00006b60       ?OnSelchange@CUListBox@@IAEXXZ 10007b60 f   krnln_static:krnl2.obj
 0001:00006bb0       ?OnKillfocus@CUListBox@@IAEXXZ 10007bb0 f   krnln_static:krnl2.obj
 0001:00006c00       ?OnSetfocus@CUListBox@@IAEXXZ 10007c00 f   krnln_static:krnl2.obj
 0001:00006c50       ?OnDblclk@CUListBox@@IAEXXZ 10007c50 f   krnln_static:krnl2.obj
 0001:00006ca0       ??_ECBitmap@@UAEPAXI@Z     10007ca0 f i krnln_static:krnl2.obj
 0001:00006ca0       ??_GCBitmap@@UAEPAXI@Z     10007ca0 f i krnln_static:krnl2.obj
 0001:00006cc0       ??1CBitmap@@UAE@XZ         10007cc0 f i krnln_static:krnl2.obj
 0001:00006d00       ?OnDblclk@CUChkListBox@@IAEXXZ 10007d00 f   krnln_static:krnl2.obj
 0001:00006d50       ?SaveCurSel@CUChkListBox@@IAEXXZ 10007d50 f   krnln_static:krnl2.obj
 0001:00006db0       ?ProcessOnlyOne@CUChkListBox@@IAEXXZ 10007db0 f   krnln_static:krnl2.obj
 0001:00006e90       ?OnLButtonDown@CUChkListBox@@IAEXIVCPoint@@@Z 10007e90 f   krnln_static:krnl2.obj
 0001:00007020       ?OnKeyDown@CUChkListBox@@IAEXIII@Z 10008020 f   krnln_static:krnl2.obj
 0001:000071b0       ?OnLButtonDblClk@CUChkListBox@@IAEXIVCPoint@@@Z 100081b0 f   krnln_static:krnl2.obj
 0001:000074e0       ?OnCtlColor@CUDrawPanel@@IAEPAUHBRUSH__@@PAVCDC@@PAVCWnd@@I@Z 100084e0 f   krnln_static:krnl2.obj
 0001:000074e0       ?OnCtlColor@CWinFormUnit@@IAEPAUHBRUSH__@@PAVCDC@@PAVCWnd@@I@Z 100084e0 f   krnln_static:krnl2.obj
 0001:000074e0       ?OnCtlColor@CUTab@@IAEPAUHBRUSH__@@PAVCDC@@PAVCWnd@@I@Z 100084e0 f   krnln_static:krnl2.obj
 0001:000074e0       ?OnCtlColor@CUErrorControl@@IAEPAUHBRUSH__@@PAVCDC@@PAVCWnd@@I@Z 100084e0 f   krnln_static:krnl2.obj
 0001:000074e0       ?OnCtlColor@CUGroupBox@@IAEPAUHBRUSH__@@PAVCDC@@PAVCWnd@@I@Z 100084e0 f   krnln_static:krnl2.obj
 0001:000074e0       ?OnCtlColor@CUPicBox@@IAEPAUHBRUSH__@@PAVCDC@@PAVCWnd@@I@Z 100084e0 f   krnln_static:krnl2.obj
 0001:000074e0       ?OnCtlColor@CUShapeBox@@IAEPAUHBRUSH__@@PAVCDC@@PAVCWnd@@I@Z 100084e0 f   krnln_static:krnl2.obj
 0001:00007560       ?OnKillFocus@CUDrawPanel@@IAEXPAVCWnd@@@Z 10008560 f   krnln_static:krnl2.obj
 0001:00007560       ?OnKillFocus@CUCheckBox@@IAEXPAVCWnd@@@Z 10008560 f   krnln_static:krnl2.obj
 0001:00007560       ?OnKillFocus@CUChkListBox@@IAEXPAVCWnd@@@Z 10008560 f   krnln_static:krnl2.obj
 0001:000075b0       ?OnSetFocus@CUCheckBox@@IAEXPAVCWnd@@@Z 100085b0 f   krnln_static:krnl2.obj
 0001:000075b0       ?OnSetFocus@CUChkListBox@@IAEXPAVCWnd@@@Z 100085b0 f   krnln_static:krnl2.obj
 0001:000075b0       ?OnSetFocus@CUDrawPanel@@IAEXPAVCWnd@@@Z 100085b0 f   krnln_static:krnl2.obj
 0001:00007600       ?ClearPanel@CUDrawPanel@@QAEXPAVCDC@@AAVCRect@@@Z 10008600 f   krnln_static:krnl2.obj
 0001:000077f0       ?OnPaint@CUDrawPanel@@IAEXXZ 100087f0 f   krnln_static:krnl2.obj
 0001:00007ac0       ?OnSize@CUDrawPanel@@IAEXIHH@Z 10008ac0 f   krnln_static:krnl2.obj
 0001:00007af0       ?OnMouseActivate@CUDrawPanel@@IAEHPAVCWnd@@II@Z 10008af0 f   krnln_static:krnl2.obj
 0001:00007c00       ?ReCreateBitmap@CUDrawPanel@@QAEXH@Z 10008c00 f   krnln_static:krnl2.obj
 0001:00008400       ?fnCallNewPage@@YAHPAX@Z   10009400 f   krnln_static:krnl2.obj
 0001:00008500       ?fnPrintBeginDraw@@YAHPAXH@Z 10009500 f   krnln_static:krnl2.obj
 0001:00008580       ?fnPrintEndDraw@@YAXPAX@Z  10009580 f   krnln_static:krnl2.obj
 0001:00008590       ?OnGetPrintInfo@CUPrinter@@IAEJIJ@Z 10009590 f   krnln_static:krnl2.obj
 0001:000085e0       ?OnPaint@CUPrinter@@IAEXXZ 100095e0 f   krnln_static:krnl2.obj
 0001:00008600       ?SetPrinterDCMapMode@CUPrinter@@QAEXXZ 10009600 f   krnln_static:krnl2.obj
 0001:00008620       ?_BeginDraw@CUPrinter@@QAEXH@Z 10009620 f   krnln_static:krnl2.obj
 0001:00008850       ?_EndDraw@CUPrinter@@QAEXXZ 10009850 f   krnln_static:krnl2.obj
 0001:00008890       ?AbortPrint@CUPrinter@@QAEXXZ 10009890 f   krnln_static:krnl2.obj
 0001:00008910       ?OnDestroy@CUPrinter@@IAEXXZ 10009910 f   krnln_static:krnl2.obj
 0001:00008930       ?OnPaint@CUUDPSock@@IAEXXZ 10009930 f   krnln_static:krnl2.obj
 0001:00008950       ?OnPaint@CUClientSock@@IAEXXZ 10009950 f   krnln_static:krnl2.obj
 0001:00008970       ?OnPaint@CUServerSock@@IAEXXZ 10009970 f   krnln_static:krnl2.obj
 0001:00008990       ?OnPaint@CUSerialPort@@IAEXXZ 10009990 f   krnln_static:krnl2.obj
 0001:000089b0       ?OnPaint@CUDataSource@@IAEXXZ 100099b0 f   krnln_static:krnl2.obj
 0001:00008a60       ?OnDestroy@CUDataSource@@IAEXXZ 10009a60 f   krnln_static:krnl2.obj
 0001:00008b10       ?SetProviderUnit@CUDataSource@@QAEXXZ 10009b10 f   krnln_static:krnl2.obj
 0001:00008b30       ?OnInit@CUDataSource@@IAEJIJ@Z 10009b30 f   krnln_static:krnl2.obj
 0001:00008c20       ?OnGetColCount@CUDataSource@@IAEJIJ@Z 10009c20 f   krnln_static:krnl2.obj
 0001:00008c30       ?OnGetColName@CUDataSource@@IAEJIJ@Z 10009c30 f   krnln_static:krnl2.obj
 0001:00008cd0       ?OnInit@CUProvider@@IAEJIJ@Z 10009cd0 f   krnln_static:krnl2.obj
 0001:00008d00       ?OnPaint@CUProvider@@IAEXXZ 10009d00 f   krnln_static:krnl2.obj
 0001:00008d20       ?OnKillFocus@CUGrid@@IAEXPAVCWnd@@@Z 10009d20 f   krnln_static:krnl2.obj
 0001:00008d70       ?OnSetFocus@CUGrid@@IAEXPAVCWnd@@@Z 10009d70 f   krnln_static:krnl2.obj
 0001:00008dc0       ?OnInit@CUGrid@@IAEJIJ@Z   10009dc0 f   krnln_static:krnl2.obj
 0001:00008e20       ?OnDestroy@CUGrid@@IAEXXZ  10009e20 f   krnln_static:krnl2.obj
 0001:00008e40       ?SetDataSourceUnit@CUGrid@@QAEXXZ 10009e40 f   krnln_static:krnl2.obj
 0001:00008e70       ?OnPaint@CUGrid@@IAEXXZ    10009e70 f   krnln_static:krnl2.obj
 0001:00008fa0       ?OnInit@CUBaseProvider@@IAEJIJ@Z 10009fa0 f   krnln_static:krnl2.obj
 0001:000090c0       ?OnDestroy@CUBaseProvider@@IAEXXZ 1000a0c0 f   krnln_static:krnl2.obj
 0001:000090f0       ?OnPaint@CUDBProvider@@IAEXXZ 1000a0f0 f   krnln_static:krnl2.obj
 0001:00009110       ?OnPaint@CUODBCDB@@IAEXXZ  1000a110 f   krnln_static:krnl2.obj
 0001:00009130       ?OnPaint@CUODBCProvider@@IAEXXZ 1000a130 f   krnln_static:krnl2.obj
 0001:00009150       ?OnGetODBCTalbesName@CUODBCProvider@@IAEJIJ@Z 1000a150 f   krnln_static:krnl2.obj
 0001:000091a0       ?OnGetODBCConnectStr@CUODBCProvider@@IAEJIJ@Z 1000a1a0 f   krnln_static:krnl2.obj
 0001:00009230       ?OnDrawItem@CUGroupBox@@IAEXHPAUtagDRAWITEMSTRUCT@@@Z 1000a230 f   krnln_static:krnl2.obj
 0001:00009230       ?OnDrawItem@CUTab@@IAEXHPAUtagDRAWITEMSTRUCT@@@Z 1000a230 f   krnln_static:krnl2.obj
 0001:00009230       ?OnDrawItem@CUPicBox@@IAEXHPAUtagDRAWITEMSTRUCT@@@Z 1000a230 f   krnln_static:krnl2.obj
 0001:00009230       ?OnDrawItem@CWinFormUnit@@IAEXHPAUtagDRAWITEMSTRUCT@@@Z 1000a230 f   krnln_static:krnl2.obj
 0001:00009230       ?OnDrawItem@CUDrawPanel@@IAEXHPAUtagDRAWITEMSTRUCT@@@Z 1000a230 f   krnln_static:krnl2.obj
 0001:00009230       ?OnDrawItem@CUErrorControl@@IAEXHPAUtagDRAWITEMSTRUCT@@@Z 1000a230 f   krnln_static:krnl2.obj
 0001:00009230       ?OnDrawItem@CUShapeBox@@IAEXHPAUtagDRAWITEMSTRUCT@@@Z 1000a230 f   krnln_static:krnl2.obj
 0001:00009260       ?OnCompareItem@CUTab@@IAEHHPAUtagCOMPAREITEMSTRUCT@@@Z 1000a260 f   krnln_static:krnl2.obj
 0001:00009260       ?OnCompareItem@CUErrorControl@@IAEHHPAUtagCOMPAREITEMSTRUCT@@@Z 1000a260 f   krnln_static:krnl2.obj
 0001:00009260       ?OnCompareItem@CUPicBox@@IAEHHPAUtagCOMPAREITEMSTRUCT@@@Z 1000a260 f   krnln_static:krnl2.obj
 0001:00009260       ?OnCompareItem@CUShapeBox@@IAEHHPAUtagCOMPAREITEMSTRUCT@@@Z 1000a260 f   krnln_static:krnl2.obj
 0001:00009260       ?OnCompareItem@CUGroupBox@@IAEHHPAUtagCOMPAREITEMSTRUCT@@@Z 1000a260 f   krnln_static:krnl2.obj
 0001:00009260       ?OnCompareItem@CUDrawPanel@@IAEHHPAUtagCOMPAREITEMSTRUCT@@@Z 1000a260 f   krnln_static:krnl2.obj
 0001:00009260       ?OnCompareItem@CWinFormUnit@@IAEHHPAUtagCOMPAREITEMSTRUCT@@@Z 1000a260 f   krnln_static:krnl2.obj
 0001:00009290       ?OnDeleteItem@CUErrorControl@@IAEXHPAUtagDELETEITEMSTRUCT@@@Z 1000a290 f   krnln_static:krnl2.obj
 0001:00009290       ?OnDeleteItem@CUTab@@IAEXHPAUtagDELETEITEMSTRUCT@@@Z 1000a290 f   krnln_static:krnl2.obj
 0001:00009290       ?OnDeleteItem@CUDrawPanel@@IAEXHPAUtagDELETEITEMSTRUCT@@@Z 1000a290 f   krnln_static:krnl2.obj
 0001:00009290       ?OnDeleteItem@CWinFormUnit@@IAEXHPAUtagDELETEITEMSTRUCT@@@Z 1000a290 f   krnln_static:krnl2.obj
 0001:00009290       ?OnDeleteItem@CUGroupBox@@IAEXHPAUtagDELETEITEMSTRUCT@@@Z 1000a290 f   krnln_static:krnl2.obj
 0001:00009290       ?OnDeleteItem@CUPicBox@@IAEXHPAUtagDELETEITEMSTRUCT@@@Z 1000a290 f   krnln_static:krnl2.obj
 0001:00009290       ?OnDeleteItem@CUShapeBox@@IAEXHPAUtagDELETEITEMSTRUCT@@@Z 1000a290 f   krnln_static:krnl2.obj
 0001:000092c0       ?OnHScroll@CWinFormUnit@@IAEXIIPAVCScrollBar@@@Z 1000a2c0 f   krnln_static:krnl2.obj
 0001:000092c0       ?OnVScroll@CUDrawPanel@@IAEXIIPAVCScrollBar@@@Z 1000a2c0 f   krnln_static:krnl2.obj
 0001:000092c0       ?OnVScroll@CUPicBox@@IAEXIIPAVCScrollBar@@@Z 1000a2c0 f   krnln_static:krnl2.obj
 0001:000092c0       ?OnVScroll@CWinFormUnit@@IAEXIIPAVCScrollBar@@@Z 1000a2c0 f   krnln_static:krnl2.obj
 0001:000092c0       ?OnHScroll@CUGroupBox@@IAEXIIPAVCScrollBar@@@Z 1000a2c0 f   krnln_static:krnl2.obj
 0001:000092c0       ?OnVScroll@CUShapeBox@@IAEXIIPAVCScrollBar@@@Z 1000a2c0 f   krnln_static:krnl2.obj
 0001:000092c0       ?OnHScroll@CUPicBox@@IAEXIIPAVCScrollBar@@@Z 1000a2c0 f   krnln_static:krnl2.obj
 0001:000092c0       ?OnVScroll@CUGroupBox@@IAEXIIPAVCScrollBar@@@Z 1000a2c0 f   krnln_static:krnl2.obj
 0001:000092c0       ?OnVScroll@CUTab@@IAEXIIPAVCScrollBar@@@Z 1000a2c0 f   krnln_static:krnl2.obj
 0001:000092c0       ?OnHScroll@CUTab@@IAEXIIPAVCScrollBar@@@Z 1000a2c0 f   krnln_static:krnl2.obj
 0001:000092c0       ?OnHScroll@CUErrorControl@@IAEXIIPAVCScrollBar@@@Z 1000a2c0 f   krnln_static:krnl2.obj
 0001:000092c0       ?OnVScroll@CUErrorControl@@IAEXIIPAVCScrollBar@@@Z 1000a2c0 f   krnln_static:krnl2.obj
 0001:000092c0       ?OnHScroll@CUDrawPanel@@IAEXIIPAVCScrollBar@@@Z 1000a2c0 f   krnln_static:krnl2.obj
 0001:000092c0       ?OnHScroll@CUShapeBox@@IAEXIIPAVCScrollBar@@@Z 1000a2c0 f   krnln_static:krnl2.obj
 0001:000092e0       ?OnPaint@CUErrorControl@@IAEXXZ 1000a2e0 f   krnln_static:krnl2.obj
 0001:000093a0       ?GetIDSubType@@YAKK@Z      1000a3a0 f   krnln_static:krnl2.obj
 0001:000093b0       ?GetIDGroupType@@YAKK@Z    1000a3b0 f   krnln_static:krnl2.obj
 0001:000093c0       ?GetIDVaule@@YAKK@Z        1000a3c0 f   krnln_static:krnl2.obj
 0001:000093d0       ?IsValidateID@@YAHK@Z      1000a3d0 f   krnln_static:krnl2.obj
 0001:00009400       ?CopyFrom@CIDManger@@QAEXPAV1@@Z 1000a400 f   krnln_static:krnl2.obj
 0001:00009440       ?xchg@CIDManger@@QAEXPAV1@@Z 1000a440 f   krnln_static:krnl2.obj
 0001:00009470       ?GetIDData@CIDManger@@QAEPAEHPAH@Z 1000a470 f   krnln_static:krnl2.obj
 0001:000094c0       ?GetID@CIDManger@@QAEKH@Z  1000a4c0 f   krnln_static:krnl2.obj
 0001:000094f0       ?FindIDData@CIDManger@@QAEPAEKPAH0@Z 1000a4f0 f   krnln_static:krnl2.obj
 0001:00009590       ?_Replace@CIDManger@@QAEXHHHPAEH@Z 1000a590 f   krnln_static:krnl2.obj
 0001:00009620       ?AddID@CIDManger@@MAEKPAEHK@Z 1000a620 f   krnln_static:krnl2.obj
 0001:000096b0       ?AddSpecID@CIDManger@@QAEXKPAEH@Z 1000a6b0 f   krnln_static:krnl2.obj
 0001:00009720       ?InsertSpecID@CIDManger@@QAEXHKPAEH@Z 1000a720 f   krnln_static:krnl2.obj
 0001:00009810       ?InsertID@CIDManger@@MAEKHPAEHK@Z 1000a810 f   krnln_static:krnl2.obj
 0001:00009850       ?Serialize@CIDManger@@UAEXAAVCArchive@@@Z 1000a850 f   krnln_static:krnl2.obj
 0001:000098e0       ?FindIDByData@CIDDWordManger@@QAEKK@Z 1000a8e0 f   krnln_static:krnl2.obj
 0001:00009930       ?GetIDData@CIDDWordManger@@QAEHHPAK@Z 1000a930 f   krnln_static:krnl2.obj
 0001:00009970       ?FindIDData@CIDDWordManger@@QAEHKPAKPAH@Z 1000a970 f   krnln_static:krnl2.obj
 0001:00009a10       ?InsertFrom@CIDDWordManger@@QAEXHPAV1@HH@Z 1000aa10 f   krnln_static:krnl2.obj
 0001:00009ad0       ?AppendFrom@CIDDWordManger@@QAEXPAV1@@Z 1000aad0 f   krnln_static:krnl2.obj
 0001:00009af0       ?Serialize@CIDDWordManger@@UAEXAAVCArchive@@@Z 1000aaf0 f   krnln_static:krnl2.obj
 0001:00009b20       ?IsMenuItemID@@YAHK@Z      1000ab20 f   krnln_static:krnl2.obj
 0001:00009b50       ?IsMenuItem@CWinUnitIDManger@@QAEHH@Z 1000ab50 f   krnln_static:krnl2.obj
 0001:00009b70       ?GetUnitData@CWinUnitIDManger@@QAEPAEPAEPAH@Z 1000ab70 f   krnln_static:krnl2.obj
 0001:00009bf0       ?ChkTabVisible@CWinUnitIDManger@@QAEXPAEHH@Z 1000abf0 f   krnln_static:krnl2.obj
 0001:00009f40       ?GetMenuCount@CWinUnitIDManger@@QAEHPAH@Z 1000af40 f   krnln_static:krnl2.obj
 0001:00009fa0       ??1CWinUnitIDManger@@UAE@XZ 1000afa0 f   krnln_static:krnl2.obj
 0001:0000a0e0       ??1CIDManger@@UAE@XZ       1000b0e0 f i krnln_static:krnl2.obj
 0001:0000a140       ?init@CIDManger@@UAEXXZ    1000b140 f i krnln_static:krnl2.obj
 0001:0000a150       ?GetNameStr@CIDManger@@UAEPADPAE@Z 1000b150 f i krnln_static:krnl2.obj
 0001:0000a160       ??_GCIDManger@@UAEPAXI@Z   1000b160 f i krnln_static:krnl2.obj
 0001:0000a160       ??_ECIDManger@@UAEPAXI@Z   1000b160 f i krnln_static:krnl2.obj
 0001:0000a180       ?AddID@CWinUnitIDManger@@UAEKPAEHK@Z 1000b180 f i krnln_static:krnl2.obj
 0001:0000a1a0       ?InsertID@CWinUnitIDManger@@UAEKHPAEHK@Z 1000b1a0 f i krnln_static:krnl2.obj
 0001:0000a1d0       ?GetNameStr@CWinUnitIDManger@@UAEPADPAE@Z 1000b1d0 f i krnln_static:krnl2.obj
 0001:0000a1e0       ??_ECWinUnitIDManger@@UAEPAXI@Z 1000b1e0 f i krnln_static:krnl2.obj
 0001:0000a1e0       ??_GCWinUnitIDManger@@UAEPAXI@Z 1000b1e0 f i krnln_static:krnl2.obj
 0001:0000a200       ?FindUnit@CWinForm@@QAEHPAUHWND__@@H@Z 1000b200 f   krnln_static:krnl2.obj
 0001:0000a2e0       ?Serialize@CWinForm@@QAEXAAVCArchive@@@Z 1000b2e0 f   krnln_static:krnl2.obj
 0001:0000a3c0       ?ClearAllRadio@CWinForm@@QAEXPAUHWND__@@@Z 1000b3c0 f   krnln_static:krnl2.obj
 0001:0000a450       ?init@CWinIDManger@@UAEXXZ 1000b450 f   krnln_static:krnl2.obj
 0001:0000a4a0       ??1CWinForm@@QAE@XZ        1000b4a0 f i krnln_static:krnl2.obj
 0001:0000a510       ?Serialize@CWinIDManger@@UAEXAAVCArchive@@@Z 1000b510 f   krnln_static:krnl2.obj
 0001:0000a600       ?GetWnd@CWinIDManger@@QAEPAVCWnd@@H@Z 1000b600 f   krnln_static:krnl2.obj
 0001:0000a660       ?CloneTextData@@YAPADPAD@Z 1000b660 f   krnln_static:krnl2.obj
 0001:0000a6b0       ?CloneBinData@@YAPAEPAEH@Z 1000b6b0 f   krnln_static:krnl2.obj
 0001:0000a700       ?GetMessageMap@CKrnlApp@@MBEPBUAFX_MSGMAP@@XZ 1000b700 f   krnln_static:krnl2.obj
 0001:0000a710       ?InitInstance@CKrnlApp@@UAEHXZ 1000b710 f   krnln_static:krnl2.obj
 0001:0000a760       ??0CKrnlApp@@QAE@XZ        1000b760 f   krnln_static:krnl2.obj
 0001:0000aa90       ??1CWinIDManger@@UAE@XZ    1000ba90 f i krnln_static:krnl2.obj
 0001:0000ab00       ??1CIDDWordManger@@UAE@XZ  1000bb00 f i krnln_static:krnl2.obj
 0001:0000ab60       ?init@CIDDWordManger@@UAEXXZ 1000bb60 f i krnln_static:krnl2.obj
 0001:0000ab70       ??_GCIDDWordManger@@UAEPAXI@Z 1000bb70 f i krnln_static:krnl2.obj
 0001:0000ab70       ??_ECIDDWordManger@@UAEPAXI@Z 1000bb70 f i krnln_static:krnl2.obj
 0001:0000ab90       ??_GCWinIDManger@@UAEPAXI@Z 1000bb90 f i krnln_static:krnl2.obj
 0001:0000ab90       ??_ECWinIDManger@@UAEPAXI@Z 1000bb90 f i krnln_static:krnl2.obj
 0001:0000abb0       ??1CDllFunc@@UAE@XZ        1000bbb0 f i krnln_static:krnl2.obj
 0001:0000abd0       ??_ECDllFunc@@UAEPAXI@Z    1000bbd0 f i krnln_static:krnl2.obj
 0001:0000abd0       ??_GCDllFunc@@UAEPAXI@Z    1000bbd0 f i krnln_static:krnl2.obj
 0001:0000ac00       ??_GCSysHideWnd@@UAEPAXI@Z 1000bc00 f i krnln_static:krnl2.obj
 0001:0000ac00       ??_ECSysHideWnd@@UAEPAXI@Z 1000bc00 f i krnln_static:krnl2.obj
 0001:0000ac20       ??1CSysHideWnd@@UAE@XZ     1000bc20 f i krnln_static:krnl2.obj
 0001:0000ac30       ??_GCKrnlApp@@UAEPAXI@Z    1000bc30 f i krnln_static:krnl2.obj
 0001:0000ac30       ??_ECKrnlApp@@UAEPAXI@Z    1000bc30 f i krnln_static:krnl2.obj
 0001:0000ac50       ??1CKrnlApp@@UAE@XZ        1000bc50 f   krnln_static:krnl2.obj
 0001:0000afa0       ?ExitInstance@CKrnlApp@@UAEHXZ 1000bfa0 f   krnln_static:krnl2.obj
 0001:0000afc0       ?IsEWin@CKrnlApp@@IAEHPAUHWND__@@@Z 1000bfc0 f   krnln_static:krnl2.obj
 0001:0000b070       ?Notify@CKrnlApp@@QAEHHKK@Z 1000c070 f   krnln_static:krnl2.obj
 0001:0000be10       ?ShowSpecWindow@CKrnlApp@@QAEXKH@Z 1000ce10 f   krnln_static:krnl2.obj
 0001:0000bfd0       ?InitManyMusicPlay@CKrnlApp@@QAEXXZ 1000cfd0 f   krnln_static:krnl2.obj
 0001:0000c010       ?CloseAllFile@CKrnlApp@@QAEXXZ 1000d010 f   krnln_static:krnl2.obj
 0001:0000c110       ?PlayMusic@CKrnlApp@@QAEHPAEHH@Z 1000d110 f   krnln_static:krnl2.obj
 0001:0000c1c0       ?ShowFormWindow@CKrnlApp@@QAEXKPAVCWinForm@@H@Z 1000d1c0 f   krnln_static:krnl2.obj
 0001:0000c2d0       _CreateWin@20              1000d2d0 f   krnln_static:krnl2.obj
 0001:0000cf00       ?OnIdle@CKrnlApp@@UAEHJ@Z  1000df00 f   krnln_static:krnl2.obj
 0001:0000d050       ?IsHaveVaildateWinForm@CKrnlApp@@QAEHXZ 1000e050 f   krnln_static:krnl2.obj
 0001:0000d0d0       ?LoadBeginWin@CKrnlApp@@QAEXK@Z 1000e0d0 f   krnln_static:krnl2.obj
 0001:0000d120       ?RegisterIdleCallBack@CKrnlApp@@QAEXPAUHWND__@@P6AXPAX@Z1@Z 1000e120 f   krnln_static:krnl2.obj
 0001:0000d1a0       ?UnregisterIdleCallBack@CKrnlApp@@QAEXPAUHWND__@@@Z 1000e1a0 f   krnln_static:krnl2.obj
 0001:0000d210       ?UnregisterAllIdleCallBack@CKrnlApp@@QAEXXZ 1000e210 f   krnln_static:krnl2.obj
 0001:0000d240       ?MessageLoop@CKrnlApp@@QAEXH@Z 1000e240 f   krnln_static:krnl2.obj
 0001:0000d380       ?DoEvents@CKrnlApp@@QAEXXZ 1000e380 f   krnln_static:krnl2.obj
 0001:0000d3d0       ?AllocID@CKrnlApp@@QAEKXZ  1000e3d0 f   krnln_static:krnl2.obj
 0001:0000d3e0       ?ReCreateUnit@CKrnlApp@@QAEXKPAVCWinForm@@H@Z 1000e3e0 f   krnln_static:krnl2.obj
 0001:0000d760       ?SetUnitLayout@CKrnlApp@@QAEXPAVCWinForm@@H@Z 1000e760 f   krnln_static:krnl2.obj
 0001:0000d810       ?FindAboveLayoutUnitIndex@CKrnlApp@@QAEHPAVCWinForm@@H@Z 1000e810 f   krnln_static:krnl2.obj
 0001:0000d8a0       ?FreeNextCallDllCmdInf@CKrnlApp@@QAEXXZ 1000e8a0 f   krnln_static:krnl2.obj
 0001:0000d8c0       ?GetDllCmdAdr@CKrnlApp@@QAEP6GHXZH@Z 1000e8c0 f   krnln_static:krnl2.obj
 0001:0000dc60       ?ReportAllocMemError@@YAXH@Z 1000ec60 f   krnln_static:krnl2.obj
 0001:0000dc90       ?ReportError@CKrnlApp@@QAEXPBDH@Z 1000ec90 f   krnln_static:krnl2.obj
 0001:0000ddd0       ?GetLibDataTypeInfo@CKrnlApp@@QAEPAULIB_DATA_TYPE_INFO@@KPAPAULIB_INFO@@@Z 1000edd0 f   krnln_static:krnl2.obj
 0001:0000de50       ?krnl_MAFindClose@@YAXPAX@Z 1000ee50 f   krnln_static:krnl2.obj
 0001:0000de60       ?krnl_MADir@@YAPADPADHHPAPAX@Z 1000ee60 f   krnln_static:krnl2.obj
 0001:0000df70       ?krnl_MACopyConstAry@@YAXHPAPAX@Z 1000ef70 f   krnln_static:krnl2.obj
 0001:0000dfd0       ?krnl_MAReadPackedObjectProperty@@YAXKPAXHH@Z 1000efd0 f   krnln_static:krnl2.obj
 0001:0000dff0       ?krnl_MAWritePackedObjectProperty@@YAXKPAXHHKK@Z 1000eff0 f   krnln_static:krnl2.obj
 0001:0000e020       ?mystrtok@@YAPADPADDPAPAD@Z 1000f020 f   krnln_static:krnl2.obj
 0001:0000e060       ?RegOcx@CKrnlApp@@QAEHPBD0H@Z 1000f060 f   krnln_static:krnl2.obj
 0001:0000e430       ?GetDefaultIcon@CKrnlApp@@QAEXPAPAUHICON__@@0@Z 1000f430 f   krnln_static:krnl2.obj
 0001:0000e480       ?free@CKrnlApp@@QAEXH@Z    1000f480 f   krnln_static:krnl2.obj
 0001:0000e810       ?PreTranslateMessage@CKrnlApp@@UAEHPAUtagMSG@@@Z 1000f810 f   krnln_static:krnl2.obj
 0001:0000e8b0       ?NotifySys@@YGHHKK@Z       1000f8b0 f   krnln_static:krnl2.obj
 0001:0000e8e0       ?ProcessNotifySys@@YGHHKK@Z 1000f8e0 f   krnln_static:krnl2.obj
 0001:0000e900       _krnl_ProcessNotifyLib@12  1000f900 f   krnln_static:krnl2.obj
 0001:0000ea10       ?ReadProperty@CKrnlApp@@QAE_JKKHH@Z 1000fa10 f   krnln_static:krnl2.obj
 0001:0000ee90       ?ReadPackedObjectProperty@CKrnlApp@@QAE_JKPAXHH@Z 1000fe90 f   krnln_static:krnl2.obj
 0001:0000ef00       ?WritePackedObjectProperty@CKrnlApp@@QAEXKPAXHHKK@Z 1000ff00 f   krnln_static:krnl2.obj
 0001:0000f330       ?ProcessReadPropertyValue@CKrnlApp@@QAEXPAUUNIT_PROPERTY@@HAATUNIT_PROPERTY_VALUE@@PAK@Z 10010330 f   krnln_static:krnl2.obj
 0001:0000f690       ?BeginProcessEvent@CKrnlApp@@IAEKKKHH@Z 10010690 f   krnln_static:krnl2.obj
 0001:0000f850       ?RefrushMenu@CKrnlApp@@IAEXPAVCWinForm@@@Z 10010850 f   krnln_static:krnl2.obj
 0001:0000f950       ?WriteProperty@CKrnlApp@@QAEXKKHHKK@Z 10010950 f   krnln_static:krnl2.obj
 0001:00010680       ?ConvertNumToInt@CKrnlApp@@IAEHPAUMDATA_INF@@@Z 10011680 f   krnln_static:krnl2.obj
 0001:000106f0       ?StopPlayMP3@CKrnlApp@@QAEXXZ 100116f0 f   krnln_static:krnl2.obj
 0001:00010730       ?StopPlay@CKrnlApp@@QAEXH@Z 10011730 f   krnln_static:krnl2.obj
 0001:00010750       ?IsConstPtr@CKrnlApp@@QAEPAEPAX@Z 10011750 f   krnln_static:krnl2.obj
 0001:000107a0       ?GetMessageMap@CSysHideWnd@@MBEPBUAFX_MSGMAP@@XZ 100117a0 f   krnln_static:krnl2.obj
 0001:000107b0       ?OnAppQuit@CSysHideWnd@@QAEJIJ@Z 100117b0 f   krnln_static:krnl2.obj
 0001:000107d0       ??1?$CMArray@PAVCProcessor@@@@QAE@XZ 100117d0 f i krnln_static:krnl2.obj
 0001:000107d0       ??1?$CMArray@UPAGE_PRINT_INFO@@@@QAE@XZ 100117d0 f i krnln_static:krnl2.obj
 0001:000107d0       ??1?$CMArray@H@@QAE@XZ     100117d0 f i krnln_static:krnl2.obj
 0001:000107e0       ?SetSize@?$CMArray@H@@QAEXHH@Z 100117e0 f i krnln_static:krnl2.obj
 0001:000107e0       ?SetSize@?$CMArray@PAVCProcessor@@@@QAEXHH@Z 100117e0 f i krnln_static:krnl2.obj
 0001:00010930       ?StopMid@CKrnlApp@@QAEXXZ  10011930 f   krnln_static:Krnl.obj
 0001:000109e0       ?krnl_InitUserProgram@@YAXXZ 100119e0 f   krnln_static:Krnl.obj
 0001:000109f0       _krnl_MOtherHelp           100119f0 f   krnln_static:Krnl.obj
 0001:00010a00       ?_GetDllCmdAdr@@YAP6GHXZH@Z 10011a00 f   krnln_static:Krnl.obj
 0001:00010a20       _krnl_MCallDllCmd          10011a20 f   krnln_static:Krnl.obj
 0001:00010a30       _krnl_MCallLibCmd          10011a30 f   krnln_static:Krnl.obj
 0001:00010a70       _krnl_MCallKrnlLibCmd      10011a70 f   krnln_static:Krnl.obj
 0001:00010ab0       ?ProcessEvent@CKrnlApp@@IAEHPAUEVENT_NOTIFY@@@Z 10011ab0 f   krnln_static:Krnl.obj
 0001:00010b60       ?ProcessEvent@CKrnlApp@@IAEHPAUEVENT_NOTIFY2@@@Z 10011b60 f   krnln_static:Krnl.obj
 0001:00010da0       _krnl_MReportError         10011da0 f   krnln_static:Krnl.obj
 0001:00010dc0       _krnl_MReadProperty        10011dc0 f   krnln_static:Krnl.obj
 0001:00010de0       _krnl_MWriteProperty       10011de0 f   krnln_static:Krnl.obj
 0001:00010e10       _krnl_MMessageLoop         10011e10 f   krnln_static:Krnl.obj
 0001:00010e40       _krnl_MLoadBeginWin        10011e40 f   krnln_static:Krnl.obj
 0001:00010e60       _krnl_MMallocNoCheck       10011e60 f   krnln_static:Krnl.obj
 0001:00010e80       _krnl_MMalloc              10011e80 f   krnln_static:Krnl.obj
 0001:00010ec0       ?krnl_MANotifyFreeFunc@@YAXP6AXXZ@Z 10011ec0 f   krnln_static:Krnl.obj
 0001:00010ed0       _krnl_MExitProcess         10011ed0 f   krnln_static:Krnl.obj
 0001:00010ef0       _krnl_MRealloc             10011ef0 f   krnln_static:Krnl.obj
 0001:00010fb0       _krnl_MFree                10011fb0 f   krnln_static:Krnl.obj
 0001:00010fe0       ?IsFileExist@@YAHPBD@Z     10011fe0 f   krnln_static:FUNC.OBJ
 0001:00011020       ?witoa@@YAXHPAD@Z          10012020 f   krnln_static:FUNC.OBJ
 0001:00011040       ?tcsrchr@@YAHPADD@Z        10012040 f   krnln_static:FUNC.OBJ
 0001:00011090       ?ChangeFileExt@@YAXAAVCString@@PBD@Z 10012090 f   krnln_static:FUNC.OBJ
 0001:00011130       ?GetDataTypeType@@YAHK@Z   10012130 f   krnln_static:FUNC.OBJ
 0001:00011160       ?GetKey@@YAGPAUtagMSG@@@Z  10012160 f   krnln_static:FUNC.OBJ
 0001:00011190       ?ProcessKeyMsg@@YAGPAUtagMSG@@@Z 10012190 f   krnln_static:FUNC.OBJ
 0001:00011230       ?ChkDateTime@@YAXAAH00000@Z 10012230 f   krnln_static:FUNC.OBJ
 0001:00011350       ?IsWavData@@YAHPAEH@Z      10012350 f   krnln_static:FUNC.OBJ
 0001:000113d0       ?FloatToDouble@@YANM@Z     100123d0 f   krnln_static:FUNC.OBJ
 0001:000114e0       ?ftoa@@YAXMPAD@Z           100124e0 f   krnln_static:FUNC.OBJ
 0001:00011570       ?dtoa@@YAXNPAD@Z           10012570 f   krnln_static:FUNC.OBJ
 0001:00011600       ?SetOleDateTime@@YAXAAVCOleDateTime@@N@Z 10012600 f   krnln_static:FUNC.OBJ
 0001:00011690       ?GetDateTimeStr@@YAXNPAD@Z 10012690 f   krnln_static:FUNC.OBJ
 0001:000117b0       ?CCStrToEg@@YAXPADAAVCFreqMem@@H@Z 100127b0 f   krnln_static:FUNC.OBJ
 0001:00011850       ?StrToDateTime@@YAHPADPAN@Z 10012850 f   krnln_static:FUNC.OBJ
 0001:00011c00       ?GetFontPoint@@YAHPAUtagLOGFONTA@@@Z 10012c00 f   krnln_static:FUNC.OBJ
 0001:00011c50       ?AddInt@@YAXPAHHHH@Z       10012c50 f   krnln_static:FUNC.OBJ
 0001:00011c90       ?CCToEg@@YADG@Z            10012c90 f   krnln_static:FUNC.OBJ
 0001:00011cd0       ?AddInt@@YAXPAHHH@Z        10012cd0 f   krnln_static:FUNC.OBJ
 0001:00011d10       ?FindSmallOrEqvInt@@YAHPAHHH@Z 10012d10 f   krnln_static:FUNC.OBJ
 0001:00011d50       ?AddComboStrings@@YAXPAVCComboBox@@PAD@Z 10012d50 f   krnln_static:FUNC.OBJ
 0001:00011da0       ?FormatText@@YA?AVCString@@PADZZ 10012da0 f   krnln_static:FUNC.OBJ
 0001:00011e20       ?GetWinCursorType@@YAHH@Z  10012e20 f   krnln_static:FUNC.OBJ
 0001:00011e40       ?CenterPaintBmpRes@@YAXPAVCWnd@@I@Z 10012e40 f   krnln_static:FUNC.OBJ
 0001:000120d0       ??0CGdiObject@@QAE@XZ      100130d0 f i krnln_static:FUNC.OBJ
 0001:000120e0       ?ShowErrorMsg@@YAXPBD@Z    100130e0 f   krnln_static:FUNC.OBJ
 0001:00012100       ?GetWinCursorTypeIndex@@YAHH@Z 10013100 f   krnln_static:FUNC.OBJ
 0001:00012130       ?CreateMyCursor@@YAPAUHICON__@@PAEH@Z 10013130 f   krnln_static:FUNC.OBJ
 0001:000121f0       ?SetUnit@@YAXPAVCDC@@H@Z   100131f0 f   krnln_static:FUNC.OBJ
 0001:00012300       ?LoadTwoIcon@@YAXPAUHINSTANCE__@@PBDPAPAUHICON__@@2@Z 10013300 f   krnln_static:FUNC.OBJ
 0001:00012340       ?IsShareError@@YAHPAVCFileException@@@Z 10013340 f   krnln_static:FUNC.OBJ
 0001:00012360       ?wait@@YAXXZ               10013360 f   krnln_static:FUNC.OBJ
 0001:00012380       ?GetInstancePath@@YAXPAUHINSTANCE__@@AAVCString@@@Z 10013380 f   krnln_static:FUNC.OBJ
 0001:000123e0       ?SetFontPoint@@YAXPAUtagLOGFONTA@@H@Z 100133e0 f   krnln_static:FUNC.OBJ
 0001:00012430       ?MGetStretchMode@@YAHXZ    10013430 f   krnln_static:FUNC.OBJ
 0001:00012470       ?ConvertNanFangPY@@YAEEEH@Z 10013470 f   krnln_static:PY.OBJ
 0001:00012520       ??0CCryptFile@@QAE@PBDH@Z  10013520 f   krnln_static:CryptFile.obj
 0001:00012580       ?SetPassword@CCryptFile@@QAEXPBDH@Z 10013580 f   krnln_static:CryptFile.obj
 0001:00012640       ?Read@CCryptFile@@UAEIPAXI@Z 10013640 f   krnln_static:CryptFile.obj
 0001:000126a0       ?Write@CCryptFile@@UAEXPBXI@Z 100136a0 f   krnln_static:CryptFile.obj
 0001:00012780       ?prepare_key@@YAXPAEHPAUrc4_key@@@Z 10013780 f   krnln_static:CryptFile.obj
 0001:00012840       ?skip@@YAXHPAUrc4_key@@@Z  10013840 f   krnln_static:CryptFile.obj
 0001:000128b0       ?rc4@@YAXPAEHPAUrc4_key@@@Z 100138b0 f   krnln_static:CryptFile.obj
 0001:00012930       ?CallRC4@CCryptFile@@IAEXHPAEHH@Z 10013930 f   krnln_static:CryptFile.obj
 0001:00012b30       ?NewGetMD5@CCryptFile@@SAXPAEIPAD@Z 10013b30 f   krnln_static:CryptFile.obj
 0001:00012b80       ?OnChar@CInputEdit@@IAEXIII@Z 10013b80 f   krnln_static:DLG.OBJ
 0001:00012bd0       ?PreClose@CPrintStatusDlg@@QAEXXZ 10013bd0 f   krnln_static:DLG.OBJ
 0001:00012c30       ?OnClose@CPrintStatusDlg@@IAEXXZ 10013c30 f   krnln_static:DLG.OBJ
 0001:00012c50       ?OnLButtonDown@CInputPanel@@IAEXIVCPoint@@@Z 10013c50 f   krnln_static:DLG.OBJ
 0001:00012ca0       ?OnMouseMove@CInputPanel@@IAEXIVCPoint@@@Z 10013ca0 f   krnln_static:DLG.OBJ
 0001:00012de0       ?OnLButtonUp@CInputPanel@@IAEXIVCPoint@@@Z 10013de0 f   krnln_static:DLG.OBJ
 0001:00012e10       ?OnDestroy@CBrowDlg@@IAEXXZ 10013e10 f   krnln_static:DLG.OBJ
 0001:00012eb0       ?SetFocusMark@CBrowDlg@@QAEXPAVCWnd@@H@Z 10013eb0 f   krnln_static:DLG.OBJ
 0001:00012ef0       ?ShowControl@CBrowDlg@@QAEXPAVCWnd@@@Z 10013ef0 f   krnln_static:DLG.OBJ
 0001:000130e0       ?SetCaption@CBrowDlg@@IAEXXZ 100140e0 f   krnln_static:DLG.OBJ
 0001:00013240       ?WriteCurRecord@CBrowDlg@@IAEHXZ 10014240 f   krnln_static:DLG.OBJ
 0001:00013ad0       ?ProcessButton@CBrowDlg@@QAEXH@Z 10014ad0 f   krnln_static:DLG.OBJ
 0001:00013d00       ??1CModiMemoBin@@UAE@XZ    10014d00 f i krnln_static:DLG.OBJ
 0001:00013d90       ??_GCStatic@@UAEPAXI@Z     10014d90 f i krnln_static:DLG.OBJ
 0001:00013d90       ??_ECStatic@@UAEPAXI@Z     10014d90 f i krnln_static:DLG.OBJ
 0001:00013db0       ?OnSetfocus@CFieldEdit@@IAEXXZ 10014db0 f   krnln_static:DLG.OBJ
 0001:00013dd0       ?OnKillfocus@CFieldEdit@@IAEXXZ 10014dd0 f   krnln_static:DLG.OBJ
 0001:000140f0       ?OnChar@CFieldEdit@@IAEXIII@Z 100150f0 f   krnln_static:DLG.OBJ
 0001:00014140       ?OnSetFocus@CFieldBtn@@IAEXPAVCWnd@@@Z 10015140 f   krnln_static:DLG.OBJ
 0001:00014160       ?OnKillFocus@CFieldBtn@@IAEXPAVCWnd@@@Z 10015160 f   krnln_static:DLG.OBJ
 0001:00014180       ?OnClicked@CFieldBtn@@IAEXXZ 10015180 f   krnln_static:DLG.OBJ
 0001:000141e0       ?OnPaint@CFieldLabel@@IAEXXZ 100151e0 f   krnln_static:DLG.OBJ
 0001:00014290       ??0CModiMemoBin@@QAE@PAVCWnd@@@Z 10015290 f   krnln_static:DLG.OBJ
 0001:00014350       ??_GCModiMemoBin@@UAEPAXI@Z 10015350 f i krnln_static:DLG.OBJ
 0001:00014350       ??_ECModiMemoBin@@UAEPAXI@Z 10015350 f i krnln_static:DLG.OBJ
 0001:00014370       ?DoDataExchange@CModiMemoBin@@MAEXPAVCDataExchange@@@Z 10015370 f   krnln_static:DLG.OBJ
 0001:000143b0       ?GetMessageMap@CModiMemoBin@@MBEPBUAFX_MSGMAP@@XZ 100153b0 f   krnln_static:DLG.OBJ
 0001:000143c0       ?ShowData@CModiMemoBin@@IAEXXZ 100153c0 f   krnln_static:DLG.OBJ
 0001:00014640       ?OnInitDialog@CModiMemoBin@@MAEHXZ 10015640 f   krnln_static:DLG.OBJ
 0001:000149f0       ?InOrOut@CModiMemoBin@@IAEXH@Z 100159f0 f   krnln_static:DLG.OBJ
 0001:00014c40       ?OnIn@CModiMemoBin@@IAEXXZ 10015c40 f   krnln_static:DLG.OBJ
 0001:00014c50       ?OnOut@CModiMemoBin@@IAEXXZ 10015c50 f   krnln_static:DLG.OBJ
 0001:00014c60       ?OnPlaySound@CModiMemoBin@@IAEXXZ 10015c60 f   krnln_static:DLG.OBJ
 0001:00014d10       ?OnStopPlayCurSound@CModiMemoBin@@IAEXXZ 10015d10 f   krnln_static:DLG.OBJ
 0001:00014d80       ?OnClear@CModiMemoBin@@IAEXXZ 10015d80 f   krnln_static:DLG.OBJ
 0001:00014de0       ?SaveCurMemoData@CModiMemoBin@@IAEXXZ 10015de0 f   krnln_static:DLG.OBJ
 0001:00014e70       ?OnOK@CModiMemoBin@@MAEXXZ 10015e70 f   krnln_static:DLG.OBJ
 0001:00014e90       ?init@CPIWinForm@@UAEXXZ   10015e90 f   krnln_static:Winform.obj
 0001:00014f20       ?Serialize@CPIWinForm@@UAEHAAVCArchive@@@Z 10015f20 f   krnln_static:Winform.obj
 0001:00015440       ?StopPlay@@YAXPAVCWinFormUnit@@@Z 10016440 f   krnln_static:Winform.obj
 0001:000154b0       ??1CPIWinForm@@QAE@XZ      100164b0 f i krnln_static:Winform.obj
 0001:00015550       ?CreateObject@CWinFormUnit@@SGPAVCObject@@XZ 10016550 f   krnln_static:Winform.obj
 0001:000155b0       ?GetRuntimeClass@CWinFormUnit@@UBEPAUCRuntimeClass@@XZ 100165b0 f   krnln_static:Winform.obj
 0001:000155c0       ??0CWinFormUnit@@QAE@XZ    100165c0 f   krnln_static:Winform.obj
 0001:00015700       ??_ECWinFormUnit@@UAEPAXI@Z 10016700 f i krnln_static:Winform.obj
 0001:00015700       ??_GCWinFormUnit@@UAEPAXI@Z 10016700 f i krnln_static:Winform.obj
 0001:00015720       ??1CWinFormUnit@@UAE@XZ    10016720 f   krnln_static:Winform.obj
 0001:00015890       ?GetMessageMap@CWinFormUnit@@MBEPBUAFX_MSGMAP@@XZ 10016890 f   krnln_static:Winform.obj
 0001:000158a0       ?OnNotify@CWinFormUnit@@MAEHIJPAJ@Z 100168a0 f   krnln_static:Winform.obj
 0001:000158c0       ?OnNcActivate@CWinFormUnit@@IAEHH@Z 100168c0 f   krnln_static:Winform.obj
 0001:00015900       ?OnShowWindow@CWinFormUnit@@IAEXHI@Z 10016900 f   krnln_static:Winform.obj
 0001:00015960       ?OnDestroyThis@CWinFormUnit@@QAEXIJ@Z 10016960 f   krnln_static:Winform.obj
 0001:00015990       ?OnIconOper@CWinFormUnit@@IAEXIJ@Z 10016990 f   krnln_static:Winform.obj
 0001:00015a10       ?SetTrayIcon@CWinFormUnit@@QAEXPAUHICON__@@PAD@Z 10016a10 f   krnln_static:Winform.obj
 0001:00015ae0       ?SetWindowShape@CWinFormUnit@@QAEXXZ 10016ae0 f   krnln_static:Winform.obj
 0001:00015dc0       ?PreCreateWindow@CWinFormUnit@@MAEHAAUtagCREATESTRUCTA@@@Z 10016dc0 f   krnln_static:Winform.obj
 0001:00015dd0       ?PostNcDestroy@CWinFormUnit@@MAEXXZ 10016dd0 f   krnln_static:Winform.obj
 0001:00015ec0       ?OnPaint@CWinFormUnit@@IAEXXZ 10016ec0 f   krnln_static:Winform.obj
 0001:000163b0       ?OnCommand@CWinFormUnit@@MAEHIJ@Z 100173b0 f   krnln_static:Winform.obj
 0001:00016490       ?OnCmdMsg@CWinFormUnit@@MAEHIHPAXPAUAFX_CMDHANDLERINFO@@@Z 10017490 f   krnln_static:Winform.obj
 0001:000164b0       ?OnInitMenuPopup@CWinFormUnit@@IAEXPAVCMenu@@IH@Z 100174b0 f   krnln_static:Winform.obj
 0001:000164c0       ?OnQueryEndSession@CWinFormUnit@@IAEHXZ 100174c0 f   krnln_static:Winform.obj
 0001:00016570       ?ExitDlgMode@CWinFormUnit@@QAEXXZ 10017570 f   krnln_static:Winform.obj
 0001:000165e0       ?OnClose@CWinFormUnit@@IAEXXZ 100175e0 f   krnln_static:Winform.obj
 0001:00016680       ?OnDestroy@CWinFormUnit@@IAEXXZ 10017680 f   krnln_static:Winform.obj
 0001:000167b0       ?AskCurFocusUnitIsNeedThisKey@CWinFormUnit@@IAEHG@Z 100177b0 f   krnln_static:Winform.obj
 0001:00016890       ?GetOCXWndObject@CWinFormUnit@@IAEPAUIUnknown@@PAVCWnd@@@Z 10017890 f   krnln_static:Winform.obj
 0001:00016980       ?AskCurFocusOleControlCharMsg@CWinFormUnit@@IAEHPAUtagMSG@@@Z 10017980 f   krnln_static:Winform.obj
 0001:00016ab0       ?SkipRadio@CWinFormUnit@@IAEHPAUHWND__@@H@Z 10017ab0 f   krnln_static:Winform.obj
 0001:00016b60       ?SkipFocus@CWinFormUnit@@IAEXPAUHWND__@@HH0@Z 10017b60 f   krnln_static:Winform.obj
 0001:00017090       ?OnSetFocus@CWinFormUnit@@IAEXPAVCWnd@@@Z 10018090 f   krnln_static:Winform.obj
 0001:000172b0       ?OnKillFocus@CWinFormUnit@@IAEXPAVCWnd@@@Z 100182b0 f   krnln_static:Winform.obj
 0001:00017300       ?OnActivate@CWinFormUnit@@IAEXIPAVCWnd@@H@Z 10018300 f   krnln_static:Winform.obj
 0001:00017570       ?NotifyDefaultButton@CWinFormUnit@@IAEHPAVCWinForm@@H@Z 10018570 f   krnln_static:Winform.obj
 0001:00017660       ?PreTranslateMessage@CWinFormUnit@@UAEHPAUtagMSG@@@Z 10018660 f   krnln_static:Winform.obj
 0001:00018360       ?OnSetCursor@CWinFormUnit@@IAEHPAVCWnd@@II@Z 10019360 f   krnln_static:Winform.obj
 0001:000183a0       ?SetAllUnitCursor@CWinFormUnit@@IAEHPAUHWND__@@@Z 100193a0 f   krnln_static:Winform.obj
 0001:000184a0       ?OnMove@CWinFormUnit@@IAEXHH@Z 100194a0 f   krnln_static:Winform.obj
 0001:000184f0       ?OnRelayoutBar@CWinFormUnit@@IAEJIJ@Z 100194f0 f   krnln_static:Winform.obj
 0001:00018510       ?RelayoutBarUnit@CWinFormUnit@@QAEXXZ 10019510 f   krnln_static:Winform.obj
 0001:00018760       ?OnSize@CWinFormUnit@@IAEXIHH@Z 10019760 f   krnln_static:Winform.obj
 0001:000187d0       ?IdleProcess@CWinFormUnit@@QAEHH@Z 100197d0 f   krnln_static:Winform.obj
 0001:00018850       ?ShowWindowMax@CWinFormUnit@@QAEXXZ 10019850 f   krnln_static:Winform.obj
 0001:00018900       ?NewCreateSpecMenu@@YAPAUHMENU__@@PAEHKHPAPAUHACCEL__@@H@Z 10019900 f   krnln_static:MENU.OBJ
 0001:00018aa0       ?GetQuickKeyName@@YAPADH@Z 10019aa0 f   krnln_static:MENU.OBJ
 0001:00018ac0       ?InsertMenuA@@YAPAUHMENU__@@PAU1@AAPAEAAHHPAVCMyDWordArray@@H@Z 10019ac0 f   krnln_static:MENU.OBJ
 0001:00018f30       ?DDBToDIB@@YAPAXAAVCBitmap@@KPAVCPalette@@@Z 10019f30 f   krnln_static:Savebmp.obj
 0001:00019170       ?WriteDIB@@YAHAAVCFreqMem@@PAX@Z 1001a170 f   krnln_static:Savebmp.obj
 0001:00019270       ?WriteBitmap@@YAHAAVCBitmap@@AAVCFreqMem@@HH@Z 1001a270 f   krnln_static:Savebmp.obj
 0001:000195d0       ??_GCPalette@@UAEPAXI@Z    1001a5d0 f i krnln_static:Savebmp.obj
 0001:000195d0       ??_ECPalette@@UAEPAXI@Z    1001a5d0 f i krnln_static:Savebmp.obj
 0001:000195f0       ??1CPalette@@UAE@XZ        1001a5f0 f i krnln_static:Savebmp.obj
 0001:00019630       ?GetBitmapData@@YAPAXPAUHBITMAP__@@@Z 1001a630 f   krnln_static:Savebmp.obj
 0001:00019780       ??0CJBPic@@QAE@XZ          1001a780 f   krnln_static:JBPIC.OBJ
 0001:00019820       ?init@CJBPic@@QAEXXZ       1001a820 f   krnln_static:JBPIC.OBJ
 0001:00019840       ?Serialize@CJBPic@@UAEXAAVCArchive@@@Z 1001a840 f   krnln_static:JBPIC.OBJ
 0001:00019c20       ?Create@CJBPic@@QAEHHUtagSIZE@@PAKHPAUtagRECT@@@Z 1001ac20 f   krnln_static:JBPIC.OBJ
 0001:0001a2c0       ?GetColor@CJBPic@@IAEXHHPAE00@Z 1001b2c0 f   krnln_static:JBPIC.OBJ
 0001:0001a440       ?CreateBitmap@CJBPic@@QAEPAUHBITMAP__@@PAVCDC@@@Z 1001b440 f   krnln_static:JBPIC.OBJ
 0001:0001a4d0       ?draw@CJBPic@@QAEHPAVCDC@@HHK@Z 1001b4d0 f   krnln_static:JBPIC.OBJ
 0001:0001a610       ?FillRect@CJBPic@@QAEHPAVCDC@@PBVCRect@@1HPAKHK@Z 1001b610 f   krnln_static:JBPIC.OBJ
 0001:0001a840       ?DrawRect@CJBPic@@QAEHPAVCDC@@PBVCRect@@H1ABUtagSIZE@@PAKHHK@Z 1001b840 f   krnln_static:JBPIC.OBJ
 0001:0001add0       ?Read@CStream@@UAEHPAEH@Z  1001bdd0 f   krnln_static:Pic.obj
 0001:0001ae70       ?BGRFromRGB@@YAHPAEII@Z    1001be70 f   krnln_static:Pic.obj
 0001:0001aec0       ?VertFlipBuf@@YAHPAEII@Z   1001bec0 f   krnln_static:Pic.obj
 0001:0001afd0       ?MakeDwordAlignedBuf@@YAPAEPAEIIPAI@Z 1001bfd0 f   krnln_static:Pic.obj
 0001:0001b070       _LoadPicFile@4             1001c070 f   krnln_static:Pic.obj
 0001:0001b110       _LoadPicData@8             1001c110 f   krnln_static:Pic.obj
 0001:0001b1e0       _BeginDrawPic@12           1001c1e0 f   krnln_static:Pic.obj
 0001:0001b440       _DrawPic@24                1001c440 f   krnln_static:Pic.obj
 0001:0001b7a0       _EndDrawPic@4              1001c7a0 f   krnln_static:Pic.obj
 0001:0001b7d0       _Draw@24                   1001c7d0 f   krnln_static:Pic.obj
 0001:0001b840       _GetHBitmap@8              1001c840 f   krnln_static:Pic.obj
 0001:0001ba10       _LoadJPGFile@4             1001ca10 f   krnln_static:Pic.obj
 0001:0001ba70       ?AllocMem@@YAPAEH@Z        1001ca70 f   krnln_static:Pic.obj
 0001:0001ba80       _LoadJPG@4                 1001ca80 f   krnln_static:Pic.obj
 0001:0001bb70       ??_ECStream@@UAEPAXI@Z     1001cb70 f i krnln_static:Pic.obj
 0001:0001bb70       ??_GCStream@@UAEPAXI@Z     1001cb70 f i krnln_static:Pic.obj
 0001:0001bb90       ??1CStream@@UAE@XZ         1001cb90 f i krnln_static:Pic.obj
 0001:0001bba0       ?Read@CBaseStream@@UAEHPAEH@Z 1001cba0 f i krnln_static:Pic.obj
 0001:0001bbb0       ??_ECBaseStream@@UAEPAXI@Z 1001cbb0 f i krnln_static:Pic.obj
 0001:0001bbb0       ??_GCBaseStream@@UAEPAXI@Z 1001cbb0 f i krnln_static:Pic.obj
 0001:0001bbd0       _LoadBMPFile@4             1001cbd0 f   krnln_static:Pic.obj
 0001:0001bc30       _LoadPcxFile@4             1001cc30 f   krnln_static:Pic.obj
 0001:0001bc90       _LoadBMP@4                 1001cc90 f   krnln_static:Pic.obj
 0001:0001bd60       _GetPicFileType@4          1001cd60 f   krnln_static:Pic.obj
 0001:0001bdc0       _GetPicDataType@8          1001cdc0 f   krnln_static:Pic.obj
 0001:0001beb0       _GetPicType@4              1001ceb0 f   krnln_static:Pic.obj
 0001:0001bf70       _LoadIcoFile@8             1001cf70 f   krnln_static:Pic.obj
 0001:0001bfd0       _LoadIco@8                 1001cfd0 f   krnln_static:Pic.obj
 0001:0001c230       _LoadGifFile@4             1001d230 f   krnln_static:Pic.obj
 0001:0001c290       _LoadGif@4                 1001d290 f   krnln_static:Pic.obj
 0001:0001c430       _GetFileFilterStr@0        1001d430 f   krnln_static:Pic.obj
 0001:0001c440       ?GetMessageMap@CPicWnd@@MBEPBUAFX_MSGMAP@@XZ 1001d440 f   krnln_static:Pic.obj
 0001:0001c450       ?OnPaint@CPicWnd@@IAEXXZ   1001d450 f   krnln_static:Pic.obj
 0001:0001c6b0       ?PostNcDestroy@CPicWnd@@MAEXXZ 1001d6b0 f   krnln_static:Pic.obj
 0001:0001c6e0       ?AutoSizeWnd@CPicWnd@@MAEXXZ 1001d6e0 f   krnln_static:Pic.obj
 0001:0001c7a0       ?Empty@CPicWnd@@QAEXXZ     1001d7a0 f   krnln_static:Pic.obj
 0001:0001c800       ?EmptyData@CPicWnd@@QAEXXZ 1001d800 f   krnln_static:Pic.obj
 0001:0001c820       ?PutData@CPicWnd@@QAEHPAEH@Z 1001d820 f   krnln_static:Pic.obj
 0001:0001ca00       _LoadPcx@4                 1001da00 f   krnln_static:Pic.obj
 0001:0001cad0       ?LoadPcxData@@YAPAUPIC_INFO@@PAEH@Z 1001dad0 f   krnln_static:Pic.obj
 0001:0001cdb0       ?LoadBWPcx@@YAPAUPIC_INFO@@PAEH@Z 1001ddb0 f   krnln_static:Pic.obj
 0001:0001cf60       ?CreateCursorFromData@@YAPAUHICON__@@PAEK@Z 1001df60 f   krnln_static:Pic.obj
 0001:0001d060       ??0CMIDI@@QAE@XZ           1001e060 f   krnln_static:MIDI.OBJ
 0001:0001d100       ??_ECMIDI@@UAEPAXI@Z       1001e100 f i krnln_static:MIDI.OBJ
 0001:0001d100       ??_GCMIDI@@UAEPAXI@Z       1001e100 f i krnln_static:MIDI.OBJ
 0001:0001d120       ??1CMIDI@@UAE@XZ           1001e120 f   krnln_static:MIDI.OBJ
 0001:0001d1f0       ?Empty@CMIDI@@QAEXXZ       1001e1f0 f   krnln_static:MIDI.OBJ
 0001:0001d220       ?init@CMIDI@@IAEXXZ        1001e220 f   krnln_static:MIDI.OBJ
 0001:0001d340       ?IsMIDIData@CMIDI@@SAHPAEK@Z 1001e340 f   krnln_static:MIDI.OBJ
 0001:0001d360       ?Create@CMIDI@@QAEHPAXKPAVCWnd@@@Z 1001e360 f   krnln_static:MIDI.OBJ
 0001:0001d620       ?Play@CMIDI@@QAEHH@Z       1001e620 f   krnln_static:MIDI.OBJ
 0001:0001d690       ?Stop@CMIDI@@QAEHH@Z       1001e690 f   krnln_static:MIDI.OBJ
 0001:0001d7a0       ?Continue@CMIDI@@QAEHXZ    1001e7a0 f   krnln_static:MIDI.OBJ
 0001:0001d7e0       ?Rewind@CMIDI@@QAEHXZ      1001e7e0 f   krnln_static:MIDI.OBJ
 0001:0001d860       ?ConvertToBuffer@CMIDI@@IAEHKPAUCONVERTINFO@@@Z 1001e860 f   krnln_static:MIDI.OBJ
 0001:0001daa0       ?GetTrackEvent@CMIDI@@IAEHPAUTRACK@@PAUTEMPEVENT@@@Z 1001eaa0 f   krnln_static:MIDI.OBJ
 0001:0001dd50       ?GetTrackVDWord@CMIDI@@IAEHPAUTRACK@@PAK@Z 1001ed50 f   krnln_static:MIDI.OBJ
 0001:0001dda0       ?AddEventToStreamBuffer@CMIDI@@IAEHPAUTEMPEVENT@@PAUCONVERTINFO@@@Z 1001eda0 f   krnln_static:MIDI.OBJ
 0001:0001dff0       ?StreamBufferSetup@CMIDI@@IAEHXZ 1001eff0 f   krnln_static:MIDI.OBJ
 0001:0001e2e0       ?FreeBuffers@CMIDI@@IAEXXZ 1001f2e0 f   krnln_static:MIDI.OBJ
 0001:0001e360       ?MidiError@CMIDI@@MAEXI@Z  1001f360 f   krnln_static:MIDI.OBJ
 0001:0001e370       ?OnMidiOutDone@CMIDI@@MAEXAAUmidihdr_tag@@@Z 1001f370 f   krnln_static:MIDI.OBJ
 0001:0001e530       ?OnMidiOutPositionCB@CMIDI@@MAEXAAUmidihdr_tag@@AAUmidievent_tag@@@Z 1001f530 f   krnln_static:MIDI.OBJ
 0001:0001e600       ?OnMidiOutClose@CMIDI@@MAEXXZ 1001f600 f   krnln_static:MIDI.OBJ
 0001:0001e620       ?MidiProc@CMIDI@@CGXPAUHMIDIOUT__@@IKKK@Z 1001f620 f   krnln_static:MIDI.OBJ
 0001:0001e690       ??1?$vector@PAXV?$allocator@PAX@std@@@std@@QAE@XZ 1001f690 f i krnln_static:MIDI.OBJ
 0001:0001e690       ??1?$vector@UCONVERTINFO@@V?$allocator@UCONVERTINFO@@@std@@@std@@QAE@XZ 1001f690 f i krnln_static:MIDI.OBJ
 0001:0001e690       ??1?$vector@UTRACK@@V?$allocator@UTRACK@@@std@@@std@@QAE@XZ 1001f690 f i krnln_static:MIDI.OBJ
 0001:0001e690       ??1?$vector@KV?$allocator@K@std@@@std@@QAE@XZ 1001f690 f i krnln_static:MIDI.OBJ
 0001:0001e6c0       ?size@?$vector@UTRACK@@V?$allocator@UTRACK@@@std@@@std@@QBEIXZ 1001f6c0 f i krnln_static:MIDI.OBJ
 0001:0001e6f0       ?insert@?$vector@UTRACK@@V?$allocator@UTRACK@@@std@@@std@@QAEXPAUTRACK@@IABU3@@Z 1001f6f0 f i krnln_static:MIDI.OBJ
 0001:0001e9f0       ?erase@?$vector@UTRACK@@V?$allocator@UTRACK@@@std@@@std@@QAEPAUTRACK@@PAU3@0@Z 1001f9f0 f i krnln_static:MIDI.OBJ
 0001:0001ea30       ?insert@?$vector@PAXV?$allocator@PAX@std@@@std@@QAEXPAPAXIABQAX@Z 1001fa30 f i krnln_static:MIDI.OBJ
 0001:0001ea30       ?insert@?$vector@KV?$allocator@K@std@@@std@@QAEXPAKIABK@Z 1001fa30 f i krnln_static:MIDI.OBJ
 0001:0001ec40       ?size@?$vector@UCONVERTINFO@@V?$allocator@UCONVERTINFO@@@std@@@std@@QBEIXZ 1001fc40 f i krnln_static:MIDI.OBJ
 0001:0001ec70       ?insert@?$vector@UCONVERTINFO@@V?$allocator@UCONVERTINFO@@@std@@@std@@QAEXPAUCONVERTINFO@@IABU3@@Z 1001fc70 f i krnln_static:MIDI.OBJ
 0001:0001ef80       ?erase@?$vector@UCONVERTINFO@@V?$allocator@UCONVERTINFO@@@std@@@std@@QAEPAUCONVERTINFO@@PAU3@0@Z 1001ff80 f i krnln_static:MIDI.OBJ
 0001:0001efc0       ?_Destroy@?$vector@UCONVERTINFO@@V?$allocator@UCONVERTINFO@@@std@@@std@@IAEXPAUCONVERTINFO@@0@Z 1001ffc0 f i krnln_static:MIDI.OBJ
 0001:0001efc0       ?_Destroy@?$vector@PAUGWAVE@@V?$allocator@PAUGWAVE@@@std@@@std@@IAEXPAPAUGWAVE@@0@Z 1001ffc0 f i krnln_static:MIDI.OBJ
 0001:0001efc0       ?_Destroy@?$vector@UTRACK@@V?$allocator@UTRACK@@@std@@@std@@IAEXPAUTRACK@@0@Z 1001ffc0 f i krnln_static:MIDI.OBJ
 0001:0001efd0       ?copy@std@@YAPAUTRACK@@PAU2@00@Z 1001ffd0 f i krnln_static:MIDI.OBJ
 0001:0001f010       ?copy@std@@YAPAUCONVERTINFO@@PAU2@00@Z 10020010 f i krnln_static:MIDI.OBJ
 0001:0001f050       ?SetDllFuncs@CDllFunc@@QAEXP6AHXZP6AP6GHXZPBD@ZP6AXXZ@Z 10020050 f   krnln_static:DllFunc.obj
 0001:0001f0a0       ?GetProc@CDllFunc@@QAEP6GHXZPAD@Z 100200a0 f   krnln_static:DllFunc.obj
 0001:0001f0e0       ?MCloseSocket@CBaseSockWnd@@IAEXI@Z 100200e0 f   krnln_static:sockwnd.obj
 0001:0001f100       ?OnDataIncoming@CUDPSockWnd@@IAEJIJ@Z 10020100 f   krnln_static:sockwnd.obj
 0001:0001f1e0       ?OnDataIncoming@CClientSockWnd@@IAEJIJ@Z 100201e0 f   krnln_static:sockwnd.obj
 0001:0001f320       ?OnAccept@CServerSockWnd@@IAEJIJ@Z 10020320 f   krnln_static:sockwnd.obj
 0001:0001f440       ?OnDataIncoming@CServerSockWnd@@IAEJIJ@Z 10020440 f   krnln_static:sockwnd.obj
 0001:0001f620       ??0CPing@@QAE@XZ           10020620 f   krnln_static:sockwnd.obj
 0001:0001f640       ??_GCPing@@UAEPAXI@Z       10020640 f i krnln_static:sockwnd.obj
 0001:0001f640       ??_ECPing@@UAEPAXI@Z       10020640 f i krnln_static:sockwnd.obj
 0001:0001f660       ??1CPing@@UAE@XZ           10020660 f   krnln_static:sockwnd.obj
 0001:0001f690       ?ClearEventBuf@CSerial@@IAEXXZ 10020690 f   krnln_static:Serial.obj
 0001:0001f6c0       ?OnHasEvent@CSerial@@IAEJIJ@Z 100206c0 f   krnln_static:Serial.obj
 0001:0001f900       ?AddProcessor@CMDataSource@@QAEXPAVCProcessor@@@Z 10020900 f   krnln_static:MDataSrc.obj
 0001:0001fa50       ?RemoveProcessor@CMDataSource@@QAEXPAVCProcessor@@@Z 10020a50 f   krnln_static:MDataSrc.obj
 0001:0001fa90       ?FindProcessor@CMDataSource@@QAEHPAVCProcessor@@@Z 10020a90 f   krnln_static:MDataSrc.obj
 0001:0001fac0       ?SetProvider@CMDataSource@@QAEXPAVCProvider@@@Z 10020ac0 f   krnln_static:MDataSrc.obj
 0001:0001faf0       ?CheckRowIndex@CMDataSource@@IAEHH@Z 10020af0 f   krnln_static:MDataSrc.obj
 0001:0001fb20       ?CheckColIndex@CMDataSource@@IAEHH@Z 10020b20 f   krnln_static:MDataSrc.obj
 0001:0001fb50       ?CheckRowColIndex@CMDataSource@@IAEHHH@Z 10020b50 f   krnln_static:MDataSrc.obj
 0001:0001fb80       ?CheckRow@CMDataSource@@IAEHHPAH@Z 10020b80 f   krnln_static:MDataSrc.obj
 0001:0001fbd0       ?CheckCol@CMDataSource@@IAEHHPAH@Z 10020bd0 f   krnln_static:MDataSrc.obj
 0001:0001fc20       ?CheckRowCol@CMDataSource@@IAEHHPAHH0@Z 10020c20 f   krnln_static:MDataSrc.obj
 0001:0001fc60       ?SaveChange@CMDataSource@@QAEXXZ 10020c60 f   krnln_static:MDataSrc.obj
 0001:0001fc90       ?GetRowCount@CMDataSource@@QAEHXZ 10020c90 f   krnln_static:MDataSrc.obj
 0001:0001fca0       ?GetRowHeight@CMDataSource@@QAEHH@Z 10020ca0 f   krnln_static:MDataSrc.obj
 0001:0001fcd0       ?GetColCount@CMDataSource@@QAEHXZ 10020cd0 f   krnln_static:MDataSrc.obj
 0001:0001fce0       ?GetColWidth@CMDataSource@@QAEHH@Z 10020ce0 f   krnln_static:MDataSrc.obj
 0001:0001fd10       ?GetColName@CMDataSource@@QAEXHAAVCString@@@Z 10020d10 f   krnln_static:MDataSrc.obj
 0001:0001fd50       ?GetFixedRowCount@CMDataSource@@QAEHXZ 10020d50 f   krnln_static:MDataSrc.obj
 0001:0001fd60       ?GetFixedColCount@CMDataSource@@QAEHXZ 10020d60 f   krnln_static:MDataSrc.obj
 0001:0001fd70       ?GetCell@CMDataSource@@QAEHPAVCELL@@HHH@Z 10020d70 f   krnln_static:MDataSrc.obj
 0001:0001fdb0       ?GetState@CMDataSource@@QAEKHH@Z 10020db0 f   krnln_static:MDataSrc.obj
 0001:0001fe50       ?GetShowText@CMDataSource@@QAEXHHAAVCString@@@Z 10020e50 f   krnln_static:MDataSrc.obj
 0001:0001fee0       ?GetText@CMDataSource@@QAEXHHAAVCString@@@Z 10020ee0 f   krnln_static:MDataSrc.obj
 0001:0001ff70       ?GetBackground@CELL@@QAEKXZ 10020f70 f   krnln_static:MDataSrc.obj
 0001:0001ff70       ?GetCaretRowIndex@CMDataSource@@QAEHXZ 10020f70 f   krnln_static:MDataSrc.obj
 0001:0001ff80       ?IsReadOnly@CMDataSource@@QAEHXZ 10020f80 f   krnln_static:MDataSrc.obj
 0001:0001ff90       ?GetProvider@CMDataSource@@QAEPAVCProvider@@XZ 10020f90 f   krnln_static:MDataSrc.obj
 0001:0001ffa0       ?SetRowHeight@CMDataSource@@QAEXHHH@Z 10020fa0 f   krnln_static:MDataSrc.obj
 0001:0001fff0       ?SetColWidth@CMDataSource@@QAEXHHH@Z 10020ff0 f   krnln_static:MDataSrc.obj
 0001:00020040       ?NotifyCellModified@CMDataSource@@IAEXHHHH@Z 10021040 f   krnln_static:MDataSrc.obj
 0001:00020080       ?SetText@CMDataSource@@QAEHHHPAD@Z 10021080 f   krnln_static:MDataSrc.obj
 0001:000200d0       ?GetCellsData@CMDataSource@@QAEHAAVCFreqMem@@HHHH@Z 100210d0 f   krnln_static:MDataSrc.obj
 0001:000201b0       ?SetCellsData@CMDataSource@@QAEHPAEHHHHPAH11H@Z 100211b0 f   krnln_static:MDataSrc.obj
 0001:00020270       ?LoadCellsData@CMDataSource@@QAEHPAVCFile@@HHHPAH11H@Z 10021270 f   krnln_static:MDataSrc.obj
 0001:00020460       ?SaveCellsData@CMDataSource@@QAEHPAVCFile@@HHHH@Z 10021460 f   krnln_static:MDataSrc.obj
 0001:00020570       ?GetIndependRect@CMDataSource@@QAEXAAVCRect@@@Z 10021570 f   krnln_static:MDataSrc.obj
 0001:00020620       ?SetupPrinterInfo@CMDataSource@@QAEHXZ 10021620 f   krnln_static:MDataSrc.obj
 0001:00020b10       ??1CPrinterSetup@@UAE@XZ   10021b10 f i krnln_static:MDataSrc.obj
 0001:00020ce0       ?GetPrintInfo@CMDataSource@@QAEPBVCMPrintInfo@@XZ 10021ce0 f   krnln_static:MDataSrc.obj
 0001:00020cf0       ?CreatePrinterDC@CMDataSource@@QAEPAUHDC__@@XZ 10021cf0 f   krnln_static:MDataSrc.obj
 0001:000210f0       ?CalcutePrePage@CMDataSource@@QAEXHHPBVCMPrintInfo@@AAV?$CMArray@UPAGE_PRINT_INFO@@@@@Z 100220f0 f   krnln_static:MDataSrc.obj
 0001:00021510       ?FindColIndex@CMDataSource@@QAEHPAD@Z 10022510 f   krnln_static:MDataSrc.obj
 0001:00021620       ?SetSize@?$CMArray@UPAGE_PRINT_INFO@@@@QAEXHH@Z 10022620 f i krnln_static:MDataSrc.obj
 0001:00021710       ?StrToBOOL@CProvider@@SAHPAD@Z 10022710 f   krnln_static:Provider.obj
 0001:00021750       ??0CMPrintInfo@@QAE@XZ     10022750 f   krnln_static:Provider.obj
 0001:000217c0       ??1CMPrintInfo@@QAE@XZ     100227c0 f   krnln_static:Provider.obj
 0001:00021820       ?init@CMPrintInfo@@QAEXXZ  10022820 f   krnln_static:Provider.obj
 0001:000218a0       ?GetPrintScale@CMPrintInfo@@QAEHXZ 100228a0 f   krnln_static:Provider.obj
 0001:000218e0       ?CopyFrom@CMPrintInfo@@QAEXPBV1@@Z 100228e0 f   krnln_static:Provider.obj
 0001:000219a0       ??5CArchive@@QAEAAV0@AAG@Z 100229a0 f i krnln_static:Provider.obj
 0001:000219e0       ??0CELL@@QAE@XZ            100229e0 f   krnln_static:Provider.obj
 0001:00021a10       ??1CELL@@QAE@XZ            10022a10 f   krnln_static:Provider.obj
 0001:00021a20       ?FreeData@CELL@@AAEXXZ     10022a20 f   krnln_static:Provider.obj
 0001:00021a90       ?GetType@CELL@@QAEHXZ      10022a90 f   krnln_static:Provider.obj
 0001:00021ac0       ?GetState@CELL@@QAEKXZ     10022ac0 f   krnln_static:Provider.obj
 0001:00021ad0       ?GetFaceName@CELL@@QAEXAAVCString@@@Z 10022ad0 f   krnln_static:Provider.obj
 0001:00021b00       ?GetFontSize@CELL@@QAEHXZ  10022b00 f   krnln_static:Provider.obj
 0001:00021b10       ?GetExtra@CELL@@QAEHXZ     10022b10 f   krnln_static:Provider.obj
 0001:00021b20       ?GetPicInf@CELL@@QAEPAUPIC_INFO@@XZ 10022b20 f   krnln_static:Provider.obj
 0001:00021bb0       ?GetShowText@CELL@@QAEXAAVCString@@@Z 10022bb0 f   krnln_static:Provider.obj
 0001:00021c70       ?GetText@CELL@@QAEXAAVCString@@@Z 10022c70 f   krnln_static:Provider.obj
 0001:00021ca0       ?GetData@CELL@@QAEPAEPAH@Z 10022ca0 f   krnln_static:Provider.obj
 0001:00021cd0       ?SetState@CELL@@QAEXK@Z    10022cd0 f   krnln_static:Provider.obj
 0001:00021ce0       ?Serialize@CELL@@QAEXAAVCArchive@@@Z 10022ce0 f   krnln_static:Provider.obj
 0001:00021f50       ?GetState@CProvider@@IAEKHH@Z 10022f50 f   krnln_static:Provider.obj
 0001:00021ff0       ?LoadCellsData@CProvider@@IAEXAAVCArchive@@HHHPAH1H@Z 10022ff0 f   krnln_static:Provider.obj
 0001:000221f0       ?SaveCellsData@CProvider@@IAEXAAVCArchive@@HHHH@Z 100231f0 f   krnln_static:Provider.obj
 0001:00022300       ?MInitSize@CNormalProvider@@QAEHHH@Z 10023300 f   krnln_static:Provider.obj
 0001:00022350       ??0CDCRemember@@QAE@PAVCDC@@@Z 10023350 f   krnln_static:MGrid.obj
 0001:00022370       ??1CDCRemember@@QAE@XZ     10023370 f   krnln_static:MGrid.obj
 0001:00022380       ?GetRowHeight@CMGrid@@IAEHH@Z 10023380 f   krnln_static:MGrid.obj
 0001:00022460       ?GetColWidth@CMGrid@@IAEHH@Z 10023460 f   krnln_static:MGrid.obj
 0001:00022540       ?GetHeaderSize@CMGrid@@IAE?AUtagSIZE@@XZ 10023540 f   krnln_static:MGrid.obj
 0001:00022620       ?AddCX@CMGrid@@IAEHHH@Z    10023620 f   krnln_static:MGrid.obj
 0001:00022750       ?AddCY@CMGrid@@IAEHHH@Z    10023750 f   krnln_static:MGrid.obj
 0001:00022880       ?GetDrawMode@CMGrid@@QAEHXZ 10023880 f   krnln_static:MGrid.obj
 0001:00022890       ?SetDrawMode@CMGrid@@QAEXH@Z 10023890 f   krnln_static:MGrid.obj
 0001:000228a0       ?CloseEdit@CMGrid@@IAEXH@Z 100238a0 f   krnln_static:MGrid.obj
 0001:000228f0       ?GetDataSource@CMGrid@@QAEPAVCMDataSource@@XZ 100238f0 f   krnln_static:MGrid.obj
 0001:00022900       ?SetDataSource@CMGrid@@QAEXPAVCMDataSource@@@Z 10023900 f   krnln_static:MGrid.obj
 0001:00022940       ?CreateHeaderFont@CMGrid@@IAEXAAVCFont@@@Z 10023940 f   krnln_static:MGrid.obj
 0001:000229b0       ?OnMouseWheel@CMGrid@@IAEHIFVCPoint@@@Z 100239b0 f   krnln_static:MGrid.obj
 0001:00022a90       ?IsCaretRowValid@CMGrid@@IAEHH@Z 10023a90 f   krnln_static:MGrid.obj
 0001:00022ad0       ?IsCaretColValid@CMGrid@@IAEHH@Z 10023ad0 f   krnln_static:MGrid.obj
 0001:00022b10       ?IsSelectionValid@CMGrid@@IAEHXZ 10023b10 f   krnln_static:MGrid.obj
 0001:00022b70       ?InitScrollBar@CMGrid@@QAEXH@Z 10023b70 f   krnln_static:MGrid.obj
 0001:00022cd0       ?OnCreate@CMGrid@@IAEHPAUtagCREATESTRUCTA@@@Z 10023cd0 f   krnln_static:MGrid.obj
 0001:00022d10       ?OnPaint@CMGrid@@IAEXXZ    10023d10 f   krnln_static:MGrid.obj
 0001:000243a0       ?GetHeaderAndFixedSize@CMGrid@@IAE?AUtagSIZE@@XZ 100253a0 f   krnln_static:MGrid.obj
 0001:00024450       ?DrawSelection@CMGrid@@IAEXXZ 10025450 f   krnln_static:MGrid.obj
 0001:00024690       ?InvalidateCell@CMGrid@@IAEXHH@Z 10025690 f   krnln_static:MGrid.obj
 0001:00024710       ?GetCellsDPShowRect@CMGrid@@IAE?AUtagRECT@@HHHH@Z 10025710 f   krnln_static:MGrid.obj
 0001:00024880       ?SelectTo@CMGrid@@IAEXHHW4REFRUSH_MODE@@@Z 10025880 f   krnln_static:MGrid.obj
 0001:00024ae0       ?Select@CMGrid@@QAEXHHHH@Z 10025ae0 f   krnln_static:MGrid.obj
 0001:00024b20       ?SetCaret@CMGrid@@IAEXHHHW4REFRUSH_MODE@@H@Z 10025b20 f   krnln_static:MGrid.obj
 0001:00024cf0       ?_GetVisibleCells@CMGrid@@IAE?AUtagRECT@@HH@Z 10025cf0 f   krnln_static:MGrid.obj
 0001:00024ef0       ?ChkCellVisible@CMGrid@@QAEXHHW4REFRUSH_MODE@@@Z 10025ef0 f   krnln_static:MGrid.obj
 0001:00024fa0       ?_ChkCellVisible@CMGrid@@IAEXHHAAH0@Z 10025fa0 f   krnln_static:MGrid.obj
 0001:00025290       ?GetCellShowRect@CMGrid@@IAE?AUtagRECT@@HHHH@Z 10026290 f   krnln_static:MGrid.obj
 0001:00025490       ?MCreateFont@CMGrid@@IAEXPAVCELL@@PAVCFont@@H@Z 10026490 f   krnln_static:MGrid.obj
 0001:00025600       ?DrawCell@CMGrid@@IAEXPAVCDC@@HHHHKPAVCRect@@1@Z 10026600 f   krnln_static:MGrid.obj
 0001:00025f40       ?DrawCellLine@CMGrid@@IAEXPAVCDC@@HHHHAAVCSize@@KK@Z 10026f40 f   krnln_static:MGrid.obj
 0001:00026280       ?GetCellSize@CMGrid@@IAE?AUtagSIZE@@HH@Z 10027280 f   krnln_static:MGrid.obj
 0001:00026320       ?GetCellAtRect@CMGrid@@IAE?AUtagRECT@@HH@Z 10027320 f   krnln_static:MGrid.obj
 0001:000264f0       ?IsIndependCell@CMGrid@@IAEHHH@Z 100274f0 f   krnln_static:MGrid.obj
 0001:00026520       ?OnHScroll@CMGrid@@IAEXIIPAVCScrollBar@@@Z 10027520 f   krnln_static:MGrid.obj
 0001:000265c0       ?OnVScroll@CMGrid@@IAEXIIPAVCScrollBar@@@Z 100275c0 f   krnln_static:MGrid.obj
 0001:00026660       ?OnActivate@CMGrid@@IAEXIPAVCWnd@@H@Z 10027660 f   krnln_static:MGrid.obj
 0001:00026680       ?FindSpecDPPointCell@CMGrid@@IAEHAAVCPoint@@PAH1@Z 10027680 f   krnln_static:MGrid.obj
 0001:00026850       ?OnKeyDown@CMGrid@@IAEXIII@Z 10027850 f   krnln_static:MGrid.obj
 0001:00026c20       ?OnLButtonDown@CMGrid@@IAEXIVCPoint@@@Z 10027c20 f   krnln_static:MGrid.obj
 0001:00026f70       ?OnLButtonUp@CMGrid@@IAEXIVCPoint@@@Z 10027f70 f   krnln_static:MGrid.obj
 0001:00027050       ?OnMouseMove@CMGrid@@IAEXIVCPoint@@@Z 10028050 f   krnln_static:MGrid.obj
 0001:000270b0       ?ScrollTo@CMGrid@@IAEXHHW4REFRUSH_MODE@@@Z 100280b0 f   krnln_static:MGrid.obj
 0001:000273e0       ?OnSetCursor@CMGrid@@IAEHPAVCWnd@@II@Z 100283e0 f   krnln_static:MGrid.obj
 0001:00027490       ?FindAdjustCell@CMGrid@@IAEXAAVCPoint@@PAH11@Z 10028490 f   krnln_static:MGrid.obj
 0001:000276f0       ?ResizeRowOrCol@CMGrid@@IAEXAAVCPoint@@HHH@Z 100286f0 f   krnln_static:MGrid.obj
 0001:00027af0       ?DrawResizeLine@CMGrid@@IAEXPAVCDC@@AAVCPoint@@AAVCSize@@HH@Z 10028af0 f   krnln_static:MGrid.obj
 0001:00027b70       ?GetCurAllShowSize@CMGrid@@IAE?AUtagSIZE@@XZ 10028b70 f   krnln_static:MGrid.obj
 0001:00027bc0       ?GetCurGridShowSize@CMGrid@@IAE?AUtagSIZE@@XZ 10028bc0 f   krnln_static:MGrid.obj
 0001:00027cf0       ?OnEndInPlaceEdit@CMGrid@@IAEXPAUtagNMHDR@@PAJ@Z 10028cf0 f   krnln_static:MGrid.obj
 0001:00027e30       ?OnChar@CMGrid@@IAEXIII@Z  10028e30 f   krnln_static:MGrid.obj
 0001:00027fa0       ?CopyIntoClipBoard@CMGrid@@QAEXXZ 10028fa0 f   krnln_static:MGrid.obj
 0001:00027ff0       ?CopyIntoClipBoard@CMGrid@@QAEXHHHH@Z 10028ff0 f   krnln_static:MGrid.obj
 0001:00028110       ?PasteFromClipBoard@CMGrid@@QAEXH@Z 10029110 f   krnln_static:MGrid.obj
 0001:00028140       ?PasteFromClipBoard@CMGrid@@QAEXHHH@Z 10029140 f   krnln_static:MGrid.obj
 0001:00028240       ?edit@CMGrid@@IAEXPAD@Z    10029240 f   krnln_static:MGrid.obj
 0001:000284b0       ?SelectAll@CMGrid@@QAEXW4REFRUSH_MODE@@@Z 100294b0 f   krnln_static:MGrid.obj
 0001:00028540       ?DrawPageNum@CMGrid@@QAEXPAVCDC@@AAVCRect@@HH@Z 10029540 f   krnln_static:MGrid.obj
 0001:00028730       ?DrawPage@CMGrid@@QAEXPAVCDC@@HHHHH@Z 10029730 f   krnln_static:MGrid.obj
 0001:00028900       ?DrawRow@CMGrid@@IAEHPAVCDC@@HHHHHH@Z 10029900 f   krnln_static:MGrid.obj
 0001:00028a10       ?Print@CMGrid@@QAEXPADHPAVCString@@@Z 10029a10 f   krnln_static:MGrid.obj
 0001:00028b10       ??1CMPrintStatusDlg@@UAE@XZ 10029b10 f i krnln_static:MGrid.obj
 0001:00028bc0       ?MFreeObj@@YAXPAK@Z        10029bc0 f   krnln_static:com.obj
 0001:00028c10       ?GetErrMsg@@YAPBDH@Z       10029c10 f   krnln_static:DBERR.OBJ
 0001:00028c40       ?ConvertFileError@@YAHPAVCFileException@@@Z 10029c40 f   krnln_static:DBERR.OBJ
 0001:00028cf0       ??0CEWorkSpace@@QAE@XZ     10029cf0 f   krnln_static:Database.obj
 0001:00028d20       ??_ECEWorkSpace@@UAEPAXI@Z 10029d20 f i krnln_static:Database.obj
 0001:00028d20       ??_GCEWorkSpace@@UAEPAXI@Z 10029d20 f i krnln_static:Database.obj
 0001:00028d40       ??1CEWorkSpace@@UAE@XZ     10029d40 f   krnln_static:Database.obj
 0001:00028da0       ?CloseAll@CEWorkSpace@@QAEXXZ 10029da0 f   krnln_static:Database.obj
 0001:00028de0       ?IsNeedRetry@CEDatabase@@SAHPAVCFileException@@K@Z 10029de0 f   krnln_static:DBLOCK.OBJ
 0001:00028e20       ??1CException@@UAE@XZ      10029e20 f i krnln_static:DBLOCK.OBJ
 0001:00028e20       ??1CObject@@UAE@XZ         10029e20 f i krnln_static:DBLOCK.OBJ
 0001:00028e20       ?init@CPropertyInfo@@UAEXXZ 10029e20 f i krnln_static:DBLOCK.OBJ
 0001:00028e30       ??_GCFileException@@UAEPAXI@Z 10029e30 f i krnln_static:DBLOCK.OBJ
 0001:00028e30       ??_ECFileException@@UAEPAXI@Z 10029e30 f i krnln_static:DBLOCK.OBJ
 0001:00028e50       ??1CFileException@@UAE@XZ  10029e50 f i krnln_static:DBLOCK.OBJ
 0001:00028e90       ?RunLock@CEDatabase@@IAEHHH@Z 10029e90 f   krnln_static:DBLOCK.OBJ
 0001:00028ed0       ?RunLockFile@CEDatabase@@IAEHKH@Z 10029ed0 f   krnln_static:DBLOCK.OBJ
 0001:00029170       ?_RunLockFile@CEDatabase@@SAHPAVCCryptFile@@KH@Z 1002a170 f   krnln_static:DBLOCK.OBJ
 0001:000292d0       ?LockOffset@CEDatabase@@SAHPAVCCryptFile@@HPAVCFreqMem@@@Z 1002a2d0 f   krnln_static:DBLOCK.OBJ
 0001:00029330       ?UnlockOffset@CEDatabase@@SAHPAVCCryptFile@@HPAVCFreqMem@@@Z 1002a330 f   krnln_static:DBLOCK.OBJ
 0001:00029390       ?UnlockRemember@CEDatabase@@SAHPAVCCryptFile@@PAVCFreqMem@@H@Z 1002a390 f   krnln_static:DBLOCK.OBJ
 0001:00029420       ?ReplaceLock@CEDatabase@@SAHPAVCCryptFile@@HPAVCFreqMem@@@Z 1002a420 f   krnln_static:DBLOCK.OBJ
 0001:00029490       ??0CDatFile@@QAE@PAVCCryptFile@@@Z 1002a490 f   krnln_static:DATFILE.OBJ
 0001:000294b0       ??_GCDatFile@@UAEPAXI@Z    1002a4b0 f i krnln_static:DATFILE.OBJ
 0001:000294b0       ??_ECDatFile@@UAEPAXI@Z    1002a4b0 f i krnln_static:DATFILE.OBJ
 0001:000294d0       ??1CDatFile@@UAE@XZ        1002a4d0 f   krnln_static:DATFILE.OBJ
 0001:000294e0       ?WriteData@CDatFile@@QAEHPAEHHPAH@Z 1002a4e0 f   krnln_static:DATFILE.OBJ
 0001:00029bc0       ??0CEIndex@@QAE@PAVCCryptFile@@PAUOPENED_INDEX_INF@@@Z 1002abc0 f   krnln_static:INDEX.OBJ
 0001:00029c30       ??1CEIndex@@QAE@XZ         1002ac30 f   krnln_static:INDEX.OBJ
 0001:00029cc0       ?ChkAndPopupNodeData@CEIndex@@IAEHXZ 1002acc0 f   krnln_static:INDEX.OBJ
 0001:00029e00       ?ReadNode@CEIndex@@IAEHHPAE@Z 1002ae00 f   krnln_static:INDEX.OBJ
 0001:00029f90       ?WriteNode@CEIndex@@IAEHHPAE@Z 1002af90 f   krnln_static:INDEX.OBJ
 0001:0002a050       ?RemoveNode@CEIndex@@IAEHHPAE@Z 1002b050 f   krnln_static:INDEX.OBJ
 0001:0002a360       ?BeginWork@CEIndex@@QAEHPAUINDEX_HEADER@@@Z 1002b360 f   krnln_static:INDEX.OBJ
 0001:0002a4c0       ?EndWork@CEIndex@@QAEHXZ   1002b4c0 f   krnln_static:INDEX.OBJ
 0001:0002a690       ?FreeNodeChain@CEIndex@@IAEXPAUNODE_INF@@@Z 1002b690 f   krnln_static:INDEX.OBJ
 0001:0002a6f0       ?NewNodeInf@CEIndex@@IAEPAUNODE_INF@@XZ 1002b6f0 f   krnln_static:INDEX.OBJ
 0001:0002a740       ?CompareItem@CEIndex@@IAEHPAE0@Z 1002b740 f   krnln_static:INDEX.OBJ
 0001:0002a760       ?CompareItem@CEIndex@@SAHPAE0PAUOPENED_INDEX_INF@@@Z 1002b760 f   krnln_static:INDEX.OBJ
 0001:0002a980       ?ConvertKeyData@CEIndex@@IAEPAEPAEAAVCFreqMem@@@Z 1002b980 f   krnln_static:INDEX.OBJ
 0001:0002a9a0       ?ConvertKeyData@CEIndex@@SAPAEPAEAAVCFreqMem@@PAUOPENED_INDEX_INF@@@Z 1002b9a0 f   krnln_static:INDEX.OBJ
 0001:0002ac80       ?GetItemBegin@CEIndex@@IAEPAEPAEH@Z 1002bc80 f   krnln_static:INDEX.OBJ
 0001:0002aca0       ?GetItemData@CEIndex@@IAEPAEPAEH@Z 1002bca0 f   krnln_static:INDEX.OBJ
 0001:0002acc0       ?GetLeftInt@CEIndex@@IAEHPAEH@Z 1002bcc0 f   krnln_static:INDEX.OBJ
 0001:0002ace0       ?_ReadNodeData@CEIndex@@IAEHHPAEPAPAUNODE_INF@@1@Z 1002bce0 f   krnln_static:INDEX.OBJ
 0001:0002ad30       ?GetLastKey@CEIndex@@IAEHPAPAUNODE_INF@@0HPAE@Z 1002bd30 f   krnln_static:INDEX.OBJ
 0001:0002ae60       ?GetNextKey@CEIndex@@IAEHPAPAUNODE_INF@@0PAE@Z 1002be60 f   krnln_static:INDEX.OBJ
 0001:0002afe0       ?InsertItemIntoSpecTreeNode@CEIndex@@IAEHHHPAUSPLIT_INF@@PAE@Z 1002bfe0 f   krnln_static:INDEX.OBJ
 0001:0002b120       ?InsertItemIntoSpecLeafNode@CEIndex@@IAEHHHPAEH0@Z 1002c120 f   krnln_static:INDEX.OBJ
 0001:0002b250       ?NewNode@CEIndex@@IAEHPAHPAE@Z 1002c250 f   krnln_static:INDEX.OBJ
 0001:0002b2b0       ?SplitLeafNode@CEIndex@@IAEHPAUSPLIT_INF@@PAEH1H1@Z 1002c2b0 f   krnln_static:INDEX.OBJ
 0001:0002b410       ?SplitTreeNode@CEIndex@@IAEHPAUSPLIT_INF@@H0PAE1@Z 1002c410 f   krnln_static:INDEX.OBJ
 0001:0002b5a0       ?_FindIndexItem@CEIndex@@IAEHPAEPAHPAPAUNODE_INF@@20@Z 1002c5a0 f   krnln_static:INDEX.OBJ
 0001:0002b750       ?_AddIndexItem@CEIndex@@IAEHPAEHPAPAUNODE_INF@@1@Z 1002c750 f   krnln_static:INDEX.OBJ
 0001:0002bb40       ?UpdateLeafNodeParentKey@CEIndex@@IAEHPAUNODE_INF@@PAE@Z 1002cb40 f   krnln_static:INDEX.OBJ
 0001:0002bc80       ?DeleteItemFromLeafNode@CEIndex@@IAEHPAUNODE_INF@@PAE@Z 1002cc80 f   krnln_static:INDEX.OBJ
 0001:0002be10       ?DeleteItemFromTreeNode@CEIndex@@IAEHPAUNODE_INF@@PAE11@Z 1002ce10 f   krnln_static:INDEX.OBJ
 0001:0002c5d0       ?AddIndexItem@CEIndex@@QAEHPAEHH@Z 1002d5d0 f   krnln_static:INDEX.OBJ
 0001:0002c690       ?RemoveIndexItem@CEIndex@@QAEHPAEHH@Z 1002d690 f   krnln_static:INDEX.OBJ
 0001:0002c820       ?ModifyIndexItem@CEIndex@@QAEHPAE0H@Z 1002d820 f   krnln_static:INDEX.OBJ
 0001:0002c970       ?OnLButtonDown@CRgnBtn@@IAEXIVCPoint@@@Z 1002d970 f   krnln_static:RgnBtn.obj
 0001:0002c9e0       ?OnLButtonUp@CRgnBtn@@IAEXIVCPoint@@@Z 1002d9e0 f   krnln_static:RgnBtn.obj
 0001:0002ca70       ?SetPressState@CRgnBtn@@QAEXH@Z 1002da70 f   krnln_static:RgnBtn.obj
 0001:0002ca90       ?OnMouseMove@CRgnBtn@@IAEXIVCPoint@@@Z 1002da90 f   krnln_static:RgnBtn.obj
 0001:0002cb70       ?OnPaint@CRgnBtn@@IAEXXZ   1002db70 f   krnln_static:RgnBtn.obj
 0001:0002cd50       ?GetHBitmap@CRgnBtn@@IAEPAUHBITMAP__@@XZ 1002dd50 f   krnln_static:RgnBtn.obj
 0001:0002cdb0       ?draw@CRgnBtn@@IAEXH@Z     1002ddb0 f   krnln_static:RgnBtn.obj
 0001:0002cde0       ?OnEnable@CRgnBtn@@IAEXH@Z 1002dde0 f   krnln_static:RgnBtn.obj
 0001:0002ce00       ??0CColourPicker@@QAE@XZ   1002de00 f   krnln_static:Clrpkr.obj
 0001:0002ceb0       ??_ECColourPicker@@UAEPAXI@Z 1002deb0 f i krnln_static:Clrpkr.obj
 0001:0002ceb0       ??_GCColourPicker@@UAEPAXI@Z 1002deb0 f i krnln_static:Clrpkr.obj
 0001:0002ced0       ??1CColourPicker@@UAE@XZ   1002ded0 f   krnln_static:Clrpkr.obj
 0001:0002cf30       ?CreateObject@CColourPicker@@SGPAVCObject@@XZ 1002df30 f   krnln_static:Clrpkr.obj
 0001:0002cf90       ?GetRuntimeClass@CColourPicker@@UBEPAUCRuntimeClass@@XZ 1002df90 f   krnln_static:Clrpkr.obj
 0001:0002cfa0       ?GetMessageMap@CColourPicker@@MBEPBUAFX_MSGMAP@@XZ 1002dfa0 f   krnln_static:Clrpkr.obj
 0001:0002cfb0       ?OnSelEndOK@CColourPicker@@IAEJIJ@Z 1002dfb0 f   krnln_static:Clrpkr.obj
 0001:0002d040       ?OnSelEndCancel@CColourPicker@@IAEJIJ@Z 1002e040 f   krnln_static:Clrpkr.obj
 0001:0002d0c0       ?OnSelChange@CColourPicker@@IAEJIJ@Z 1002e0c0 f   krnln_static:Clrpkr.obj
 0001:0002d110       ?OnCreate@CColourPicker@@IAEHPAUtagCREATESTRUCTA@@@Z 1002e110 f   krnln_static:Clrpkr.obj
 0001:0002d130       ?OnLButtonUp@CColourPicker@@IAEXIVCPoint@@@Z 1002e130 f   krnln_static:Clrpkr.obj
 0001:0002d200       ?DrawItem@CColourPicker@@UAEXPAUtagDRAWITEMSTRUCT@@@Z 1002e200 f   krnln_static:Clrpkr.obj
 0001:0002d500       ?PreSubclassWindow@CColourPicker@@MAEXXZ 1002e500 f   krnln_static:Clrpkr.obj
 0001:0002d520       ?GetColour@CColourPicker@@QAEKXZ 1002e520 f   krnln_static:Clrpkr.obj
 0001:0002d530       ?SetColour@CColourPicker@@QAEXK@Z 1002e530 f   krnln_static:Clrpkr.obj
 0001:0002d550       ?SetBkColour@CColourPicker@@QAEXK@Z 1002e550 f   krnln_static:Clrpkr.obj
 0001:0002d580       ?SetTextColour@CColourPicker@@QAEXK@Z 1002e580 f   krnln_static:Clrpkr.obj
 0001:0002d5b0       ?SetWindowSize@CColourPicker@@QAEXXZ 1002e5b0 f   krnln_static:Clrpkr.obj
 0001:0002d690       ?GetForeground@CELL@@QAEKXZ 1002e690 f   krnln_static:Processor.obj
 0001:0002d690       ?GetDataSource@CProcessor@@QAEPAVCMDataSource@@XZ 1002e690 f   krnln_static:Processor.obj
 0001:0002d6a0       ?SetDataSource@CProcessor@@QAEXPAVCMDataSource@@@Z 1002e6a0 f   krnln_static:Processor.obj
 0001:0002d6d0       ?MReflectLastMsg@@YAHPAUHWND__@@PAJ@Z 1002e6d0 f   krnln_static:container.obj
 0001:0002d720       ?MProcessNotify@@YAHPAVCWnd@@IJPAJ@Z 1002e720 f   krnln_static:container.obj
 0001:0002d7b0       ?ProcessCommand@@YAHPAVCWnd@@IJ@Z 1002e7b0 f   krnln_static:container.obj
 0001:0002d950       ?ProcessDrawItem@@YAHHPAUtagDRAWITEMSTRUCT@@@Z 1002e950 f   krnln_static:container.obj
 0001:0002d9a0       ?ProcesssScroll@@YAHPAVCWnd@@@Z 1002e9a0 f   krnln_static:container.obj
 0001:0002d9e0       ??0CGifWnd@@QAE@XZ         1002e9e0 f   krnln_static:GIFWND.OBJ
 0001:0002da60       ??_ECGifWnd@@UAEPAXI@Z     1002ea60 f i krnln_static:GIFWND.OBJ
 0001:0002da60       ??_GCGifWnd@@UAEPAXI@Z     1002ea60 f i krnln_static:GIFWND.OBJ
 0001:0002da80       ??1CGifWnd@@UAE@XZ         1002ea80 f   krnln_static:GIFWND.OBJ
 0001:0002db10       ?EmptyGif@CGifWnd@@QAEXXZ  1002eb10 f   krnln_static:GIFWND.OBJ
 0001:0002db60       ?init@CGifWnd@@QAEXXZ      1002eb60 f   krnln_static:GIFWND.OBJ
 0001:0002dbe0       ?GetMessageMap@CGifWnd@@MBEPBUAFX_MSGMAP@@XZ 1002ebe0 f   krnln_static:GIFWND.OBJ
 0001:0002dbf0       ?OnPaint@CGifWnd@@IAEXXZ   1002ebf0 f   krnln_static:GIFWND.OBJ
 0001:0002dc50       ?GetShowPos@CGifWnd@@QAEXAAH000@Z 1002ec50 f   krnln_static:GIFWND.OBJ
 0001:0002dde0       ?PaintGif@CGifWnd@@QAEXAAVCPaintDC@@@Z 1002ede0 f   krnln_static:GIFWND.OBJ
 0001:0002e080       ?Play@CGifWnd@@QAEXXZ      1002f080 f   krnln_static:GIFWND.OBJ
 0001:0002e0f0       ?Stop@CGifWnd@@QAEXXZ      1002f0f0 f   krnln_static:GIFWND.OBJ
 0001:0002e120       ?ThreadFunc@@YGKPAX@Z      1002f120 f   krnln_static:GIFWND.OBJ
 0001:0002e130       ?Play1@CGifWnd@@QAEHXZ     1002f130 f   krnln_static:GIFWND.OBJ
 0001:0002e6c0       ?load@CGifWnd@@QAEHPAEH@Z  1002f6c0 f   krnln_static:GIFWND.OBJ
 0001:0002e8f0       ?FirstImage@CGifWnd@@QAEPAUHBITMAP__@@XZ 1002f8f0 f   krnln_static:GIFWND.OBJ
 0001:0002e910       ?NextImage@CGifWnd@@QAEPAUHBITMAP__@@XZ 1002f910 f   krnln_static:GIFWND.OBJ
 0001:0002ecd0       ?TakeIt@CGifWnd@@QAEPAUHBITMAP__@@XZ 1002fcd0 f   krnln_static:GIFWND.OBJ
 0001:0002f930       ?PostNcDestroy@CGifWnd@@MAEXXZ 10030930 f   krnln_static:GIFWND.OBJ
 0001:0002f950       ?put_GifData@CGifWnd@@QAEHPAEH@Z 10030950 f   krnln_static:GIFWND.OBJ
 0001:0002f990       ?put_DrawWay@CGifWnd@@QAEXH@Z 10030990 f   krnln_static:GIFWND.OBJ
 0001:0002fa10       ?AutoSizeWnd@CGifWnd@@UAEXXZ 10030a10 f   krnln_static:GIFWND.OBJ
 0001:0002fab0       ?GetByte@CGifWnd@@QAEEXZ   10030ab0 f i krnln_static:GIFWND.OBJ
 0001:0002fba0       ?allocateBlocks@@YAPAUwavehdr_tag@@HH@Z 10030ba0 f   krnln_static:wave.obj
 0001:0002fbf0       ?freeBlocks@@YAXPAUwavehdr_tag@@@Z 10030bf0 f   krnln_static:wave.obj
 0001:0002fc10       ?AddInterface@@YAHPAPAUHWAVEOUT__@@PAUtWAVEFORMATEX@@PCHK@Z 10030c10 f   krnln_static:wave.obj
 0001:0002fc50       ?RemoveInterface@@YAHPAUHWAVEOUT__@@@Z 10030c50 f   krnln_static:wave.obj
 0001:0002fc70       ?MyStopPlaySound@@YAXH@Z   10030c70 f   krnln_static:wave.obj
 0001:0002fdb0       ?MyPlaySound@@YAHPAXHH@Z   10030db0 f   krnln_static:wave.obj
 0001:00030420       ?size@?$vector@PAUGWAVE@@V?$allocator@PAUGWAVE@@@std@@@std@@QBEIXZ 10031420 f i krnln_static:wave.obj
 0001:00030440       ?_Ucopy@?$vector@PAUGWAVE@@V?$allocator@PAUGWAVE@@@std@@@std@@IAEPAPAUGWAVE@@PBQAU3@0PAPAU3@@Z 10031440 f i krnln_static:wave.obj
 0001:00030470       ?_Ufill@?$vector@PAUGWAVE@@V?$allocator@PAUGWAVE@@@std@@@std@@IAEXPAPAUGWAVE@@IABQAU3@@Z 10031470 f i krnln_static:wave.obj
 0001:000304a0       ?_Construct@std@@YAXPAPAUGWAVE@@ABQAU2@@Z 100314a0 f i krnln_static:wave.obj
 0001:000304c0       ?LibInitUserProgram@CKrnlApp@@QAEXXZ 100314c0 f   krnln_static:static_lib.obj
 0001:00030a10       ?GetMD5@@YAXPAEIPAD@Z      10031a10 f   krnln_static:md5.obj
 0001:00030a70       ??1CMD5Checksum@@UAE@XZ    10031a70 f i krnln_static:md5.obj
 0001:00030a80       ??_GCMD5Checksum@@UAEPAXI@Z 10031a80 f i krnln_static:md5.obj
 0001:00030a80       ??_ECMD5Checksum@@UAEPAXI@Z 10031a80 f i krnln_static:md5.obj
 0001:00030aa0       ?ByteToDWord@CMD5Checksum@@QAEXPAKPAEI@Z 10031aa0 f   krnln_static:md5.obj
 0001:00030af0       ?Transform@CMD5Checksum@@QAEXQAE@Z 10031af0 f   krnln_static:md5.obj
 0001:000314c0       ?II@CMD5Checksum@@QAEXAAKKKKKKK@Z 100324c0 f i krnln_static:md5.obj
 0001:00031510       ??0CMD5Checksum@@QAE@XZ    10032510 f   krnln_static:md5.obj
 0001:00031550       ?DWordToByte@CMD5Checksum@@QAEXPAEPAKI@Z 10032550 f   krnln_static:md5.obj
 0001:000315a0       ?Final@CMD5Checksum@@QAEXPAD@Z 100325a0 f   krnln_static:md5.obj
 0001:00031690       ?Update@CMD5Checksum@@QAEXPAEK@Z 10032690 f   krnln_static:md5.obj
 0001:00031750       ?ReadJpeg@@YAPAEPAVCBaseStream@@PAI1P6APAEH@Z@Z 10032750 f   krnln_static:Jpegfile.obj
 0001:00031770       ?JpegFileToRGB@JpegFile@@SAPAEPAVCBaseStream@@PAI1P6APAEH@Z@Z 10032770 f   krnln_static:Jpegfile.obj
 0001:00031940       ?j_putRGBScanline@@YAXPAEH0H@Z 10032940 f   krnln_static:Jpegfile.obj
 0001:00031990       ?j_putGrayScanlineToRGB@@YAXPAEH0H@Z 10032990 f   krnln_static:Jpegfile.obj
 0001:000319d0       ?ReadFile@@YAHPAVCFile@@PAEH@Z 100329d0 f   krnln_static:BMPFILE.OBJ
 0001:00031a70       ?ReadBMP@@YAPAEPAVCFile@@PAI1@Z 10032a70 f   krnln_static:BMPFILE.OBJ
 0001:00031fb0       ??0CPrinterSetup@@QAE@PAVCWnd@@@Z 10032fb0 f   krnln_static:PrinterSetup.obj
 0001:00032240       ??_GCPrinterSetup@@UAEPAXI@Z 10033240 f i krnln_static:PrinterSetup.obj
 0001:00032240       ??_ECPrinterSetup@@UAEPAXI@Z 10033240 f i krnln_static:PrinterSetup.obj
 0001:00032260       ?DoDataExchange@CPrinterSetup@@MAEXPAVCDataExchange@@@Z 10033260 f   krnln_static:PrinterSetup.obj
 0001:00032410       ?GetMessageMap@CPrinterSetup@@MBEPBUAFX_MSGMAP@@XZ 10033410 f   krnln_static:PrinterSetup.obj
 0001:00032420       ?OnSetupprinter@CPrinterSetup@@IAEXXZ 10033420 f   krnln_static:PrinterSetup.obj
 0001:000325d0       ?OnEnableControl@CPrinterSetup@@IAEXXZ 100335d0 f   krnln_static:PrinterSetup.obj
 0001:000325e0       ?OnSetPrintIntoFile@CPrinterSetup@@IAEXXZ 100335e0 f   krnln_static:PrinterSetup.obj
 0001:000326f0       ?AddEditboxInt@@YAXPAVCEdit@@HHPAU_NM_UPDOWN@@@Z 100336f0 f   krnln_static:PrinterSetup.obj
 0001:00032840       ?OnDeltaposSpinPrintCopies@CPrinterSetup@@IAEXPAUtagNMHDR@@PAJ@Z 10033840 f   krnln_static:PrinterSetup.obj
 0001:00032870       ?OnDeltaposSpinTopExtra@CPrinterSetup@@IAEXPAUtagNMHDR@@PAJ@Z 10033870 f   krnln_static:PrinterSetup.obj
 0001:000328a0       ?OnDeltaposSpinBottomExtra@CPrinterSetup@@IAEXPAUtagNMHDR@@PAJ@Z 100338a0 f   krnln_static:PrinterSetup.obj
 0001:000328d0       ?OnDeltaposSpinLeftExtra@CPrinterSetup@@IAEXPAUtagNMHDR@@PAJ@Z 100338d0 f   krnln_static:PrinterSetup.obj
 0001:00032900       ?OnDeltaposSpinRightExtra@CPrinterSetup@@IAEXPAUtagNMHDR@@PAJ@Z 10033900 f   krnln_static:PrinterSetup.obj
 0001:00032930       ?OnDeltaposSpinFirstPageNum@CPrinterSetup@@IAEXPAUtagNMHDR@@PAJ@Z 10033930 f   krnln_static:PrinterSetup.obj
 0001:00032960       ?OnDeltaposSpinBegin@CPrinterSetup@@IAEXPAUtagNMHDR@@PAJ@Z 10033960 f   krnln_static:PrinterSetup.obj
 0001:00032990       ?OnDeltaposSpinEnd@CPrinterSetup@@IAEXPAUtagNMHDR@@PAJ@Z 10033990 f   krnln_static:PrinterSetup.obj
 0001:000329c0       ?OnDeltaposPrintScale@CPrinterSetup@@IAEXPAUtagNMHDR@@PAJ@Z 100339c0 f   krnln_static:PrinterSetup.obj
 0001:000329f0       ?OnDeltaposLinesPrePage@CPrinterSetup@@IAEXPAUtagNMHDR@@PAJ@Z 100339f0 f   krnln_static:PrinterSetup.obj
 0001:00032a20       ?OnInitDialog@CPrinterSetup@@MAEHXZ 10033a20 f   krnln_static:PrinterSetup.obj
 0001:00032eb0       ?EnableControls@CPrinterSetup@@IAEXXZ 10033eb0 f   krnln_static:PrinterSetup.obj
 0001:00033040       ?ToDivTenStr@CPrinterSetup@@IAEXHPAD@Z 10034040 f   krnln_static:PrinterSetup.obj
 0001:000330b0       ?OnOK@CPrinterSetup@@MAEXXZ 100340b0 f   krnln_static:PrinterSetup.obj
 0001:000335a0       ?DbToInt@@YAHN@Z           100345a0 f   krnln_static:gfunc.obj
 0001:000335d0       ?DbToIntUpper@@YAHN@Z      100345d0 f   krnln_static:gfunc.obj
 0001:00033600       ?ChgUnit@@YANNHH@Z         10034600 f   krnln_static:gfunc.obj
 0001:000337c0       ?GetPrinterInfo@@YAXPAUHDC__@@PAH1111111@Z 100347c0 f   krnln_static:gfunc.obj
 0001:00033990       ?SetDCMapMode@@YAXPAVCDC@@HH@Z 10034990 f   krnln_static:gfunc.obj
 0001:00033a20       ?OnCancel@CPreviewDlg@@IAEXXZ 10034a20 f   krnln_static:PreviewDlg.obj
 0001:00033a30       ?OnPaint@CPreviewDlg@@IAEXXZ 10034a30 f   krnln_static:PreviewDlg.obj
 0001:00033b00       ?OnSize@CPreviewDlg@@IAEXIHH@Z 10034b00 f   krnln_static:PreviewDlg.obj
 0001:00033b80       ?OnPrint@CPreviewDlg@@IAEXXZ 10034b80 f   krnln_static:PreviewDlg.obj
 0001:00033bd0       ?OnPrinterSetup@CPreviewDlg@@IAEXXZ 10034bd0 f   krnln_static:PreviewDlg.obj
 0001:00033c10       ?OnZoomIn@CPreviewDlg@@IAEXXZ 10034c10 f   krnln_static:PreviewDlg.obj
 0001:00033c40       ?OnZoomOut@CPreviewDlg@@IAEXXZ 10034c40 f   krnln_static:PreviewDlg.obj
 0001:00033c70       ?OnAllWidth@CPreviewDlg@@IAEXXZ 10034c70 f   krnln_static:PreviewDlg.obj
 0001:00033ca0       ?OnAllHeight@CPreviewDlg@@IAEXXZ 10034ca0 f   krnln_static:PreviewDlg.obj
 0001:00033cd0       ?OnPrevPage@CPreviewDlg@@IAEXXZ 10034cd0 f   krnln_static:PreviewDlg.obj
 0001:00033cf0       ?OnNextPage@CPreviewDlg@@IAEXXZ 10034cf0 f   krnln_static:PreviewDlg.obj
 0001:00033d10       ?OnGotoSpecPage@CPreviewDlg@@IAEXXZ 10034d10 f   krnln_static:PreviewDlg.obj
 0001:00033de0       ??1CGotoPageDlg@@UAE@XZ    10034de0 f i krnln_static:PreviewDlg.obj
 0001:00033e40       ?RefrushLabel@CPreviewDlg@@QAEXXZ 10034e40 f   krnln_static:PreviewDlg.obj
 0001:00033e90       ?OnCreate@CPreviewWnd@@IAEHPAUtagCREATESTRUCTA@@@Z 10034e90 f   krnln_static:PreviewWnd.obj
 0001:00033eb0       ?OnSize@CPreviewWnd@@IAEXIHH@Z 10034eb0 f   krnln_static:PreviewWnd.obj
 0001:00033ee0       ?ReLayout@CPreviewWnd@@QAEXXZ 10034ee0 f   krnln_static:PreviewWnd.obj
 0001:00033ff0       ?InitScrollRange@CPreviewWnd@@QAEXXZ 10034ff0 f   krnln_static:PreviewWnd.obj
 0001:00034120       ?ChangeRate@CPreviewWnd@@QAEXH@Z 10035120 f   krnln_static:PreviewWnd.obj
 0001:00034170       ?SetRate@CPreviewWnd@@QAEXHH@Z 10035170 f   krnln_static:PreviewWnd.obj
 0001:00034280       ?OnHScroll@CPreviewWnd@@IAEXIIPAVCScrollBar@@@Z 10035280 f   krnln_static:PreviewWnd.obj
 0001:00034340       ?OnVScroll@CPreviewWnd@@IAEXIIPAVCScrollBar@@@Z 10035340 f   krnln_static:PreviewWnd.obj
 0001:00034400       ?OnPaint@CPreviewWnd@@IAEXXZ 10035400 f   krnln_static:PreviewWnd.obj
 0001:00034900       ?GetCurPageIndex@CPreviewWnd@@QAEHXZ 10035900 f   krnln_static:PreviewWnd.obj
 0001:00034910       ?GetTotalPagesCount@CPreviewWnd@@QAEHXZ 10035910 f   krnln_static:PreviewWnd.obj
 0001:00034920       ?GoPrevPage@CPreviewWnd@@QAEXXZ 10035920 f   krnln_static:PreviewWnd.obj
 0001:00034930       ?GoNextPage@CPreviewWnd@@QAEXXZ 10035930 f   krnln_static:PreviewWnd.obj
 0001:00034940       ?GoPage@CPreviewWnd@@QAEXH@Z 10035940 f   krnln_static:PreviewWnd.obj
 0001:000349b0       ?OnRButtonDown@CMGrid@@IAEXIVCPoint@@@Z 100359b0 f   krnln_static:PreviewWnd.obj
 0001:000349b0       ?OnLButtonDown@CPreviewWnd@@IAEXIVCPoint@@@Z 100359b0 f   krnln_static:PreviewWnd.obj
 0001:000349c0       ??0CInPlaceEdit@@QAE@PAVCWnd@@AAVCRect@@IHHPADHPAVCFont@@KK@Z 100359c0 f   krnln_static:GridEdit.obj
 0001:00034b00       ??_ECInPlaceEdit@@UAEPAXI@Z 10035b00 f i krnln_static:GridEdit.obj
 0001:00034b00       ??_GCInPlaceEdit@@UAEPAXI@Z 10035b00 f i krnln_static:GridEdit.obj
 0001:00034b20       ??1CInPlaceEdit@@UAE@XZ    10035b20 f   krnln_static:GridEdit.obj
 0001:00034b90       ?GetMessageMap@CInPlaceEdit@@MBEPBUAFX_MSGMAP@@XZ 10035b90 f   krnln_static:GridEdit.obj
 0001:00034ba0       ?OnKeyDown@CInPlaceEdit@@IAEXIII@Z 10035ba0 f   krnln_static:GridEdit.obj
 0001:00034c00       ?OnKeyUp@CInPlaceEdit@@IAEXIII@Z 10035c00 f   krnln_static:GridEdit.obj
 0001:00034c20       ?OnKillFocus@CInPlaceEdit@@IAEXPAVCWnd@@@Z 10035c20 f   krnln_static:GridEdit.obj
 0001:00034c40       ?AdjustRect@CInPlaceEdit@@IAEXXZ 10035c40 f   krnln_static:GridEdit.obj
 0001:00034f20       ?OnChar@CInPlaceEdit@@IAEXIII@Z 10035f20 f   krnln_static:GridEdit.obj
 0001:00034f50       ?PreTranslateMessage@CInPlaceEdit@@UAEHPAUtagMSG@@@Z 10035f50 f   krnln_static:GridEdit.obj
 0001:00034f90       ?PostNcDestroy@CColourPopup@@UAEXXZ 10035f90 f   krnln_static:GridEdit.obj
 0001:00034f90       ?PostNcDestroy@CInPlaceEdit@@MAEXXZ 10035f90 f   krnln_static:GridEdit.obj
 0001:00034fb0       ?OnEndEdit@CInPlaceEdit@@IAEXXZ 10035fb0 f   krnln_static:GridEdit.obj
 0001:00034fc0       ?EndEdit@CInPlaceEdit@@IAEXXZ 10035fc0 f   krnln_static:GridEdit.obj
 0001:000350b0       ?CtlColor@CInPlaceEdit@@IAEPAUHBRUSH__@@PAVCDC@@I@Z 100360b0 f   krnln_static:GridEdit.obj
 0001:000350e0       ?OnCreate@CWnd@@IAEHPAUtagCREATESTRUCTA@@@Z 100360e0 f i krnln_static:GridEdit.obj
 0001:000350f0       ??0CMPrintStatusDlg@@QAE@PAVCWnd@@@Z 100360f0 f   krnln_static:PrintStatusDlg.obj
 0001:00035180       ??_GCMPrintStatusDlg@@UAEPAXI@Z 10036180 f i krnln_static:PrintStatusDlg.obj
 0001:00035180       ??_ECMPrintStatusDlg@@UAEPAXI@Z 10036180 f i krnln_static:PrintStatusDlg.obj
 0001:000351a0       ?DoDataExchange@CMPrintStatusDlg@@MAEXPAVCDataExchange@@@Z 100361a0 f   krnln_static:PrintStatusDlg.obj
 0001:000351d0       ?GetMessageMap@CMPrintStatusDlg@@MBEPBUAFX_MSGMAP@@XZ 100361d0 f   krnln_static:PrintStatusDlg.obj
 0001:000351e0       ?OnInitDialog@CMPrintStatusDlg@@MAEHXZ 100361e0 f   krnln_static:PrintStatusDlg.obj
 0001:00035a30       ?OnDestroy@CMPrintStatusDlg@@IAEXXZ 10036a30 f   krnln_static:PrintStatusDlg.obj
 0001:00035a40       ?OnCancel@CMPrintStatusDlg@@MAEXXZ 10036a40 f   krnln_static:PrintStatusDlg.obj
 0001:00035a50       ??_ECProgressCtrl@@UAEPAXI@Z 10036a50 f i krnln_static:PrintStatusDlg.obj
 0001:00035a50       ??_GCProgressCtrl@@UAEPAXI@Z 10036a50 f i krnln_static:PrintStatusDlg.obj
 0001:00035a70       ??_GCColourPopup@@UAEPAXI@Z 10036a70 f i krnln_static:Clrpopup.obj
 0001:00035a70       ??_ECColourPopup@@UAEPAXI@Z 10036a70 f i krnln_static:Clrpopup.obj
 0001:00035a90       ??0CColourPopup@@QAE@VCPoint@@KPAVCWnd@@PBD2@Z 10036a90 f   krnln_static:Clrpopup.obj
 0001:00035ba0       ?Initialise@CColourPopup@@QAEXXZ 10036ba0 f   krnln_static:Clrpopup.obj
 0001:00035cb0       ??1CColourPopup@@UAE@XZ    10036cb0 f   krnln_static:Clrpopup.obj
 0001:00035d70       ?Create@CColourPopup@@QAEHVCPoint@@KPAVCWnd@@PBD2@Z 10036d70 f   krnln_static:Clrpopup.obj
 0001:00035ea0       ?GetMessageMap@CColourPopup@@MBEPBUAFX_MSGMAP@@XZ 10036ea0 f   krnln_static:Clrpopup.obj
 0001:00035eb0       ?WindowProc@CColourPopup@@UAEJIIJ@Z 10036eb0 f   krnln_static:Clrpopup.obj
 0001:00035f40       ?OnKeyDown@CColourPopup@@IAEXIII@Z 10036f40 f   krnln_static:Clrpopup.obj
 0001:000361d0       ?OnPaint@CColourPopup@@IAEXXZ 100371d0 f   krnln_static:Clrpopup.obj
 0001:000362a0       ?OnMouseMove@CColourPopup@@IAEXIVCPoint@@@Z 100372a0 f   krnln_static:Clrpopup.obj
 0001:00036350       ?OnLButtonDown@CColourPopup@@IAEXIVCPoint@@@Z 10037350 f   krnln_static:Clrpopup.obj
 0001:00036370       ?OnLButtonUp@CColourPopup@@IAEXIVCPoint@@@Z 10037370 f   krnln_static:Clrpopup.obj
 0001:000363d0       ?GetIndex@CColourPopup@@IBEHHH@Z 100373d0 f   krnln_static:Clrpopup.obj
 0001:00036440       ?GetRow@CColourPopup@@IBEHH@Z 10037440 f   krnln_static:Clrpopup.obj
 0001:00036490       ?GetColumn@CColourPopup@@IBEHH@Z 10037490 f   krnln_static:Clrpopup.obj
 0001:000364e0       ?FindCellFromColour@CColourPopup@@IAEXK@Z 100374e0 f   krnln_static:Clrpopup.obj
 0001:00036550       ?GetCellRect@CColourPopup@@IAEHHABQAUtagRECT@@@Z 10037550 f   krnln_static:Clrpopup.obj
 0001:00036620       ?SetWindowSize@CColourPopup@@IAEXXZ 10037620 f   krnln_static:Clrpopup.obj
 0001:000368e0       ?CreateToolTips@CColourPopup@@IAEXXZ 100378e0 f   krnln_static:Clrpopup.obj
 0001:00036950       ?ChangeSelection@CColourPopup@@IAEXH@Z 10037950 f   krnln_static:Clrpopup.obj
 0001:00036a40       ?EndSelection@CColourPopup@@IAEXH@Z 10037a40 f   krnln_static:Clrpopup.obj
 0001:00036b40       ??1CColorDialog@@UAE@XZ    10037b40 f i krnln_static:Clrpopup.obj
 0001:00036b40       ??1CCommonDialog@@UAE@XZ   10037b40 f i krnln_static:Clrpopup.obj
 0001:00036b50       ?DrawCell@CColourPopup@@IAEXPAVCDC@@H@Z 10037b50 f   krnln_static:Clrpopup.obj
 0001:00037080       ?OnQueryNewPalette@CColourPopup@@IAEHXZ 10038080 f   krnln_static:Clrpopup.obj
 0001:000370a0       ?OnPaletteChanged@CColourPopup@@IAEXPAVCWnd@@@Z 100380a0 f   krnln_static:Clrpopup.obj
 0001:000370e0       ?OnKillFocus@CColourPopup@@IAEXPAVCWnd@@@Z 100380e0 f   krnln_static:Clrpopup.obj
 0001:000370f0       ?OnActivateApp@CColourPopup@@IAEXHPAUHTASK__@@@Z 100380f0 f   krnln_static:Clrpopup.obj
 0001:00037120       ?jpeg_CreateDecompress@@YAXPAUjpeg_decompress_struct@@HI@Z 10038120 f   krnln_static:JDAPIMIN.OBJ
 0001:000371c0       ?jpeg_destroy_decompress@@YAXPAUjpeg_decompress_struct@@@Z 100381c0 f   krnln_static:JDAPIMIN.OBJ
 0001:000371d0       ?jpeg_read_header@@YAHPAUjpeg_decompress_struct@@H@Z 100381d0 f   krnln_static:JDAPIMIN.OBJ
 0001:00037230       ?jpeg_consume_input@@YAHPAUjpeg_decompress_struct@@@Z 10038230 f   krnln_static:JDAPIMIN.OBJ
 0001:00037450       ?jpeg_finish_decompress@@YAHPAUjpeg_decompress_struct@@@Z 10038450 f   krnln_static:JDAPIMIN.OBJ
 0001:00037500       ?jpeg_start_decompress@@YAHPAUjpeg_decompress_struct@@@Z 10038500 f   krnln_static:JDAPISTD.OBJ
 0001:000376b0       ?jpeg_read_scanlines@@YAIPAUjpeg_decompress_struct@@PAPAEI@Z 100386b0 f   krnln_static:JDAPISTD.OBJ
 0001:00037740       ?jpeg_stdio_src@@YAXPAUjpeg_decompress_struct@@PAVCBaseStream@@@Z 10038740 f   krnln_static:Jdatasrc.obj
 0001:00037870       ?jpeg_std_error@@YAPAUjpeg_error_mgr@@PAU1@@Z 10038870 f   krnln_static:JERROR.OBJ
 0001:000378f0       ??0CGotoPageDlg@@QAE@PAVCWnd@@@Z 100388f0 f   krnln_static:GotoPageDlg.obj
 0001:00037970       ??_ECGotoPageDlg@@UAEPAXI@Z 10038970 f i krnln_static:GotoPageDlg.obj
 0001:00037970       ??_GCGotoPageDlg@@UAEPAXI@Z 10038970 f i krnln_static:GotoPageDlg.obj
 0001:00037990       ?DoDataExchange@CGotoPageDlg@@MAEXPAVCDataExchange@@@Z 10038990 f   krnln_static:GotoPageDlg.obj
 0001:000379c0       ?GetMessageMap@CGotoPageDlg@@MBEPBUAFX_MSGMAP@@XZ 100389c0 f   krnln_static:GotoPageDlg.obj
 0001:000379d0       ?OnInitDialog@CGotoPageDlg@@MAEHXZ 100389d0 f   krnln_static:GotoPageDlg.obj
 0001:00037a20       ?OnOK@CGotoPageDlg@@MAEXXZ 10038a20 f   krnln_static:GotoPageDlg.obj
 0001:00037af0       ?jinit_input_controller@@YAXPAUjpeg_decompress_struct@@@Z 10038af0 f   krnln_static:JDINPUT.OBJ
 0001:00038080       ?jpeg_resync_to_restart@@YAHPAUjpeg_decompress_struct@@H@Z 10039080 f   krnln_static:JDMARKER.OBJ
 0001:00038270       ?jinit_marker_reader@@YAXPAUjpeg_decompress_struct@@@Z 10039270 f   krnln_static:JDMARKER.OBJ
 0001:00039740       ?jinit_memory_mgr@@YAXPAUjpeg_common_struct@@@Z 1003a740 f   krnln_static:JMEMMGR.OBJ
 0001:0003a2c0       ?jpeg_abort@@YAXPAUjpeg_common_struct@@@Z 1003b2c0 f   krnln_static:JCOMAPI.OBJ
 0001:0003a2f0       ?jpeg_destroy@@YAXPAUjpeg_common_struct@@@Z 1003b2f0 f   krnln_static:JCOMAPI.OBJ
 0001:0003a310       ?jpeg_alloc_quant_table@@YAPAUJQUANT_TBL@@PAUjpeg_common_struct@@@Z 1003b310 f   krnln_static:JCOMAPI.OBJ
 0001:0003a330       ?jpeg_alloc_huff_table@@YAPAUJHUFF_TBL@@PAUjpeg_common_struct@@@Z 1003b330 f   krnln_static:JCOMAPI.OBJ
 0001:0003a350       ?jpeg_calc_output_dimensions@@YAXPAUjpeg_decompress_struct@@@Z 1003b350 f   krnln_static:JDMASTER.OBJ
 0001:0003a600       ?jinit_master_decompress@@YAXPAUjpeg_decompress_struct@@@Z 1003b600 f   krnln_static:JDMASTER.OBJ
 0001:0003aa20       ?jdiv_round_up@@YAJJJ@Z    1003ba20 f   krnln_static:JUTILS.OBJ
 0001:0003aa30       ?jround_up@@YAJJJ@Z        1003ba30 f   krnln_static:JUTILS.OBJ
 0001:0003aa50       ?jcopy_sample_rows@@YAXPAPAEH0HHI@Z 1003ba50 f   krnln_static:JUTILS.OBJ
 0001:0003aaa0       ?jcopy_block_row@@YAXPAY0EA@F0I@Z 1003baa0 f   krnln_static:JUTILS.OBJ
 0001:0003aad0       ?jzero_far@@YAXPAXI@Z      1003bad0 f   krnln_static:JUTILS.OBJ
 0001:0003aaf0       ?jpeg_get_large@@YAPAXPAUjpeg_common_struct@@I@Z 1003baf0 f   krnln_static:JMEMNOBS.OBJ
 0001:0003aaf0       ?jpeg_get_small@@YAPAXPAUjpeg_common_struct@@I@Z 1003baf0 f   krnln_static:JMEMNOBS.OBJ
 0001:0003ab00       ?jpeg_free_small@@YAXPAUjpeg_common_struct@@PAXI@Z 1003bb00 f   krnln_static:JMEMNOBS.OBJ
 0001:0003ab00       ?jpeg_free_large@@YAXPAUjpeg_common_struct@@PAXI@Z 1003bb00 f   krnln_static:JMEMNOBS.OBJ
 0001:0003ab00       dp1__zcfree                1003bb00 f   krnln_static:JMEMNOBS.OBJ
 0001:0003ab10       ?jpeg_mem_available@@YAJPAUjpeg_common_struct@@JJJ@Z 1003bb10 f   krnln_static:JMEMNOBS.OBJ
 0001:0003ab20       ?jpeg_open_backing_store@@YAXPAUjpeg_common_struct@@PAUbacking_store_struct@@J@Z 1003bb20 f   krnln_static:JMEMNOBS.OBJ
 0001:0003ab30       ?jpeg_mem_init@@YAJPAUjpeg_common_struct@@@Z 1003bb30 f   krnln_static:JMEMNOBS.OBJ
 0001:0003ab40       ?MRemoveCustomForm@CUPrinter@@QAEXXZ 1003bb40 f   krnln_static:JMEMNOBS.OBJ
 0001:0003ab40       ?OnOK@CMPrintStatusDlg@@MAEXXZ 1003bb40 f   krnln_static:JMEMNOBS.OBJ
 0001:0003ab40       ?OnMidiOutOpen@CMIDI@@MAEXXZ 1003bb40 f   krnln_static:JMEMNOBS.OBJ
 0001:0003ab40       ?jpeg_mem_term@@YAXPAUjpeg_common_struct@@@Z 1003bb40 f   krnln_static:JMEMNOBS.OBJ
 0001:0003ab50       ?jinit_d_main_controller@@YAXPAUjpeg_decompress_struct@@H@Z 1003bb50 f   krnln_static:JDMAINCT.OBJ
 0001:0003b240       ?jinit_d_coef_controller@@YAXPAUjpeg_decompress_struct@@H@Z 1003c240 f   krnln_static:Jdcoefct.obj
 0001:0003c200       ?jpeg_make_d_derived_tbl@@YAXPAUjpeg_decompress_struct@@PAUJHUFF_TBL@@PAPAUd_derived_tbl@@@Z 1003d200 f   krnln_static:JDHUFF.OBJ
 0001:0003c3f0       ?jpeg_fill_bit_buffer@@YAHPAUbitread_working_state@@HHH@Z 1003d3f0 f   krnln_static:JDHUFF.OBJ
 0001:0003c4e0       ?jpeg_huff_decode@@YAHPAUbitread_working_state@@HHPAUd_derived_tbl@@H@Z 1003d4e0 f   krnln_static:JDHUFF.OBJ
 0001:0003c5d0       ?jinit_huff_decoder@@YAXPAUjpeg_decompress_struct@@@Z 1003d5d0 f   krnln_static:JDHUFF.OBJ
 0001:0003cc00       ?jinit_phuff_decoder@@YAXPAUjpeg_decompress_struct@@@Z 1003dc00 f   krnln_static:JDPHUFF.OBJ
 0001:0003d9a0       ?jinit_inverse_dct@@YAXPAUjpeg_decompress_struct@@@Z 1003e9a0 f   krnln_static:JDDCTMGR.OBJ
 0001:0003dc30       ?jinit_d_post_controller@@YAXPAUjpeg_decompress_struct@@H@Z 1003ec30 f   krnln_static:JDPOSTCT.OBJ
 0001:0003df80       ?jinit_upsampler@@YAXPAUjpeg_decompress_struct@@@Z 1003ef80 f   krnln_static:JDSAMPLE.OBJ
 0001:0003e6f0       ?jinit_color_deconverter@@YAXPAUjpeg_decompress_struct@@@Z 1003f6f0 f   krnln_static:Jdcolor.obj
 0001:0003ecb0       ?jinit_merged_upsampler@@YAXPAUjpeg_decompress_struct@@@Z 1003fcb0 f   krnln_static:JDMERGE.OBJ
 0001:0003f2a0       ?jinit_2pass_quantizer@@YAXPAUjpeg_decompress_struct@@@Z 100402a0 f   krnln_static:JQUANT2.OBJ
 0001:00040680       ?jinit_1pass_quantizer@@YAXPAUjpeg_decompress_struct@@@Z 10041680 f   krnln_static:JQUANT1.OBJ
 0001:00041260       ?jpeg_idct_islow@@YAXPAUjpeg_decompress_struct@@PAUjpeg_component_info@@PAFPAPAEI@Z 10042260 f   krnln_static:JIDCTINT.OBJ
 0001:000418c0       ?jpeg_idct_ifast@@YAXPAUjpeg_decompress_struct@@PAUjpeg_component_info@@PAFPAPAEI@Z 100428c0 f   krnln_static:JIDCTFST.OBJ
 0001:00041d70       ?jpeg_idct_float@@YAXPAUjpeg_decompress_struct@@PAUjpeg_component_info@@PAFPAPAEI@Z 10042d70 f   krnln_static:JIDCTFLT.OBJ
 0001:000421d0       ?jpeg_idct_4x4@@YAXPAUjpeg_decompress_struct@@PAUjpeg_component_info@@PAFPAPAEI@Z 100431d0 f   krnln_static:JIDCTRED.OBJ
 0001:000425d0       ?jpeg_idct_2x2@@YAXPAUjpeg_decompress_struct@@PAUjpeg_component_info@@PAFPAPAEI@Z 100435d0 f   krnln_static:JIDCTRED.OBJ
 0001:000427f0       ?jpeg_idct_1x1@@YAXPAUjpeg_decompress_struct@@PAUjpeg_component_info@@PAFPAPAEI@Z 100437f0 f   krnln_static:JIDCTRED.OBJ
 0001:00042830       dp1_static?CloneBinData@@YAPAEPAEH@Z 10043830 f   dp1_static:dp1.obj
 0001:00042880       _dp1_fnCompress            10043880 f   dp1_static:dp1.obj
 0001:00042920       _dp1_fnUncompress          10043920 f   dp1_static:dp1.obj
 0001:000429a0       dp1_static?ProcessNotifyLib@@YGHHKK@Z 100439a0 f   dp1_static:dp1.obj
 0001:000429c0       dp1_static?NotifySys@@YGHHKK@Z 100439c0 f   dp1_static:dp1.obj
 0001:00042a00       _dp1_ProcessNotifyLib@12   10043a00 f   dp1_static:dp1.obj
 0001:00042a20       dp1__compress2             10043a20 f   dp1_static:compress.obj
 0001:00042ad0       dp1__compress              10043ad0 f   dp1_static:compress.obj
 0001:00042af0       dp1__uncompress            10043af0 f   dp1_static:uncompr.obj
 0001:00042b90       dp1__deflateInit_          10043b90 f   dp1_static:deflate.obj
 0001:00042bc0       dp1__deflateInit2_         10043bc0 f   dp1_static:deflate.obj
 0001:00042dc0       dp1__deflateReset          10043dc0 f   dp1_static:deflate.obj
 0001:00042e40       dp1__deflate               10043e40 f   dp1_static:deflate.obj
 0001:000431a0       dp1__deflateEnd            100441a0 f   dp1_static:deflate.obj
 0001:00043ed0       dp1__inflateReset          10044ed0 f   dp1_static:inflate.obj
 0001:00043f20       dp1__inflateEnd            10044f20 f   dp1_static:inflate.obj
 0001:00043f70       dp1__inflateInit2_         10044f70 f   dp1_static:inflate.obj
 0001:00044080       dp1__inflateInit_          10045080 f   dp1_static:inflate.obj
 0001:000440a0       dp1__inflate               100450a0 f   dp1_static:inflate.obj
 0001:000444d0       dp1__zcalloc               100454d0 f   dp1_static:zutil.obj
 0001:000444f0       dp1__adler32               100454f0 f   dp1_static:adler32.obj
 0001:00044620       dp1___tr_init              10045620 f   dp1_static:trees.obj
 0001:00044700       dp1___tr_stored_block      10045700 f   dp1_static:trees.obj
 0001:000447a0       dp1___tr_align             100457a0 f   dp1_static:trees.obj
 0001:00044a00       dp1___tr_flush_block       10045a00 f   dp1_static:trees.obj
 0001:000461a0       dp1__inflate_blocks_reset  100471a0 f   dp1_static:infblock.obj
 0001:00046220       dp1__inflate_blocks_new    10047220 f   dp1_static:infblock.obj
 0001:000462c0       dp1__inflate_blocks        100472c0 f   dp1_static:infblock.obj
 0001:00046fc0       dp1__inflate_blocks_free   10047fc0 f   dp1_static:infblock.obj
 0001:00047000       dp1__inflate_codes_new     10048000 f   dp1_static:infcodes.obj
 0001:00047040       dp1__inflate_codes         10048040 f   dp1_static:infcodes.obj
 0001:000477f0       dp1__inflate_codes_free    100487f0 f   dp1_static:infcodes.obj
 0001:00047810       dp1__inflate_trees_bits    10048810 f   dp1_static:inftrees.obj
 0001:00047d90       dp1__inflate_trees_dynamic 10048d90 f   dp1_static:inftrees.obj
 0001:00047f20       dp1__inflate_trees_fixed   10048f20 f   dp1_static:inftrees.obj
 0001:00047f50       dp1__inflate_flush         10048f50 f   dp1_static:infutil.obj
 0001:00048090       dp1__inflate_fast          10049090 f   dp1_static:inffast.obj
 0001:00048420       _spec_ProcessNotifyLib@12  10049420 f   spec_static:spec.obj
 0001:00048440       _spec_fn_Global_AllocMem   10049440 f   spec_static:spec.obj
 0001:000484a0       _spec_fn_Global_FreeMem    100494a0 f   spec_static:spec.obj
 0001:000484c0       spec__ProcessNotifyLib@12  100494c0 f   spec_static:fnshare.obj
 0001:000484f0       spec__NotifySys@12         100494f0 f   spec_static:fnshare.obj
 0001:00048530       _ClosePrinter@4            10049530 f   winspool:WINSPOOL.DRV
 0001:00048536       _DocumentPropertiesA@24    10049536 f   winspool:WINSPOOL.DRV
 0001:0004853c       _OpenPrinterA@12           1004953c f   winspool:WINSPOOL.DRV
 0001:00048542       _DllMain@12                10049542 f   nafxcw:dllmodul.obj
 0001:0004860b       ?AfxTermDllState@@YAXXZ    1004960b f   nafxcw:dllmodul.obj
 0001:00048639       ?_AfxOleDateFromTm@@YGHGGGGGGAAN@Z 10049639 f   nafxcw:olevar.obj
 0001:00048776       ?_AfxTmFromOleDate@@YGHNAAUtm@@@Z 10049776 f   nafxcw:olevar.obj
 0001:00048951       ??6CArchive@@QAEAAV0@E@Z   10049951 f i nafxcw:olevar.obj
 0001:00048974       ??6CArchive@@QAEAAV0@G@Z   10049974 f i nafxcw:olevar.obj
 0001:0004899b       ?_AfxDoubleFromDate@@YGNN@Z 1004999b f   nafxcw:olevar.obj
 0001:000489c1       ?GetTickCount@COleDateTime@@SG?AV1@XZ 100499c1 f   nafxcw:olevar.obj
 0001:000489e3       ?GetAsSystemTime@COleDateTime@@QBEHAAU_SYSTEMTIME@@@Z 100499e3 f   nafxcw:olevar.obj
 0001:00048a4d       ??5CArchive@@QAEAAV0@AAK@Z 10049a4d f i nafxcw:olevar.obj
 0001:00048a7f       ?GetYear@COleDateTime@@QBEHXZ 10049a7f f   nafxcw:olevar.obj
 0001:00048aa9       ?GetMonth@COleDateTime@@QBEHXZ 10049aa9 f   nafxcw:olevar.obj
 0001:00048ad3       ?GetDay@COleDateTime@@QBEHXZ 10049ad3 f   nafxcw:olevar.obj
 0001:00048afd       ?GetHour@COleDateTime@@QBEHXZ 10049afd f   nafxcw:olevar.obj
 0001:00048b27       ?GetMinute@COleDateTime@@QBEHXZ 10049b27 f   nafxcw:olevar.obj
 0001:00048b51       ?GetSecond@COleDateTime@@QBEHXZ 10049b51 f   nafxcw:olevar.obj
 0001:00048b7b       ??4COleDateTime@@QAEABV0@N@Z 10049b7b f   nafxcw:olevar.obj
 0001:00048b8a       ??4COleDateTime@@QAEABV0@ABJ@Z 10049b8a f   nafxcw:olevar.obj
 0001:00048bdb       ??MCOleDateTime@@QBEHABV0@@Z 10049bdb f   nafxcw:olevar.obj
 0001:00048c11       ??OCOleDateTime@@QBEHABV0@@Z 10049c11 f   nafxcw:olevar.obj
 0001:00048c47       ?SetDateTime@COleDateTime@@QAEHHHHHHH@Z 10049c47 f   nafxcw:olevar.obj
 0001:00048c72       ??0CMemoryException@@QAE@HI@Z 10049c72 f i nafxcw:except.obj
 0001:00048c9c       ??_GCMemoryException@@UAEPAXI@Z 10049c9c f i nafxcw:except.obj
 0001:00048c9c       ??_ECMemoryException@@UAEPAXI@Z 10049c9c f i nafxcw:except.obj
 0001:00048cb8       ??1CMemoryException@@UAE@XZ 10049cb8 f i nafxcw:except.obj
 0001:00048cbf       ??0CNotSupportedException@@QAE@HI@Z 10049cbf f i nafxcw:except.obj
 0001:00048ce9       ??_ECNotSupportedException@@UAEPAXI@Z 10049ce9 f i nafxcw:except.obj
 0001:00048ce9       ??_GCNotSupportedException@@UAEPAXI@Z 10049ce9 f i nafxcw:except.obj
 0001:00048d05       ??1CNotSupportedException@@UAE@XZ 10049d05 f i nafxcw:except.obj
 0001:00048d0c       ??0CResourceException@@QAE@HI@Z 10049d0c f i nafxcw:wingdi.obj
 0001:00048d36       ??_GCResourceException@@UAEPAXI@Z 10049d36 f i nafxcw:wingdi.obj
 0001:00048d36       ??_ECResourceException@@UAEPAXI@Z 10049d36 f i nafxcw:wingdi.obj
 0001:00048d52       ??1CResourceException@@UAE@XZ 10049d52 f i nafxcw:wingdi.obj
 0001:00048d59       ??0CUserException@@QAE@HI@Z 10049d59 f i nafxcw:wingdi.obj
 0001:00048d83       ??_GCUserException@@UAEPAXI@Z 10049d83 f i nafxcw:wingdi.obj
 0001:00048d83       ??_ECUserException@@UAEPAXI@Z 10049d83 f i nafxcw:wingdi.obj
 0001:00048d9f       ??1CUserException@@UAE@XZ  10049d9f f i nafxcw:wingdi.obj
 0001:00048da6       ?PtVisible@CDC@@UBEHHH@Z   10049da6 f i nafxcw:wingdi.obj
 0001:00048dba       ?RectVisible@CDC@@UBEHPBUtagRECT@@@Z 10049dba f i nafxcw:wingdi.obj
 0001:00048dca       ?TextOutA@CDC@@UAEHHHPBDH@Z 10049dca f i nafxcw:wingdi.obj
 0001:00048de6       ?ExtTextOutA@CDC@@UAEHHHIPBUtagRECT@@PBDIPAH@Z 10049de6 f i nafxcw:wingdi.obj
 0001:00048e0b       ?TabbedTextOutA@CDC@@UAE?AVCSize@@HHPBDHHPAHH@Z 10049e0b f i nafxcw:wingdi.obj
 0001:00048e43       ?DrawTextA@CDC@@UAEHPBDHPAUtagRECT@@I@Z 10049e43 f i nafxcw:wingdi.obj
 0001:00048e5f       ?GrayStringA@CDC@@UAEHPAVCBrush@@P6GHPAUHDC__@@JH@ZJHHHHH@Z 10049e5f f i nafxcw:wingdi.obj
 0001:00048e8f       ?Escape@CDC@@UAEHHHPBDPAX@Z 10049e8f f i nafxcw:wingdi.obj
 0001:00048eab       ?AfxGetMainWnd@@YGPAVCWnd@@XZ 10049eab f i nafxcw:dlgcore.obj
 0001:00048ebf       ??_9@$BME@AE               10049ebf f i nafxcw:dlgcore.obj
 0001:00048ec7       ??_9@$BMI@AE               10049ec7 f i nafxcw:dlgcore.obj
 0001:00048ecf       _InitMultipleMonitorStubs  10049ecf f   nafxcw:wincore.obj
 0001:00048fa7       _xMonitorFromRect@8        10049fa7 f   nafxcw:wincore.obj
 0001:00048ffd       _xMonitorFromWindow@8      10049ffd f   nafxcw:wincore.obj
 0001:00049068       _xGetMonitorInfo@8         1004a068 f   nafxcw:wincore.obj
 0001:000490fb       ?GetOwner@CWnd@@QBEPAV1@XZ 1004a0fb f i nafxcw:wincore.obj
 0001:00049112       ??1CWaitCursor@@QAE@XZ     1004a112 f i nafxcw:wincore.obj
 0001:0004911f       ??1CNoTrackObject@@UAE@XZ  1004a11f f i nafxcw:winctrl3.obj
 0001:00049120       ?LoadBitmapA@CBitmap@@QAEHI@Z 1004a120 f i nafxcw:winctrl3.obj
 0001:00049144       ?GetFont@CWnd@@QBEPAVCFont@@XZ 1004a144 f i nafxcw:winctrl3.obj
 0001:0004915a       ??_GCArchiveException@@UAEPAXI@Z 1004a15a f i nafxcw:arcex.obj
 0001:0004915a       ??_ECArchiveException@@UAEPAXI@Z 1004a15a f i nafxcw:arcex.obj
 0001:00049176       ??1CArchiveException@@UAE@XZ 1004a176 f i nafxcw:arcex.obj
 0001:000491a2       ?SetTime@CDateTimeCtrl@@QAEHABVCOleDateTime@@@Z 1004a1a2 f   nafxcw:winctrl5.obj
 0001:000491e0       ??_GCMenu@@UAEPAXI@Z       1004a1e0 f i nafxcw:winmenu.obj
 0001:000491e0       ??_ECMenu@@UAEPAXI@Z       1004a1e0 f i nafxcw:winmenu.obj
 0001:000491fc       ??1CMenu@@UAE@XZ           1004a1fc f i nafxcw:winmenu.obj
 0001:00049225       ??_ECHandleMap@@UAEPAXI@Z  1004a225 f i nafxcw:winhand.obj
 0001:00049225       ??_GCHandleMap@@UAEPAXI@Z  1004a225 f i nafxcw:winhand.obj
 0001:00049241       ??1CHandleMap@@UAE@XZ      1004a241 f i nafxcw:winhand.obj
 0001:00049289       ??0CFixedAlloc@@QAE@II@Z   1004a289 f   nafxcw:fixalloc.obj
 0001:000492b1       ??1CFixedAlloc@@QAE@XZ     1004a2b1 f   nafxcw:fixalloc.obj
 0001:000492c5       ?FreeAll@CFixedAlloc@@QAEXXZ 1004a2c5 f   nafxcw:fixalloc.obj
 0001:000492ed       ?Alloc@CFixedAlloc@@QAEPAXXZ 1004a2ed f   nafxcw:fixalloc.obj
 0001:0004937c       ?Free@CFixedAlloc@@QAEXPAX@Z 1004a37c f   nafxcw:fixalloc.obj
 0001:000493a8       __CRT_INIT@12              1004a3a8 f   libcmt:dllcrt0.obj
 0001:00049481       __DllMainCRTStartup@12     1004a481 f   libcmt:dllcrt0.obj
 0001:0004951e       __amsg_exit                1004a51e f   libcmt:dllcrt0.obj
 0001:00049551       __fpmath                   1004a551 f   libcmt:fpinit.obj
 0001:00049568       __fpclear                  1004a568 f   libcmt:fpinit.obj
 0001:00049569       __cfltcvt_init             1004a569 f   libcmt:fpinit.obj
 0001:000495b0       __CIpow                    1004a5b0 f   libcmt:pow.obj
 0001:000495c9       _pow                       1004a5c9 f   libcmt:pow.obj
 0001:000497cd       _modf                      1004a7cd f   libcmt:modf.obj
 0001:000498f0       _fmod                      1004a8f0 f   libcmt:87fmod.obj
 0001:000498fa       __CIfmod                   1004a8fa f   libcmt:87fmod.obj
 0001:00049930       _strncmp                   1004a930 f   libcmt:strncmp.obj
 0001:00049968       _floor                     1004a968 f   libcmt:floor.obj
 0001:00049a38       __ftol                     1004aa38 f   libcmt:ftol.obj
 0001:00049a5f       __copysign                 1004aa5f f   libcmt:ieeemisc.obj
 0001:00049a80       __fpclass                  1004aa80 f   libcmt:ieeemisc.obj
 0001:00049b12       _getenv                    1004ab12 f   libcmt:getenv.obj
 0001:00049b33       __getenv_lk                1004ab33 f   libcmt:getenv.obj
 0001:00049bb0       ?_JumpToContinuation@@YGXPAXPAUEHRegistrationNode@@@Z 1004abb0 f   libcmt:trnsctrl.obj
 0001:00049be4       ?_CallMemberFunction1@@YGXPAX00@Z 1004abe4 f   libcmt:trnsctrl.obj
 0001:00049be4       ?_CallMemberFunction0@@YGXPAX0@Z 1004abe4 f   libcmt:trnsctrl.obj
 0001:00049beb       ?_CallMemberFunction2@@YGXPAX00H@Z 1004abeb f   libcmt:trnsctrl.obj
 0001:00049bf2       ?_UnwindNestedFrames@@YGXPAUEHRegistrationNode@@PAUEHExceptionRecord@@@Z 1004abf2 f   libcmt:trnsctrl.obj
 0001:00049c41       ___CxxFrameHandler         1004ac41 f   libcmt:trnsctrl.obj
 0001:00049c77       ?_CallCatchBlock2@@YAPAXPAUEHRegistrationNode@@PBU_s_FuncInfo@@PAXHK@Z 1004ac77 f   libcmt:trnsctrl.obj
 0001:00049cf0       ?_CallSETranslator@@YAHPAUEHExceptionRecord@@PAUEHRegistrationNode@@PAX2PBU_s_FuncInfo@@H1@Z 1004acf0 f   libcmt:trnsctrl.obj
 0001:00049e1b       ?_GetRangeOfTrysToCheck@@YAPBU_s_TryBlockMapEntry@@PBU_s_FuncInfo@@HHPAI1@Z 1004ae1b f   libcmt:trnsctrl.obj
 0001:00049e98       __global_unwind2           1004ae98 f   libcmt:exsup.obj
 0001:00049eda       __local_unwind2            1004aeda f   libcmt:exsup.obj
 0001:00049f32       __NLG_Return2              1004af32 f   libcmt:exsup.obj
 0001:00049f42       __abnormal_termination     1004af42 f   libcmt:exsup.obj
 0001:00049f65       __NLG_Notify1              1004af65 f   libcmt:exsup.obj
 0001:00049f6e       __NLG_Notify               1004af6e f   libcmt:exsup.obj
 0001:00049f81       __NLG_Dispatch             1004af81 f   libcmt:exsup.obj
 0001:00049f86       _atof                      1004af86 f   libcmt:atof.obj
 0001:00049fdd       _atol                      1004afdd f   libcmt:atox.obj
 0001:0004a068       _atoi                      1004b068 f   libcmt:atox.obj
 0001:0004a073       __atoi64                   1004b073 f   libcmt:atox.obj
 0001:0004a12d       _isspace                   1004b12d f   libcmt:_ctype.obj
 0001:0004a160       __allmul                   1004b160 f   libcmt:llmul.obj
 0001:0004a194       __mbscmp                   1004b194 f   libcmt:mbscmp.obj
 0001:0004a243       __mbsicmp                  1004b243 f   libcmt:mbsicmp.obj
 0001:0004a3e0       __alldiv                   1004b3e0 f   libcmt:lldiv.obj
 0001:0004a490       __allrem                   1004b490 f   libcmt:llrem.obj
 0001:0004a550       _memmove                   1004b550 f   libcmt:memmove.obj
 0001:0004a885       __i64toa                   1004b885 f   libcmt:xtoa.obj
 0001:0004a940       __aullshr                  1004b940 f   libcmt:ullshr.obj
 0001:0004a95f       ??1type_info@@UAE@XZ       1004b95f f   libcmt:typinfo.obj
 0001:0004a988       ??_Gtype_info@@UAEPAXI@Z   1004b988 f i libcmt:typinfo.obj
 0001:0004a988       ??_Etype_info@@UAEPAXI@Z   1004b988 f i libcmt:typinfo.obj
 0001:0004a9b0       __chkstk                   1004b9b0 f   libcmt:chkstk.obj
 0001:0004a9b0       __alloca_probe             1004b9b0 f   libcmt:chkstk.obj
 0001:0004a9df       __mbsnbcmp                 1004b9df f   libcmt:mbsnbcmp.obj
 0001:0004aad0       _strncpy                   1004bad0 f   libcmt:strncpy.obj
 0001:0004abce       _free                      1004bbce f   libcmt:free.obj
 0001:0004acb7       _malloc                    1004bcb7 f   libcmt:malloc.obj
 0001:0004acc9       __nh_malloc                1004bcc9 f   libcmt:malloc.obj
 0001:0004acf5       __heap_alloc               1004bcf5 f   libcmt:malloc.obj
 0001:0004adf1       ___initstdio               1004bdf1 f   libcmt:_file.obj
 0001:0004ae99       ___endstdio                1004be99 f   libcmt:_file.obj
 0001:0004aead       __lock_file                1004bead f   libcmt:_file.obj
 0001:0004aedc       __lock_file2               1004bedc f   libcmt:_file.obj
 0001:0004aeff       __unlock_file              1004beff f   libcmt:_file.obj
 0001:0004af2e       __unlock_file2             1004bf2e f   libcmt:_file.obj
 0001:0004af51       __onexit                   1004bf51 f   libcmt:onexit.obj
 0001:0004afcf       _atexit                    1004bfcf f   libcmt:onexit.obj
 0001:0004afe1       ___onexitinit              1004bfe1 f   libcmt:onexit.obj
 0001:0004b010       _toupper                   1004c010 f   libcmt:toupper.obj
 0001:0004b07f       __toupper_lk               1004c07f f   libcmt:toupper.obj
 0001:0004b150       _strstr                    1004c150 f   libcmt:strstr.obj
 0001:0004b1d0       __mbsstr                   1004c1d0 f   libcmt:mbsstr.obj
 0001:0004b260       _strchr                    1004c260 f   libcmt:strchr.obj
 0001:0004b266       ___from_strstr_to_strchr   1004c266 f   libcmt:strchr.obj
 0001:0004b320       _strrchr                   1004c320 f   libcmt:strrchr.obj
 0001:0004b347       __mbsrchr                  1004c347 f   libcmt:mbsrchr.obj
 0001:0004b3b9       _ldiv                      1004c3b9 f   libcmt:ldiv.obj
 0001:0004b3de       _strtok                    1004c3de f   libcmt:strtok.obj
 0001:0004b490       _memchr                    1004c490 f   libcmt:memchr.obj
 0001:0004b538       __setjmp3                  1004c538 f   libcmt:setjmp3.obj
 0001:0004b5b4       _longjmp                   1004c5b4 f   libcmt:longjmp.obj
 0001:0004b62d       _sscanf                    1004c62d f   libcmt:sscanf.obj
 0001:0004b661       _calloc                    1004c661 f   libcmt:calloc.obj
 0001:0004b79e       _realloc                   1004c79e f   libcmt:realloc.obj
 0001:0004bacd       _fclose                    1004cacd f   libcmt:fclose.obj
 0001:0004bafe       __fclose_lk                1004cafe f   libcmt:fclose.obj
 0001:0004bb4a       _sprintf                   1004cb4a f   libcmt:sprintf.obj
 0001:0004bb9c       _tolower                   1004cb9c f   libcmt:tolower.obj
 0001:0004bc0b       __tolower_lk               1004cc0b f   libcmt:tolower.obj
 0001:0004bcd6       _vsprintf                  1004ccd6 f   libcmt:vsprintf.obj
 0001:0004bd30       _memcpy                    1004cd30 f   libcmt:memcpy.obj
 0001:0004c065       _wcslen                    1004d065 f   libcmt:wcslen.obj
 0001:0004c084       __EH_prolog                1004d084 f   libcmt:ehprolog.obj
 0001:0004c0a3       __mbschr                   1004d0a3 f   libcmt:mbschr.obj
 0001:0004c140       _memset                    1004d140 f   libcmt:memset.obj
 0001:0004c198       __mbsinc                   1004d198 f   libcmt:mbsinc.obj
 0001:0004c1af       __mbclen                   1004d1af f   libcmt:mbclen.obj
 0001:0004c1d0       _strlen                    1004d1d0 f   libcmt:strlen.obj
 0001:0004c24b       __ismbcdigit               1004d24b f   libcmt:ismbdgt.obj
 0001:0004c2e0       _memcmp                    1004d2e0 f   libcmt:memcmp.obj
 0001:0004c38c       __CxxThrowException@8      1004d38c f   libcmt:throw.obj
 0001:0004c3c6       _fabs                      1004d3c6 f   libcmt:fabs.obj
 0001:0004c47b       _ceil                      1004d47b f   libcmt:ceil.obj
 0001:0004c54a       _time                      1004d54a f   libcmt:time.obj
 0001:0004c626       _localtime                 1004d626 f   libcmt:localtim.obj
 0001:0004c786       _abs                       1004d786 f   libcmt:abs.obj
 0001:0004c791       __strdup                   1004d791 f   libcmt:strdup.obj
 0001:0004c7bc       __cinit                    1004d7bc f   libcmt:crt0dat.obj
 0001:0004c7e9       __exit                     1004d7e9 f   libcmt:crt0dat.obj
 0001:0004c7fa       __cexit                    1004d7fa f   libcmt:crt0dat.obj
 0001:0004c8ae       __lockexit                 1004d8ae f   libcmt:crt0dat.obj
 0001:0004c8b7       __unlockexit               1004d8b7 f   libcmt:crt0dat.obj
 0001:0004c8da       _strtol                    1004d8da f   libcmt:strtol.obj
 0001:0004caf6       __expand                   1004daf6 f   libcmt:expand.obj
 0001:0004cc5a       __msize                    1004dc5a f   libcmt:msize.obj
 0001:0004cd48       __dosmaperr                1004dd48 f   libcmt:dosmap.obj
 0001:0004cdbb       __errno                    1004ddbb f   libcmt:dosmap.obj
 0001:0004cdc4       ___doserrno                1004ddc4 f   libcmt:dosmap.obj
 0001:0004cdcd       _mktime                    1004ddcd f   libcmt:mktime.obj
 0001:0004cfbf       _gmtime                    1004dfbf f   libcmt:gmtime.obj
 0001:0004d0c9       __setmbcp                  1004e0c9 f   libcmt:mbctype.obj
 0001:0004d4a1       ___initmbctable            1004e4a1 f   libcmt:mbctype.obj
 0001:0004d4bd       __mtinit                   1004e4bd f   libcmt:tidtable.obj
 0001:0004d511       __mtterm                   1004e511 f   libcmt:tidtable.obj
 0001:0004d52f       __initptd                  1004e52f f   libcmt:tidtable.obj
 0001:0004d542       __getptd                   1004e542 f   libcmt:tidtable.obj
 0001:0004d5a9       __freeptd                  1004e5a9 f   libcmt:tidtable.obj
 0001:0004d649       __ioinit                   1004e649 f   libcmt:ioinit.obj
 0001:0004d805       __ioterm                   1004e805 f   libcmt:ioinit.obj
 0001:0004d859       __setenvp                  1004e859 f   libcmt:stdenvp.obj
 0001:0004d912       __setargv                  1004e912 f   libcmt:stdargv.obj
 0001:0004db5f       ___crtGetEnvironmentStringsA 1004eb5f f   libcmt:a_env.obj
 0001:0004dc91       __GetLinkerVersion         1004ec91 f   libcmt:heapinit.obj
 0001:0004dcbe       ___heap_select             1004ecbe f   libcmt:heapinit.obj
 0001:0004de06       __heap_init                1004ee06 f   libcmt:heapinit.obj
 0001:0004de63       __heap_term                1004ee63 f   libcmt:heapinit.obj
 0001:0004df0b       __FF_MSGBANNER             1004ef0b f   libcmt:crt0msg.obj
 0001:0004df44       __NMSG_WRITE               1004ef44 f   libcmt:crt0msg.obj
 0001:0004e097       __setdefaultprecision      1004f097 f   libcmt:fp8.obj
 0001:0004e0a9       __ms_p5_test_fdiv          1004f0a9 f   libcmt:testfdiv.obj
 0001:0004e0e7       __ms_p5_mp_test_fdiv       1004f0e7 f   libcmt:testfdiv.obj
 0001:0004e110       __forcdecpt                1004f110 f   libcmt:cvt.obj
 0001:0004e16a       __cropzeros                1004f16a f   libcmt:cvt.obj
 0001:0004e1b8       __positive                 1004f1b8 f   libcmt:cvt.obj
 0001:0004e1d0       __fassign                  1004f1d0 f   libcmt:cvt.obj
 0001:0004e20e       __cftoe                    1004f20e f   libcmt:cvt.obj
 0001:0004e331       __cftof                    1004f331 f   libcmt:cvt.obj
 0001:0004e42d       __cftog                    1004f42d f   libcmt:cvt.obj
 0001:0004e4c0       __cfltcvt                  1004f4c0 f   libcmt:cvt.obj
 0001:0004e551       __fFEXP                    1004f551 f   libcmt:87tran.obj
 0001:0004e5b8       __rtinfpopse               1004f5b8 f   libcmt:87tran.obj
 0001:0004e5ba       __rtinfnpopse              1004f5ba f   libcmt:87tran.obj
 0001:0004e5ca       __fFLN                     1004f5ca f   libcmt:87tran.obj
 0001:0004e67f       __rtinfpop                 1004f67f f   libcmt:87tran.obj
 0001:0004e681       __rtinfnpop                1004f681 f   libcmt:87tran.obj
 0001:0004e69e       __ffexpm1                  1004f69e f   libcmt:87tran.obj
 0001:0004e750       __trandisp1                1004f750 f   libcmt:87disp.obj
 0001:0004e7b7       __trandisp2                1004f7b7 f   libcmt:87disp.obj
 0001:0004e843       __rttospopde               1004f843 f   libcmt:87disp.obj
 0001:0004e848       __rttospop                 1004f848 f   libcmt:87disp.obj
 0001:0004e84a       __rtnospop                 1004f84a f   libcmt:87disp.obj
 0001:0004e84c       __rttosnpop                1004f84c f   libcmt:87disp.obj
 0001:0004e84d       __rtnospopde               1004f84d f   libcmt:87disp.obj
 0001:0004e854       __rtzeropop                1004f854 f   libcmt:87disp.obj
 0001:0004e856       __rtzeronpop               1004f856 f   libcmt:87disp.obj
 0001:0004e85b       __rtonepop                 1004f85b f   libcmt:87disp.obj
 0001:0004e85d       __rtonenpop                1004f85d f   libcmt:87disp.obj
 0001:0004e862       __tosnan1                  1004f862 f   libcmt:87disp.obj
 0001:0004e88d       __nosnan2                  1004f88d f   libcmt:87disp.obj
 0001:0004e88f       __tosnan2                  1004f88f f   libcmt:87disp.obj
 0001:0004e8b7       __nan2                     1004f8b7 f   libcmt:87disp.obj
 0001:0004e8f6       __rtindfpop                1004f8f6 f   libcmt:87disp.obj
 0001:0004e8f8       __rtindfnpop               1004f8f8 f   libcmt:87disp.obj
 0001:0004e909       __rttosnpopde              1004f909 f   libcmt:87disp.obj
 0001:0004e913       __rtchsifneg               1004f913 f   libcmt:87disp.obj
 0001:0004e920       __startTwoArgErrorHandling 1004f920 f   libcmt:genexcep.obj
 0001:0004e937       __startOneArgErrorHandling 1004f937 f   libcmt:genexcep.obj
 0001:0004e980       __twoToTOS                 1004f980 f   libcmt:common.obj
 0001:0004e995       __load_CW                  1004f995 f   libcmt:common.obj
 0001:0004e9ac       __convertTOStoQNaN         1004f9ac f   libcmt:common.obj
 0001:0004e9c5       __fload_withFB             1004f9c5 f   libcmt:common.obj
 0001:0004ea08       __checkTOS_withFB          1004fa08 f   libcmt:common.obj
 0001:0004ea1e       __fast_exit                1004fa1e f   libcmt:common.obj
 0001:0004ea2b       __math_exit                1004fa2b f   libcmt:common.obj
 0001:0004ea55       __check_overflow_exit      1004fa55 f   libcmt:common.obj
 0001:0004ea69       __check_range_exit         1004fa69 f   libcmt:common.obj
 0001:0004eb0c       __powhlp                   1004fb0c f   libcmt:powhlp.obj
 0001:0004ec3c       __d_inttype                1004fc3c f   libcmt:powhlp.obj
 0001:0004eca1       __frnd                     1004fca1 f   libcmt:frnd.obj
 0001:0004ecb3       __handle_qnan1             1004fcb3 f   libcmt:fpexcept.obj
 0001:0004ed07       __except1                  1004fd07 f   libcmt:fpexcept.obj
 0001:0004ed9f       __raise_exc                1004fd9f f   libcmt:fpexcept.obj
 0001:0004f052       __handle_exc               10050052 f   libcmt:fpexcept.obj
 0001:0004f269       __umatherr                 10050269 f   libcmt:fpexcept.obj
 0001:0004f2f1       __set_errno                100502f1 f   libcmt:fpexcept.obj
 0001:0004f33e       __errcode                  1005033e f   libcmt:fpexcept.obj
 0001:0004f36b       __set_exp                  1005036b f   libcmt:util.obj
 0001:0004f394       __sptype                   10050394 f   libcmt:util.obj
 0001:0004f3ee       __decomp                   100503ee f   libcmt:util.obj
 0001:0004f4af       __statfp                   100504af f   libcmt:fpctrl.obj
 0001:0004f4bd       __clrfp                    100504bd f   libcmt:fpctrl.obj
 0001:0004f4cc       __ctrlfp                   100504cc f   libcmt:fpctrl.obj
 0001:0004f4ef       __set_statfp               100504ef f   libcmt:fpctrl.obj
 0001:0004f550       __cintrindisp2             10050550 f   libcmt:87cdisp.obj
 0001:0004f58e       __cintrindisp1             1005058e f   libcmt:87cdisp.obj
 0001:0004f5cb       __ctrandisp2               100505cb f   libcmt:87cdisp.obj
 0001:0004f74b       __ctrandisp1               1005074b f   libcmt:87cdisp.obj
 0001:0004f77e       __fload                    1005077e f   libcmt:87cdisp.obj
 0001:0004f7c0       _fdiv_main_routine         100507c0 f   libcmt:adj_fdiv.obj
 0001:0004f8d7       __adj_fdiv_r               100508d7 f   libcmt:adj_fdiv.obj
 0001:0004fd76       __fdivp_sti_st             10050d76 f   libcmt:adj_fdiv.obj
 0001:0004fd89       __fdivrp_sti_st            10050d89 f   libcmt:adj_fdiv.obj
 0001:0004fd9c       __adj_fdiv_m32             10050d9c f   libcmt:adj_fdiv.obj
 0001:0004fde8       __adj_fdiv_m64             10050de8 f   libcmt:adj_fdiv.obj
 0001:0004fe34       __adj_fdiv_m16i            10050e34 f   libcmt:adj_fdiv.obj
 0001:0004fe68       __adj_fdiv_m32i            10050e68 f   libcmt:adj_fdiv.obj
 0001:0004fe9c       __adj_fdivr_m32            10050e9c f   libcmt:adj_fdiv.obj
 0001:0004fee8       __adj_fdivr_m64            10050ee8 f   libcmt:adj_fdiv.obj
 0001:0004ff34       __adj_fdivr_m16i           10050f34 f   libcmt:adj_fdiv.obj
 0001:0004ff68       __adj_fdivr_m32i           10050f68 f   libcmt:adj_fdiv.obj
 0001:0004ff9c       __safe_fdiv                10050f9c f   libcmt:adj_fdiv.obj
 0001:0004ffb1       __safe_fdivr               10050fb1 f   libcmt:adj_fdiv.obj
 0001:0004ffc6       __fprem_common             10050fc6 f   libcmt:adj_fdiv.obj
 0001:000501cc       __adj_fprem                100511cc f   libcmt:adj_fdiv.obj
 0001:0005027e       __fprem1_common            1005127e f   libcmt:adj_fdiv.obj
 0001:00050484       __adj_fprem1               10051484 f   libcmt:adj_fdiv.obj
 0001:00050539       __safe_fprem               10051539 f   libcmt:adj_fdiv.obj
 0001:0005053f       __safe_fprem1              1005153f f   libcmt:adj_fdiv.obj
 0001:00050545       __adj_fpatan               10051545 f   libcmt:adj_fdiv.obj
 0001:00050548       __adj_fptan                10051548 f   libcmt:adj_fdiv.obj
 0001:0005054b       __mtinitlocks              1005154b f   libcmt:mlock.obj
 0001:00050574       __mtdeletelocks            10051574 f   libcmt:mlock.obj
 0001:000505e0       __lock                     100515e0 f   libcmt:mlock.obj
 0001:00050641       __unlock                   10051641 f   libcmt:mlock.obj
 0001:00050656       __mbsnbicoll               10051656 f   libcmt:mbsnbico.obj
 0001:00050695       ___wtomb_environ           10051695 f   libcmt:wtombenv.obj
 0001:00050703       ___crtsetenv               10051703 f   libcmt:setenv.obj
 0001:00050950       _strcpy                    10051950 f   libcmt:strcat.obj
 0001:00050960       _strcat                    10051960 f   libcmt:strcat.obj
 0001:00050a40       ___InternalCxxFrameHandler 10051a40 f   libcmt:frame.obj
 0001:00050d95       ___FrameUnwindToState      10051d95 f   libcmt:frame.obj
 0001:000511cd       ?_DestructExceptionObject@@YAXPAUEHExceptionRecord@@E@Z 100521cd f   libcmt:frame.obj
 0001:00051260       __CallSettingFrame@12      10052260 f   libcmt:lowhelpr.obj
 0001:00051287       __NLG_Return               10052287 f   libcmt:lowhelpr.obj
 0001:000512ac       ?terminate@@YAXXZ          100522ac f   libcmt:hooks.obj
 0001:0005130d       ?_inconsistency@@YAXXZ     1005230d f   libcmt:hooks.obj
 0001:00051363       __fltin2                   10052363 f   libcmt:cfin.obj
 0001:000513e2       __isctype                  100523e2 f   libcmt:isctype.obj
 0001:00051460       _strcmp                    10052460 f   libcmt:strcmp.obj
 0001:000514e4       ___crtLCMapStringA         100524e4 f   libcmt:a_map.obj
 0001:00051740       __stricmp                  10052740 f   libcmt:stricmp.obj
 0001:00051740       _stricmp                   10052740 f   libcmt:stricmp.obj
 0001:00051740       __strcmpi                  10052740 f   libcmt:stricmp.obj
 0001:00051810       __aulldiv                  10052810 f   libcmt:ulldiv.obj
 0001:00051880       __aullrem                  10052880 f   libcmt:ullrem.obj
 0001:000518f5       ___sbh_heap_init           100528f5 f   libcmt:sbheap.obj
 0001:0005193d       ___sbh_find_block          1005293d f   libcmt:sbheap.obj
 0001:00051968       ___sbh_free_block          10052968 f   libcmt:sbheap.obj
 0001:00051c91       ___sbh_alloc_block         10052c91 f   libcmt:sbheap.obj
 0001:00051f9a       ___sbh_alloc_new_region    10052f9a f   libcmt:sbheap.obj
 0001:0005204b       ___sbh_alloc_new_group     1005304b f   libcmt:sbheap.obj
 0001:00052146       ___sbh_resize_block        10053146 f   libcmt:sbheap.obj
 0001:0005243c       ___old_sbh_new_region      1005343c f   libcmt:sbheap.obj
 0001:00052580       ___old_sbh_release_region  10053580 f   libcmt:sbheap.obj
 0001:000525d6       ___old_sbh_decommit_pages  100535d6 f   libcmt:sbheap.obj
 0001:00052698       ___old_sbh_find_block      10053698 f   libcmt:sbheap.obj
 0001:000526ef       ___old_sbh_free_block      100536ef f   libcmt:sbheap.obj
 0001:00052734       ___old_sbh_alloc_block     10053734 f   libcmt:sbheap.obj
 0001:0005293c       ___old_sbh_alloc_block_from_page 1005393c f   libcmt:sbheap.obj
 0001:00052a60       ___old_sbh_resize_block    10053a60 f   libcmt:sbheap.obj
 0001:00052b14       __except_handler3          10053b14 f   libcmt:exsup3.obj
 0001:00052bd1       __seh_longjmp_unwind@4     10053bd1 f   libcmt:exsup3.obj
 0001:00052bec       __callnewh                 10053bec f   libcmt:handler.obj
 0001:00052c07       __output                   10053c07 f   libcmt:output.obj
 0001:0005346e       __fcloseall                1005446e f   libcmt:closeall.obj
 0001:000534ef       __fflush_lk                100544ef f   libcmt:fflush.obj
 0001:0005351d       __flush                    1005451d f   libcmt:fflush.obj
 0001:00053579       __flushall                 10054579 f   libcmt:fflush.obj
 0001:00053626       __filbuf                   10054626 f   libcmt:_filbuf.obj
 0001:00053710       __strnicmp                 10054710 f   libcmt:strnicmp.obj
 0001:00053811       __rt_probe_read4@4         10054811 f   libcmt:sehsupp.obj
 0001:00053876       __input                    10054876 f   libcmt:input.obj
 0001:00054327       __close                    10055327 f   libcmt:close.obj
 0001:00054384       __close_lk                 10055384 f   libcmt:close.obj
 0001:00054407       __freebuf                  10055407 f   libcmt:_freebuf.obj
 0001:00054432       __read                     10055432 f   libcmt:read.obj
 0001:00054497       __read_lk                  10055497 f   libcmt:read.obj
 0001:00054670       __lseek                    10055670 f   libcmt:lseek.obj
 0001:000546d5       __lseek_lk                 100556d5 f   libcmt:lseek.obj
 0001:00054748       __flsbuf                   10055748 f   libcmt:_flsbuf.obj
 0001:00054860       __write                    10055860 f   libcmt:write.obj
 0001:000548c5       __write_lk                 100558c5 f   libcmt:write.obj
 0001:00054a50       _strpbrk                   10055a50 f   libcmt:strpbrk.obj
 0001:00054a90       __strrev                   10055a90 f   libcmt:strrev.obj
 0001:00054ac0       _strspn                    10055ac0 f   libcmt:strspn.obj
 0001:00054b00       _strcspn                   10055b00 f   libcmt:strcspn.obj
 0001:00054b3e       ___crtGetStringTypeA       10055b3e f   libcmt:a_str.obj
 0001:00054c87       ?__CxxUnhandledExceptionFilter@@YGJPAU_EXCEPTION_POINTERS@@@Z 10055c87 f   libcmt:unhandld.obj
 0001:00054ccd       ?__CxxSetUnhandledExceptionFilter@@YAXXZ 10055ccd f   libcmt:unhandld.obj
 0001:00054cde       ?__CxxRestoreUnhandledExceptionFilter@@YAXXZ 10055cde f   libcmt:unhandld.obj
 0001:00054ceb       ___loctotime_t             10055ceb f   libcmt:dtoxtime.obj
 0001:00054dad       ___tzset                   10055dad f   libcmt:tzset.obj
 0001:00055062       __isindst                  10056062 f   libcmt:tzset.obj
 0001:0005536f       ___crtMessageBoxA          1005636f f   libcmt:crtmbox.obj
 0001:000553f8       __control87                100563f8 f   libcmt:ieee87.obj
 0001:0005542d       __controlfp                1005642d f   libcmt:ieee87.obj
 0001:0005555e       __ZeroTail                 1005655e f   libcmt:intrncvt.obj
 0001:000555a7       __IncMan                   100565a7 f   libcmt:intrncvt.obj
 0001:000555fd       __RoundMan                 100565fd f   libcmt:intrncvt.obj
 0001:00055689       __CopyMan                  10056689 f   libcmt:intrncvt.obj
 0001:000556a4       __FillZeroMan              100566a4 f   libcmt:intrncvt.obj
 0001:000556b0       __IsZeroMan                100566b0 f   libcmt:intrncvt.obj
 0001:000556cb       __ShrMan                   100566cb f   libcmt:intrncvt.obj
 0001:00055758       __ld12cvt                  10056758 f   libcmt:intrncvt.obj
 0001:000558c4       __ld12tod                  100568c4 f   libcmt:intrncvt.obj
 0001:000558da       __ld12tof                  100568da f   libcmt:intrncvt.obj
 0001:000558f0       __atodbl                   100568f0 f   libcmt:intrncvt.obj
 0001:0005591d       __atoflt                   1005691d f   libcmt:intrncvt.obj
 0001:0005594a       __fptostr                  1005694a f   libcmt:_fptostr.obj
 0001:000559c1       __fltout2                  100569c1 f   libcmt:cfout.obj
 0001:00055a1d       ___dtold                   10056a1d f   libcmt:cfout.obj
 0001:00055ad3       __fptrap                   10056ad3 f   libcmt:crt0fp.obj
 0001:00055adc       __87except                 10056adc f   libcmt:87except.obj
 0001:00055bac       __matherr                  10056bac f   libcmt:matherr.obj
 0001:00055baf       ___crtCompareStringA       10056baf f   libcmt:a_cmp.obj
 0001:00055e2c       ?_ValidateRead@@YAHPBXI@Z  10056e2c f   libcmt:validate.obj
 0001:00055e48       ?_ValidateWrite@@YAHPAXI@Z 10056e48 f   libcmt:validate.obj
 0001:00055e64       ?_ValidateExecute@@YAHP6GHXZ@Z 10056e64 f   libcmt:validate.obj
 0001:00055e7c       _abort                     10056e7c f   libcmt:abort.obj
 0001:00055e93       ___strgtold12              10056e93 f   libcmt:strgtold.obj
 0001:00056364       __isatty                   10057364 f   libcmt:isatty.obj
 0001:0005638d       _wctomb                    1005738d f   libcmt:wctomb.obj
 0001:000563e6       __wctomb_lk                100573e6 f   libcmt:wctomb.obj
 0001:0005644f       __commit                   1005744f f   libcmt:commit.obj
 0001:000564e2       __getbuf                   100574e2 f   libcmt:_getbuf.obj
 0001:00056526       _mbtowc                    10057526 f   libcmt:mbtowc.obj
 0001:00056583       __mbtowc_lk                10057583 f   libcmt:mbtowc.obj
 0001:00056650       __allshl                   10057650 f   libcmt:llshl.obj
 0001:0005666f       __ungetc_lk                1005766f f   libcmt:ungetc.obj
 0001:000566dd       __free_osfhnd              100576dd f   libcmt:osfinfo.obj
 0001:0005675c       __get_osfhandle            1005775c f   libcmt:osfinfo.obj
 0001:0005679e       __lock_fhandle             1005779e f   libcmt:osfinfo.obj
 0001:000567fd       __unlock_fhandle           100577fd f   libcmt:osfinfo.obj
 0001:0005681f       _raise                     1005781f f   libcmt:winsig.obj
 0001:000569de       ___addl                    100579de f   libcmt:mantold.obj
 0001:000569ff       ___add_12                  100579ff f   libcmt:mantold.obj
 0001:00056a5d       ___shl_12                  10057a5d f   libcmt:mantold.obj
 0001:00056a8b       ___shr_12                  10057a8b f   libcmt:mantold.obj
 0001:00056ab8       ___mtold12                 10057ab8 f   libcmt:mantold.obj
 0001:00056b7f       _$I10_OUTPUT               10057b7f f   libcmt:x10fout.obj
 0001:00056e12       ___ld12mul                 10057e12 f   libcmt:tenpow.obj
 0001:00057032       ___multtenpow12            10058032 f   libcmt:tenpow.obj
 0001:000570b0       _RtlUnwind@16              100580b0 f   kernel32:KERNEL32.dll
 0001:000570b6       _GetFileTitleA@12          100580b6 f   comdlg32:comdlg32.dll
 0001:000570bc       _GetSaveFileNameA@4        100580bc f   comdlg32:comdlg32.dll
 0001:000570c2       _GetOpenFileNameA@4        100580c2 f   comdlg32:comdlg32.dll
 0001:000570c8       _ChooseColorA@4            100580c8 f   comdlg32:comdlg32.dll
 0001:000570d0       _memicmp                   100580d0 f   libcmt:memicmp.obj
 0001:000570d0       __memicmp                  100580d0 f   libcmt:memicmp.obj
 0001:000571c1       ___termcon                 100581c1 f   libcmt:initcon.obj
 0001:000571ee       ??0CString@@QAE@DH@Z       100581ee f   nafxcw:strex.obj
 0001:00057222       ??4CString@@QAEABV0@D@Z    10058222 f   nafxcw:strex.obj
 0001:00057237       ?Right@CString@@QBE?AV1@H@Z 10058237 f   nafxcw:strex.obj
 0001:000572b3       ?Left@CString@@QBE?AV1@H@Z 100582b3 f   nafxcw:strex.obj
 0001:0005732b       ?Find@CString@@QBEHPBD@Z   1005832b f   nafxcw:strex.obj
 0001:00057339       ?Find@CString@@QBEHPBDH@Z  10058339 f   nafxcw:strex.obj
 0001:00057364       ?FormatV@CString@@QAEXPBDPAD@Z 10058364 f   nafxcw:strex.obj
 0001:000576b1       ?Format@CString@@QAAXPBDZZ 100586b1 f   nafxcw:strex.obj
 0001:000576c4       ?InitString@CSimpleException@@QAEXXZ 100586c4 f   nafxcw:except.obj
 0001:000576ed       ?GetErrorMessage@CSimpleException@@UAEHPADIPAI@Z 100586ed f   nafxcw:except.obj
 0001:00057730       ?AfxThrowMemoryException@@YGXXZ 10058730 f   nafxcw:except.obj
 0001:00057749       ?AfxThrowNotSupportedException@@YGXXZ 10058749 f   nafxcw:except.obj
 0001:00057762       ??0CFileDialog@@QAE@HPBD0K0PAVCWnd@@@Z 10058762 f   nafxcw:dlgfile.obj
 0001:000578a8       ??_ECFileDialog@@UAEPAXI@Z 100588a8 f i nafxcw:dlgfile.obj
 0001:000578a8       ??_GCFileDialog@@UAEPAXI@Z 100588a8 f i nafxcw:dlgfile.obj
 0001:000578c4       ?DoModal@CFileDialog@@UAEHXZ 100588c4 f   nafxcw:dlgfile.obj
 0001:0005799f       ?GetPathName@CFileDialog@@QBE?AVCString@@XZ 1005899f f   nafxcw:dlgfile.obj
 0001:00057aaf       ?OnShareViolation@CFileDialog@@MAEIPBD@Z 10058aaf f   nafxcw:dlgfile.obj
 0001:00057ab4       ?OnColorOK@CColorDialog@@MAEHXZ 10058ab4 f   nafxcw:dlgfile.obj
 0001:00057ab4       ?OnFileNameOK@CFileDialog@@MAEHXZ 10058ab4 f   nafxcw:dlgfile.obj
 0001:00057ab7       ?OnLBSelChangedNotify@CFileDialog@@MAEXIII@Z 10058ab7 f   nafxcw:dlgfile.obj
 0001:00057aba       ?OnInitDone@CFileDialog@@MAEXXZ 10058aba f   nafxcw:dlgfile.obj
 0001:00057ad3       ?OnTypeChange@CFileDialog@@MAEXXZ 10058ad3 f   nafxcw:dlgfile.obj
 0001:00057ad3       ?OnFolderChange@CFileDialog@@MAEXXZ 10058ad3 f   nafxcw:dlgfile.obj
 0001:00057ad3       ?OnFileNameChange@CFileDialog@@MAEXXZ 10058ad3 f   nafxcw:dlgfile.obj
 0001:00057ad4       ?OnNotify@CFileDialog@@MAEHIJPAJ@Z 10058ad4 f   nafxcw:dlgfile.obj
 0001:00057bb2       ??0_AFX_COLOR_STATE@@QAE@XZ 10058bb2 f   nafxcw:dlgclr.obj
 0001:00057bcc       ??_G_AFX_COLOR_STATE@@UAEPAXI@Z 10058bcc f i nafxcw:dlgclr.obj
 0001:00057bcc       ??_E_AFX_COLOR_STATE@@UAEPAXI@Z 10058bcc f i nafxcw:dlgclr.obj
 0001:00057be7       ??1_AFX_COLOR_STATE@@UAE@XZ 10058be7 f i nafxcw:dlgclr.obj
 0001:00057be8       ?GetMessageMap@CColorDialog@@MBEPBUAFX_MSGMAP@@XZ 10058be8 f   nafxcw:dlgclr.obj
 0001:00057bee       ??0CColorDialog@@QAE@KKPAVCWnd@@@Z 10058bee f   nafxcw:dlgclr.obj
 0001:00057c7e       ??_ECColorDialog@@UAEPAXI@Z 10058c7e f i nafxcw:dlgclr.obj
 0001:00057c7e       ??_GCColorDialog@@UAEPAXI@Z 10058c7e f i nafxcw:dlgclr.obj
 0001:00057c9a       ?DoModal@CColorDialog@@UAEHXZ 10058c9a f   nafxcw:dlgclr.obj
 0001:00057cc6       ?GetSavedCustomColors@CColorDialog@@SGPAKXZ 10058cc6 f   nafxcw:dlgclr.obj
 0001:00057cd9       ?OnCtlColor@CColorDialog@@IAEPAUHBRUSH__@@PAVCDC@@PAVCWnd@@I@Z 10058cd9 f   nafxcw:dlgclr.obj
 0001:00057ce1       ?GetMessageMap@CCommonDialog@@MBEPBUAFX_MSGMAP@@XZ 10058ce1 f   nafxcw:dlgcomm.obj
 0001:00057ce7       ?_AfxCommDlgProc@@YGIPAUHWND__@@IIJ@Z 10058ce7 f   nafxcw:dlgcomm.obj
 0001:00057e7e       ?OnOK@CCommonDialog@@MAEXXZ 10058e7e f   nafxcw:dlgcomm.obj
 0001:00057e95       ?OnCancel@CCommonDialog@@MAEXXZ 10058e95 f   nafxcw:dlgcomm.obj
 0001:00057e9a       ?OnHelpInfo@CCommonDialog@@IAEHPAUtagHELPINFO@@@Z 10058e9a f   nafxcw:dlgcomm.obj
 0001:00057ea2       ??0CTime@@QAE@HHHHHHH@Z    10058ea2 f   nafxcw:timecore.obj
 0001:00057eee       ??0CTime@@QAE@ABU_SYSTEMTIME@@H@Z 10058eee f   nafxcw:timecore.obj
 0001:00057f3a       ??0CTime@@QAE@ABU_FILETIME@@H@Z 10058f3a f   nafxcw:timecore.obj
 0001:00057f86       ?GetItemText@CTreeCtrl@@QBE?AVCString@@PAU_TREEITEM@@@Z 10058f86 f   nafxcw:winctrl2.obj
 0001:00058026       ?GetItemImage@CTreeCtrl@@QBEHPAU_TREEITEM@@AAH1@Z 10059026 f   nafxcw:winctrl2.obj
 0001:00058065       ?GetItemState@CTreeCtrl@@QBEIPAU_TREEITEM@@I@Z 10059065 f   nafxcw:winctrl2.obj
 0001:0005809d       ?ItemHasChildren@CTreeCtrl@@QBEHPAU_TREEITEM@@@Z 1005909d f   nafxcw:winctrl2.obj
 0001:000580cb       ?SetItem@CTreeCtrl@@QAEHPAU_TREEITEM@@IPBDHHIIJ@Z 100590cb f   nafxcw:winctrl2.obj
 0001:00058119       ?RemoveImageList@CTreeCtrl@@IAEXH@Z 10059119 f   nafxcw:winctrl2.obj
 0001:00058152       ?OnDestroy@CTreeCtrl@@QAEXXZ 10059152 f   nafxcw:winctrl2.obj
 0001:0005816e       ?GetRange@CSpinButtonCtrl@@QBEXAAH0@Z 1005916e f   nafxcw:winctrl2.obj
 0001:0005819a       ??1CProgressCtrl@@UAE@XZ   1005919a f   nafxcw:winctrl2.obj
 0001:000581d2       ?OnDestroy@CTabCtrl@@IAEXXZ 100591d2 f   nafxcw:winctrl2.obj
 0001:0005820c       ?afxMapHIMAGELIST@@YGPAVCHandleMap@@H@Z 1005920c f   nafxcw:winctrl2.obj
 0001:0005827e       ??0CImageList@@QAE@XZ      1005927e f   nafxcw:winctrl2.obj
 0001:0005828b       ??_ECImageList@@UAEPAXI@Z  1005928b f i nafxcw:winctrl2.obj
 0001:0005828b       ??_GCImageList@@UAEPAXI@Z  1005928b f i nafxcw:winctrl2.obj
 0001:000582a7       ??1CImageList@@UAE@XZ      100592a7 f   nafxcw:winctrl2.obj
 0001:000582d0       ?Detach@CImageList@@QAEPAU_IMAGELIST@@XZ 100592d0 f   nafxcw:winctrl2.obj
 0001:000582fa       ?DeleteImageList@CImageList@@QAEHXZ 100592fa f   nafxcw:winctrl2.obj
 0001:00058310       ?FromHandlePermanent@CImageList@@SGPAV1@PAU_IMAGELIST@@@Z 10059310 f   nafxcw:winctrl2.obj
 0001:0005832e       ?GetMessageMap@CToolTipCtrl@@MBEPBUAFX_MSGMAP@@XZ 1005932e f   nafxcw:tooltip.obj
 0001:00058334       ??0CToolTipCtrl@@QAE@XZ    10059334 f   nafxcw:tooltip.obj
 0001:0005836d       ??_ECToolTipCtrl@@UAEPAXI@Z 1005936d f i nafxcw:tooltip.obj
 0001:0005836d       ??_GCToolTipCtrl@@UAEPAXI@Z 1005936d f i nafxcw:tooltip.obj
 0001:00058389       ?Create@CToolTipCtrl@@QAEHPAVCWnd@@K@Z 10059389 f   nafxcw:tooltip.obj
 0001:000583de       ??1CToolTipCtrl@@UAE@XZ    100593de f   nafxcw:tooltip.obj
 0001:00058425       ?DestroyToolTipCtrl@CToolTipCtrl@@UAEHXZ 10059425 f   nafxcw:tooltip.obj
 0001:0005843f       ?OnAddTool@CToolTipCtrl@@IAEJIJ@Z 1005943f f   nafxcw:tooltip.obj
 0001:000584b3       ?OnDisableModal@CToolTipCtrl@@IAEJIJ@Z 100594b3 f   nafxcw:tooltip.obj
 0001:000584ca       ?OnEnable@CToolTipCtrl@@IAEXH@Z 100594ca f   nafxcw:tooltip.obj
 0001:000584e1       ?OnWindowFromPoint@CToolTipCtrl@@IAEJIJ@Z 100594e1 f   nafxcw:tooltip.obj
 0001:00058554       ?AddTool@CToolTipCtrl@@QAEHPAVCWnd@@PBDPBUtagRECT@@I@Z 10059554 f   nafxcw:tooltip.obj
 0001:000585a2       ?FillInToolInfo@CToolTipCtrl@@QBEXAAUtagTOOLINFOA@@PAVCWnd@@I@Z 100595a2 f   nafxcw:tooltip.obj
 0001:000585f5       ??0CPtrArray@@QAE@XZ       100595f5 f   nafxcw:array_p.obj
 0001:0005860c       ??_GCPtrArray@@UAEPAXI@Z   1005960c f i nafxcw:array_p.obj
 0001:0005860c       ??_ECPtrArray@@UAEPAXI@Z   1005960c f i nafxcw:array_p.obj
 0001:00058628       ??1CPtrArray@@UAE@XZ       10059628 f   nafxcw:array_p.obj
 0001:00058655       ?SetSize@CPtrArray@@QAEXHH@Z 10059655 f   nafxcw:array_p.obj
 0001:00058655       ?SetSize@CDWordArray@@QAEXHH@Z 10059655 f   nafxcw:array_p.obj
 0001:0005876e       ??0CStringArray@@QAE@XZ    1005976e f   nafxcw:array_s.obj
 0001:00058785       ??_GCStringArray@@UAEPAXI@Z 10059785 f i nafxcw:array_s.obj
 0001:00058785       ??_ECStringArray@@UAEPAXI@Z 10059785 f i nafxcw:array_s.obj
 0001:000587a1       ??1CStringArray@@UAE@XZ    100597a1 f   nafxcw:array_s.obj
 0001:00058801       ?SetSize@CStringArray@@QAEXHH@Z 10059801 f   nafxcw:array_s.obj
 0001:0005894a       ?SetAtGrow@CStringArray@@QAEXHPBD@Z 1005994a f   nafxcw:array_s.obj
 0001:00058976       ?RemoveAt@CStringArray@@QAEXHH@Z 10059976 f   nafxcw:array_s.obj
 0001:000589d2       ?Serialize@CStringArray@@UAEXAAVCArchive@@@Z 100599d2 f   nafxcw:array_s.obj
 0001:00058a3b       ??0CDWordArray@@QAE@XZ     10059a3b f   nafxcw:array_d.obj
 0001:00058a52       ??_ECDWordArray@@UAEPAXI@Z 10059a52 f i nafxcw:array_d.obj
 0001:00058a52       ??_GCDWordArray@@UAEPAXI@Z 10059a52 f i nafxcw:array_d.obj
 0001:00058a6e       ??1CDWordArray@@UAE@XZ     10059a6e f   nafxcw:array_d.obj
 0001:00058a9b       ?Copy@CDWordArray@@QAEXABV1@@Z 10059a9b f   nafxcw:array_d.obj
 0001:00058ac7       ?SetAtGrow@CDWordArray@@QAEXHK@Z 10059ac7 f   nafxcw:array_d.obj
 0001:00058aee       ?RemoveAt@CDWordArray@@QAEXHH@Z 10059aee f   nafxcw:array_d.obj
 0001:00058b25       ?Serialize@CDWordArray@@UAEXAAVCArchive@@@Z 10059b25 f   nafxcw:array_d.obj
 0001:00058b7a       ??0CWordArray@@QAE@XZ      10059b7a f   nafxcw:array_w.obj
 0001:00058b91       ??_ECWordArray@@UAEPAXI@Z  10059b91 f i nafxcw:array_w.obj
 0001:00058b91       ??_GCWordArray@@UAEPAXI@Z  10059b91 f i nafxcw:array_w.obj
 0001:00058bad       ??1CWordArray@@UAE@XZ      10059bad f   nafxcw:array_w.obj
 0001:00058bda       ?SetSize@CWordArray@@QAEXHH@Z 10059bda f   nafxcw:array_w.obj
 0001:00058ced       ?Serialize@CWordArray@@UAEXAAVCArchive@@@Z 10059ced f   nafxcw:array_w.obj
 0001:00058d40       ?RemoveAll@CPtrList@@QAEXXZ 10059d40 f   nafxcw:list_p.obj
 0001:00058d60       ?FreeNode@CPtrList@@IAEXPAUCNode@1@@Z 10059d60 f   nafxcw:list_p.obj
 0001:00058d79       ?RemoveHead@CPtrList@@QAEPAXXZ 10059d79 f   nafxcw:list_p.obj
 0001:00058d9d       ?Create@CPlex@@SGPAU1@AAPAU1@II@Z 10059d9d f   nafxcw:plex.obj
 0001:00058dbd       ?FreeDataChain@CPlex@@QAEXXZ 10059dbd f   nafxcw:plex.obj
 0001:00058dd3       ??0CMapPtrToPtr@@QAE@H@Z   10059dd3 f   nafxcw:map_pp.obj
 0001:00058dfa       ??_ECMapPtrToPtr@@UAEPAXI@Z 10059dfa f i nafxcw:map_pp.obj
 0001:00058dfa       ??_GCMapPtrToPtr@@UAEPAXI@Z 10059dfa f i nafxcw:map_pp.obj
 0001:00058e16       ?RemoveAll@CMapPtrToPtr@@QAEXXZ 10059e16 f   nafxcw:map_pp.obj
 0001:00058e41       ??1CMapPtrToPtr@@UAE@XZ    10059e41 f   nafxcw:map_pp.obj
 0001:00058e6a       ?NewAssoc@CMapPtrToPtr@@IAEPAUCAssoc@1@XZ 10059e6a f   nafxcw:map_pp.obj
 0001:00058eb7       ?FreeAssoc@CMapPtrToPtr@@IAEXPAUCAssoc@1@@Z 10059eb7 f   nafxcw:map_pp.obj
 0001:00058ed0       ?GetAssocAt@CMapPtrToPtr@@IBEPAUCAssoc@1@PAXAAI@Z 10059ed0 f   nafxcw:map_pp.obj
 0001:00058f02       ?GetValueAt@CMapPtrToPtr@@QBEPAXPAX@Z 10059f02 f   nafxcw:map_pp.obj
 0001:00058f35       ??ACMapPtrToPtr@@QAEAAPAXPAX@Z 10059f35 f   nafxcw:map_pp.obj
 0001:00058f85       ?RemoveKey@CMapPtrToPtr@@QAEHPAX@Z 10059f85 f   nafxcw:map_pp.obj
 0001:00058fc7       ?GetNextAssoc@CMapPtrToPtr@@QBEXAAPAU__POSITION@@AAPAX1@Z 10059fc7 f   nafxcw:map_pp.obj
 0001:00059039       ??0CMapStringToPtr@@QAE@H@Z 1005a039 f   nafxcw:map_sp.obj
 0001:00059060       ??_GCMapStringToPtr@@UAEPAXI@Z 1005a060 f i nafxcw:map_sp.obj
 0001:00059060       ??_ECMapStringToPtr@@UAEPAXI@Z 1005a060 f i nafxcw:map_sp.obj
 0001:0005907c       ?InitHashTable@CMapStringToPtr@@QAEXIH@Z 1005a07c f   nafxcw:map_sp.obj
 0001:0005907c       ?InitHashTable@CMapPtrToPtr@@QAEXIH@Z 1005a07c f   nafxcw:map_sp.obj
 0001:000590c1       ?RemoveAll@CMapStringToPtr@@QAEXXZ 1005a0c1 f   nafxcw:map_sp.obj
 0001:00059113       ??1CMapStringToPtr@@UAE@XZ 1005a113 f   nafxcw:map_sp.obj
 0001:0005913c       ?NewAssoc@CMapStringToPtr@@IAEPAUCAssoc@1@XZ 1005a13c f   nafxcw:map_sp.obj
 0001:0005919e       ?GetAssocAt@CMapStringToPtr@@IBEPAUCAssoc@1@PBDAAI@Z 1005a19e f   nafxcw:map_sp.obj
 0001:000591f4       ?Lookup@CMapStringToPtr@@QBEHPBDAAPAX@Z 1005a1f4 f   nafxcw:map_sp.obj
 0001:00059216       ?LookupKey@CMapStringToPtr@@QBEHPBDAAPBD@Z 1005a216 f   nafxcw:map_sp.obj
 0001:00059238       ??ACMapStringToPtr@@QAEAAPAXPBD@Z 1005a238 f   nafxcw:map_sp.obj
 0001:0005929a       ?AfxNewHandler@@YAHI@Z     1005a29a f   nafxcw:afxmem.obj
 0001:000592a2       ?AfxSetNewHandler@@YGP6AHI@ZP6AHI@Z@Z 1005a2a2 f   nafxcw:afxmem.obj
 0001:000592b4       ??2@YAPAXI@Z               1005a2b4 f   nafxcw:afxmem.obj
 0001:000592dd       ??3@YAXPAX@Z               1005a2dd f   nafxcw:afxmem.obj
 0001:000592e8       ??0CString@@QAE@ABV0@@Z    1005a2e8 f   nafxcw:strcore.obj
 0001:000593e0       ?AllocBuffer@CString@@IAEXH@Z 1005a3e0 f   nafxcw:strcore.obj
 0001:00059462       ?FreeData@CString@@KIXPAUCStringData@@@Z 1005a462 f   nafxcw:strcore.obj
 0001:000594aa       ?Release@CString@@IAEXXZ   1005a4aa f   nafxcw:strcore.obj
 0001:000594db       ?Release@CString@@KGXPAUCStringData@@@Z 1005a4db f   nafxcw:strcore.obj
 0001:000594fe       ?Empty@CString@@QAEXXZ     1005a4fe f   nafxcw:strcore.obj
 0001:0005951c       ?CopyBeforeWrite@CString@@IAEXXZ 1005a51c f   nafxcw:strcore.obj
 0001:0005954a       ?AllocBeforeWrite@CString@@IAEXH@Z 1005a54a f   nafxcw:strcore.obj
 0001:00059573       ??1CString@@QAE@XZ         1005a573 f   nafxcw:strcore.obj
 0001:0005959d       ?AllocCopy@CString@@IBEXAAV1@HHH@Z 1005a59d f   nafxcw:strcore.obj
 0001:000595e1       ??0CString@@QAE@PBD@Z      1005a5e1 f   nafxcw:strcore.obj
 0001:00059633       ?AssignCopy@CString@@IAEXHPBD@Z 1005a633 f   nafxcw:strcore.obj
 0001:00059660       ??4CString@@QAEABV0@ABV0@@Z 1005a660 f   nafxcw:strcore.obj
 0001:000596b0       ??4CString@@QAEABV0@PBD@Z  1005a6b0 f   nafxcw:strcore.obj
 0001:000596d7       ??4CString@@QAEABV0@PBG@Z  1005a6d7 f   nafxcw:strcore.obj
 0001:00059718       ?ConcatCopy@CString@@IAEXHPBDH0@Z 1005a718 f   nafxcw:strcore.obj
 0001:00059756       ??H@YG?AVCString@@ABV0@0@Z 1005a756 f   nafxcw:strcore.obj
 0001:000597bc       ??H@YG?AVCString@@ABV0@PBD@Z 1005a7bc f   nafxcw:strcore.obj
 0001:00059830       ??H@YG?AVCString@@PBDABV0@@Z 1005a830 f   nafxcw:strcore.obj
 0001:000598a4       ?ConcatInPlace@CString@@IAEXHPBD@Z 1005a8a4 f   nafxcw:strcore.obj
 0001:00059903       ??YCString@@QAEABV0@PBD@Z  1005a903 f   nafxcw:strcore.obj
 0001:0005992a       ??YCString@@QAEABV0@D@Z    1005a92a f   nafxcw:strcore.obj
 0001:0005993f       ??YCString@@QAEABV0@ABV0@@Z 1005a93f f   nafxcw:strcore.obj
 0001:00059957       ?GetBuffer@CString@@QAEPADH@Z 1005a957 f   nafxcw:strcore.obj
 0001:000599a6       ?ReleaseBuffer@CString@@QAEXH@Z 1005a9a6 f   nafxcw:strcore.obj
 0001:000599ce       ?GetBufferSetLength@CString@@QAEPADH@Z 1005a9ce f   nafxcw:strcore.obj
 0001:000599ee       ?Find@CString@@QBEHD@Z     1005a9ee f   nafxcw:strcore.obj
 0001:000599fc       ?Find@CString@@QBEHDH@Z    1005a9fc f   nafxcw:strcore.obj
 0001:00059a29       ?_wcstombsz@@YAHPADPBGI@Z  1005aa29 f   nafxcw:strcore.obj
 0001:00059a5f       ?AfxA2WHelper@@YGPAGPAGPBDH@Z 1005aa5f f   nafxcw:strcore.obj
 0001:00059a88       ??0CException@@QAE@XZ      1005aa88 f   nafxcw:except.obj
 0001:00059a92       ??0CException@@QAE@H@Z     1005aa92 f   nafxcw:except.obj
 0001:00059a9e       ?Delete@CException@@QAEXXZ 1005aa9e f   nafxcw:except.obj
 0001:00059ab0       ?ReportError@CException@@UAEHII@Z 1005aab0 f   nafxcw:except.obj
 0001:00059b05       ??0AFX_EXCEPTION_LINK@@QAE@XZ 1005ab05 f   nafxcw:except.obj
 0001:00059b1b       ?AfxGetExceptionContext@@YAPAUAFX_EXCEPTION_CONTEXT@@XZ 1005ab1b f i nafxcw:except.obj
 0001:00059b43       ?AfxTryCleanup@@YGXXZ      1005ab43 f   nafxcw:except.obj
 0001:00059b61       ??0CFile@@QAE@XZ           1005ab61 f   nafxcw:filecore.obj
 0001:00059b7b       ??_ECFile@@UAEPAXI@Z       1005ab7b f i nafxcw:filecore.obj
 0001:00059b7b       ??_GCFile@@UAEPAXI@Z       1005ab7b f i nafxcw:filecore.obj
 0001:00059b97       ??0CFile@@QAE@H@Z          1005ab97 f   nafxcw:filecore.obj
 0001:00059bb6       ??1CFile@@UAE@XZ           1005abb6 f   nafxcw:filecore.obj
 0001:00059bfe       ?Duplicate@CFile@@UBEPAV1@XZ 1005abfe f   nafxcw:filecore.obj
 0001:00059c73       ?Open@CFile@@UAEHPBDIPAVCFileException@@@Z 1005ac73 f   nafxcw:filecore.obj
 0001:00059d90       ?Read@CFile@@UAEIPAXI@Z    1005ad90 f   nafxcw:filecore.obj
 0001:00059dca       ?Write@CFile@@UAEXPBXI@Z   1005adca f   nafxcw:filecore.obj
 0001:00059e15       ?Seek@CFile@@UAEJJI@Z      1005ae15 f   nafxcw:filecore.obj
 0001:00059e44       ?GetPosition@CFile@@UBEKXZ 1005ae44 f   nafxcw:filecore.obj
 0001:00059e6d       ?Flush@CFile@@UAEXXZ       1005ae6d f   nafxcw:filecore.obj
 0001:00059e8e       ?Close@CFile@@UAEXXZ       1005ae8e f   nafxcw:filecore.obj
 0001:00059ecf       ?Abort@CFile@@UAEXXZ       1005aecf f   nafxcw:filecore.obj
 0001:00059eef       ?LockRange@CFile@@UAEXKK@Z 1005aeef f   nafxcw:filecore.obj
 0001:00059f18       ?UnlockRange@CFile@@UAEXKK@Z 1005af18 f   nafxcw:filecore.obj
 0001:00059f41       ?SetLength@CFile@@UAEXK@Z  1005af41 f   nafxcw:filecore.obj
 0001:00059f6d       ?GetLength@CFile@@UBEKXZ   1005af6d f   nafxcw:filecore.obj
 0001:00059f9a       ?GetBufferPtr@CFile@@UAEIIIPAPAX0@Z 1005af9a f   nafxcw:filecore.obj
 0001:00059f9f       ?AfxFullPath@@YGHPADPBD@Z  1005af9f f   nafxcw:filecore.obj
 0001:0005a06f       ?AfxGetRoot@@YGXPBDAAVCString@@@Z 1005b06f f   nafxcw:filecore.obj
 0001:0005a135       ?AfxGetFileTitle@@YGIPBDPADI@Z 1005b135 f   nafxcw:filecore.obj
 0001:0005a18b       ?AfxDlgProc@@YGHPAUHWND__@@IIJ@Z 1005b18b f   nafxcw:dlgcore.obj
 0001:0005a1c5       ?GetMessageMap@CDialog@@MBEPBUAFX_MSGMAP@@XZ 1005b1c5 f   nafxcw:dlgcore.obj
 0001:0005a1cb       ?PreTranslateMessage@CDialog@@UAEHPAUtagMSG@@@Z 1005b1cb f   nafxcw:dlgcore.obj
 0001:0005a264       ?OnCmdMsg@CDialog@@UAEHIHPAXPAUAFX_CMDHANDLERINFO@@@Z 1005b264 f   nafxcw:dlgcore.obj
 0001:0005a2e9       ??_GCDialog@@UAEPAXI@Z     1005b2e9 f i nafxcw:dlgcore.obj
 0001:0005a2e9       ??_ECDialog@@UAEPAXI@Z     1005b2e9 f i nafxcw:dlgcore.obj
 0001:0005a305       ??1CDialog@@UAE@XZ         1005b305 f   nafxcw:dlgcore.obj
 0001:0005a343       ?CreateDlgIndirect@CWnd@@IAEHPBUDLGTEMPLATE@@PAV1@PAUHINSTANCE__@@@Z 1005b343 f   nafxcw:dlgcore.obj
 0001:0005a565       ?SetOccDialogInfo@CDialog@@MAEHPAU_AFX_OCC_DIALOG_INFO@@@Z 1005b565 f   nafxcw:dlgcore.obj
 0001:0005a572       ??0CDialog@@QAE@IPAVCWnd@@@Z 1005b572 f   nafxcw:dlgcore.obj
 0001:0005a5ab       ?PreModal@CDialog@@IAEPAUHWND__@@XZ 1005b5ab f   nafxcw:dlgcore.obj
 0001:0005a5e5       ?PostModal@CDialog@@IAEXXZ 1005b5e5 f   nafxcw:dlgcore.obj
 0001:0005a627       ?DoModal@CDialog@@UAEHXZ   1005b627 f   nafxcw:dlgcore.obj
 0001:0005a787       ?EndDialog@CDialog@@QAEXH@Z 1005b787 f   nafxcw:dlgcore.obj
 0001:0005a7aa       ?HandleSetFont@CDialog@@IAEJIJ@Z 1005b7aa f   nafxcw:dlgcore.obj
 0001:0005a7ce       ?PreSubclassWindow@CWnd@@UAEXXZ 1005b7ce f   nafxcw:dlgcore.obj
 0001:0005a7ce       ?PostNcDestroy@CWnd@@MAEXXZ 1005b7ce f   nafxcw:dlgcore.obj
 0001:0005a7ce       ?PreInitDialog@CDialog@@MAEXXZ 1005b7ce f   nafxcw:dlgcore.obj
 0001:0005a7cf       ?HandleInitDialog@CDialog@@IAEJIJ@Z 1005b7cf f   nafxcw:dlgcore.obj
 0001:0005a857       ?AfxHelpEnabled@@YGHXZ     1005b857 f   nafxcw:dlgcore.obj
 0001:0005a8ad       ?OnInitDialog@CDialog@@UAEHXZ 1005b8ad f   nafxcw:dlgcore.obj
 0001:0005a912       ?OnOK@CDialog@@MAEXXZ      1005b912 f   nafxcw:dlgcore.obj
 0001:0005a92b       ?OnCancel@CDialog@@MAEXXZ  1005b92b f   nafxcw:dlgcore.obj
 0001:0005a933       ?CheckAutoCenter@CDialog@@UAEHXZ 1005b933 f   nafxcw:dlgcore.obj
 0001:0005a9af       ?OnCtlColor@CDialog@@IAEPAUHBRUSH__@@PAVCDC@@PAVCWnd@@I@Z 1005b9af f   nafxcw:dlgcore.obj
 0001:0005a9c3       ?OnCommandHelp@CDialog@@IAEJIJ@Z 1005b9c3 f   nafxcw:dlgcore.obj
 0001:0005aa01       ?OnHelpHitTest@CDialog@@IAEJIJ@Z 1005ba01 f   nafxcw:dlgcore.obj
 0001:0005ab22       ??0CWnd@@QAE@XZ            1005bb22 f   nafxcw:wincore.obj
 0001:0005ab44       ??_GCWnd@@UAEPAXI@Z        1005bb44 f i nafxcw:wincore.obj
 0001:0005ab44       ??_ECWnd@@UAEPAXI@Z        1005bb44 f i nafxcw:wincore.obj
 0001:0005ab60       ??0CWnd@@AAE@PAUHWND__@@@Z 1005bb60 f   nafxcw:wincore.obj
 0001:0005ab8c       ?_AfxModifyStyle@@YGHPAUHWND__@@HKKI@Z 1005bb8c f   nafxcw:wincore.obj
 0001:0005abdb       ?ModifyStyle@CWnd@@SGHPAUHWND__@@KKI@Z 1005bbdb f   nafxcw:wincore.obj
 0001:0005abf5       ?_AfxPreInitDialog@@YGXPAVCWnd@@PAUtagRECT@@PAK@Z 1005bbf5 f   nafxcw:wincore.obj
 0001:0005ac18       ?_AfxPostInitDialog@@YGXPAVCWnd@@ABUtagRECT@@K@Z 1005bc18 f   nafxcw:wincore.obj
 0001:0005ac91       ?_AfxHandleActivate@@YGXPAVCWnd@@I0@Z 1005bc91 f   nafxcw:wincore.obj
 0001:0005acf2       ?_AfxHandleSetCursor@@YGHPAVCWnd@@II@Z 1005bcf2 f   nafxcw:wincore.obj
 0001:0005ad68       ?AfxCallWndProc@@YGJPAVCWnd@@PAUHWND__@@IIJ@Z 1005bd68 f   nafxcw:wincore.obj
 0001:0005ae65       ?GetCurrentMessage@CWnd@@KGPBUtagMSG@@XZ 1005be65 f   nafxcw:wincore.obj
 0001:0005ae9a       ?Default@CWnd@@IAEJXZ      1005be9a f   nafxcw:wincore.obj
 0001:0005aec1       ?afxMapHWND@@YGPAVCHandleMap@@H@Z 1005bec1 f   nafxcw:wincore.obj
 0001:0005af33       ?FromHandle@CWnd@@SGPAV1@PAUHWND__@@@Z 1005bf33 f   nafxcw:wincore.obj
 0001:0005af5a       ?FromHandlePermanent@CWnd@@SGPAV1@PAUHWND__@@@Z 1005bf5a f   nafxcw:wincore.obj
 0001:0005af78       ?Attach@CWnd@@QAEHPAUHWND__@@@Z 1005bf78 f   nafxcw:wincore.obj
 0001:0005afb1       ?Detach@CWnd@@QAEPAUHWND__@@XZ 1005bfb1 f   nafxcw:wincore.obj
 0001:0005afdf       ?AfxWndProc@@YGJPAUHWND__@@IIJ@Z 1005bfdf f   nafxcw:wincore.obj
 0001:0005b02a       ?AfxGetAfxWndProc@@YGP6GJPAUHWND__@@IIJ@ZXZ 1005c02a f   nafxcw:wincore.obj
 0001:0005b030       ?_AfxActivationWndProc@@YGJPAUHWND__@@IIJ@Z 1005c030 f   nafxcw:wincore.obj
 0001:0005b18f       ?_AfxGrayBackgroundWndProc@@YGJPAUHWND__@@IIJ@Z 1005c18f f   nafxcw:wincore.obj
 0001:0005b20b       ?_AfxCbtFilterHook@@YGJHIJ@Z 1005c20b f   nafxcw:wincore.obj
 0001:0005b401       ?AfxHookWindowCreate@@YGXPAVCWnd@@@Z 1005c401 f   nafxcw:wincore.obj
 0001:0005b44d       ?AfxUnhookWindowCreate@@YGHXZ 1005c44d f   nafxcw:wincore.obj
 0001:0005b48f       ?CreateEx@CWnd@@QAEHKPBD0KHHHHPAUHWND__@@PAUHMENU__@@PAX@Z 1005c48f f   nafxcw:wincore.obj
 0001:0005b555       ?PreCreateWindow@CWnd@@UAEHAAUtagCREATESTRUCTA@@@Z 1005c555 f   nafxcw:wincore.obj
 0001:0005b575       ?Create@CWnd@@UAEHPBD0KABUtagRECT@@PAV1@IPAUCCreateContext@@@Z 1005c575 f   nafxcw:wincore.obj
 0001:0005b5c1       ??1CWnd@@UAE@XZ            1005c5c1 f   nafxcw:wincore.obj
 0001:0005b63d       ?OnDestroy@CWnd@@IAEXXZ    1005c63d f   nafxcw:wincore.obj
 0001:0005b65b       ?OnNcDestroy@CWnd@@IAEXXZ  1005c65b f   nafxcw:wincore.obj
 0001:0005b76d       ?OnFinalRelease@CWnd@@UAEXXZ 1005c76d f   nafxcw:wincore.obj
 0001:0005b77e       ?DestroyWindow@CWnd@@UAEHXZ 1005c77e f   nafxcw:wincore.obj
 0001:0005b7cb       ?DefWindowProcA@CWnd@@MAEJIIJ@Z 1005c7cb f   nafxcw:wincore.obj
 0001:0005b812       ?GetSuperWndProcAddr@CWnd@@MAEPAP6GJPAUHWND__@@IIJ@ZXZ 1005c812 f   nafxcw:wincore.obj
 0001:0005b816       ?PreTranslateMessage@CWnd@@UAEHPAUtagMSG@@@Z 1005c816 f   nafxcw:wincore.obj
 0001:0005b835       ?CancelToolTips@CWnd@@SGXH@Z 1005c835 f   nafxcw:wincore.obj
 0001:0005b88c       ?OnToolHitTest@CWnd@@UBEHVCPoint@@PAUtagTOOLINFOA@@@Z 1005c88c f   nafxcw:wincore.obj
 0001:0005b8fd       ?GetWindowTextA@CWnd@@QBEXAAVCString@@@Z 1005c8fd f   nafxcw:wincore.obj
 0001:0005b945       ?OnDrawItem@CWnd@@IAEXHPAUtagDRAWITEMSTRUCT@@@Z 1005c945 f   nafxcw:wincore.obj
 0001:0005b982       ?OnCompareItem@CWnd@@IAEHHPAUtagCOMPAREITEMSTRUCT@@@Z 1005c982 f   nafxcw:wincore.obj
 0001:0005b9ac       ?OnDeleteItem@CWnd@@IAEXHPAUtagDELETEITEMSTRUCT@@@Z 1005c9ac f   nafxcw:wincore.obj
 0001:0005b9cc       ?OnVKeyToItem@CWnd@@IAEHIPAVCListBox@@I@Z 1005c9cc f   nafxcw:wincore.obj
 0001:0005b9cc       ?OnCharToItem@CWnd@@IAEHIPAVCListBox@@I@Z 1005c9cc f   nafxcw:wincore.obj
 0001:0005b9f7       ?_AfxFindPopupMenuFromID@@YGPAVCMenu@@PAV1@I@Z 1005c9f7 f   nafxcw:wincore.obj
 0001:0005ba5a       ?OnMeasureItem@CWnd@@IAEXHPAUtagMEASUREITEMSTRUCT@@@Z 1005ca5a f   nafxcw:wincore.obj
 0001:0005bad2       ?AfxRegisterClass@@YGHPAUtagWNDCLASSA@@@Z 1005cad2 f   nafxcw:wincore.obj
 0001:0005bb73       ?AfxRegisterWndClass@@YGPBDIPAUHICON__@@PAUHBRUSH__@@0@Z 1005cb73 f   nafxcw:wincore.obj
 0001:0005bc27       ?OnNTCtlColor@CWnd@@IAEJIJ@Z 1005cc27 f   nafxcw:wincore.obj
 0001:0005bc6d       ?WinHelpA@CWnd@@UAEXKI@Z   1005cc6d f   nafxcw:wincore.obj
 0001:0005bd4f       ?GetMessageMap@CWnd@@MBEPBUAFX_MSGMAP@@XZ 1005cd4f f   nafxcw:wincore.obj
 0001:0005bd55       ?AfxFindMessageEntry@@YGPBUAFX_MSGMAP_ENTRY@@PBU1@III@Z 1005cd55 f   nafxcw:wincore.obj
 0001:0005bd95       ?WindowProc@CWnd@@MAEJIIJ@Z 1005cd95 f   nafxcw:wincore.obj
 0001:0005bdd9       ?OnWndMsg@CWnd@@MAEHIIJPAJ@Z 1005cdd9 f   nafxcw:wincore.obj
 0001:0005c34b       ??0CTestCmdUI@@QAE@XZ      1005d34b f   nafxcw:wincore.obj
 0001:0005c364       ?Enable@CTestCmdUI@@UAEXH@Z 1005d364 f   nafxcw:wincore.obj
 0001:0005c375       ?OnCommand@CWnd@@MAEHIJ@Z  1005d375 f   nafxcw:wincore.obj
 0001:0005c401       ?OnNotify@CWnd@@MAEHIJPAJ@Z 1005d401 f   nafxcw:wincore.obj
 0001:0005c47b       ?GetParentFrame@CWnd@@QBEPAVCFrameWnd@@XZ 1005d47b f   nafxcw:wincore.obj
 0001:0005c4b9       ?AfxGetParentOwner@@YGPAUHWND__@@PAU1@@Z 1005d4b9 f   nafxcw:wincore.obj
 0001:0005c4fe       ?GetTopLevelParent@CWnd@@QBEPAV1@XZ 1005d4fe f   nafxcw:wincore.obj
 0001:0005c526       ?GetTopLevelFrame@CWnd@@QBEPAVCFrameWnd@@XZ 1005d526 f   nafxcw:wincore.obj
 0001:0005c567       ?MessageBoxA@CWnd@@QAEHPBD0I@Z 1005d567 f   nafxcw:wincore.obj
 0001:0005c599       ?GetDescendantWindow@CWnd@@SGPAV1@PAUHWND__@@HH@Z 1005d599 f   nafxcw:wincore.obj
 0001:0005c612       ?SendMessageToDescendants@CWnd@@SGXPAUHWND__@@IIJHH@Z 1005d612 f   nafxcw:wincore.obj
 0001:0005c68f       ?SetOccDialogInfo@CWnd@@MAEHPAU_AFX_OCC_DIALOG_INFO@@@Z 1005d68f f   nafxcw:wincore.obj
 0001:0005c68f       ?GetScrollBarCtrl@CWnd@@UBEPAVCScrollBar@@H@Z 1005d68f f   nafxcw:wincore.obj
 0001:0005c68f       ?GetExtraConnectionPoints@CCmdTarget@@MAEHPAVCPtrArray@@@Z 1005d68f f   nafxcw:wincore.obj
 0001:0005c68f       ?GetInterfaceHook@CCmdTarget@@UAEPAUIUnknown@@PBX@Z 1005d68f f   nafxcw:wincore.obj
 0001:0005c68f       ?GetConnectionHook@CCmdTarget@@MAEPAUIConnectionPoint@@ABU_GUID@@@Z 1005d68f f   nafxcw:wincore.obj
 0001:0005c68f       ?GetDispatchIID@CCmdTarget@@UAEHPAU_GUID@@@Z 1005d68f f   nafxcw:wincore.obj
 0001:0005c694       ?SetScrollPos@CWnd@@QAEHHHH@Z 1005d694 f   nafxcw:wincore.obj
 0001:0005c6c4       ?GetScrollPos@CWnd@@QBEHH@Z 1005d6c4 f   nafxcw:wincore.obj
 0001:0005c6ec       ?SetScrollRange@CWnd@@QAEXHHHH@Z 1005d6ec f   nafxcw:wincore.obj
 0001:0005c71f       ?GetScrollRange@CWnd@@QBEXHPAH0@Z 1005d71f f   nafxcw:wincore.obj
 0001:0005c74f       ?CalcWindowRect@CWnd@@UAEXPAUtagRECT@@I@Z 1005d74f f   nafxcw:wincore.obj
 0001:0005c77a       ?WalkPreTranslateTree@CWnd@@SGHPAUHWND__@@PAUtagMSG@@@Z 1005d77a f   nafxcw:wincore.obj
 0001:0005c7bc       ?SendChildNotifyLastMsg@CWnd@@QAEHPAJ@Z 1005d7bc f   nafxcw:wincore.obj
 0001:0005c7e9       ?ReflectLastMsg@CWnd@@KGHPAUHWND__@@PAJ@Z 1005d7e9 f   nafxcw:wincore.obj
 0001:0005c88d       ?OnChildNotify@CWnd@@MAEHIIJPAJ@Z 1005d88d f   nafxcw:wincore.obj
 0001:0005c8e8       ?ReflectChildNotify@CWnd@@IAEHIIJPAJ@Z 1005d8e8 f   nafxcw:wincore.obj
 0001:0005c9d0       ?OnParentNotify@CWnd@@IAEXIJ@Z 1005d9d0 f   nafxcw:wincore.obj
 0001:0005c9fd       ?OnActivateTopLevel@CWnd@@IAEJIJ@Z 1005d9fd f   nafxcw:wincore.obj
 0001:0005ca1f       ?OnSysColorChange@CWnd@@IAEXXZ 1005da1f f   nafxcw:wincore.obj
 0001:0005ca9c       ?OnSettingChange@CWnd@@IAEXIPBD@Z 1005da9c f   nafxcw:wincore.obj
 0001:0005caef       ?OnDevModeChange@CWnd@@IAEXPAD@Z 1005daef f   nafxcw:wincore.obj
 0001:0005cb3a       ?OnHelpInfo@CWnd@@IAEHPAUtagHELPINFO@@@Z 1005db3a f   nafxcw:wincore.obj
 0001:0005cb9e       ?OnDisplayChange@CWnd@@IAEJIJ@Z 1005db9e f   nafxcw:wincore.obj
 0001:0005cbe7       ?OnDragList@CWnd@@IAEJIJ@Z 1005dbe7 f   nafxcw:wincore.obj
 0001:0005cc11       ?OnVScroll@CWnd@@IAEXIIPAVCScrollBar@@@Z 1005dc11 f   nafxcw:wincore.obj
 0001:0005cc11       ?OnHScroll@CWnd@@IAEXIIPAVCScrollBar@@@Z 1005dc11 f   nafxcw:wincore.obj
 0001:0005cc32       ?OnEnterIdle@CWnd@@IAEXIPAV1@@Z 1005dc32 f   nafxcw:wincore.obj
 0001:0005cc7c       ?OnCtlColor@CWnd@@IAEPAUHBRUSH__@@PAVCDC@@PAV1@I@Z 1005dc7c f   nafxcw:wincore.obj
 0001:0005cca3       ?OnGrayCtlColor@CWnd@@QAEPAUHBRUSH__@@PAVCDC@@PAV1@I@Z 1005dca3 f   nafxcw:wincore.obj
 0001:0005cd06       ?GrayCtlColor@CWnd@@SGHPAUHDC__@@PAUHWND__@@IPAUHBRUSH__@@K@Z 1005dd06 f   nafxcw:wincore.obj
 0001:0005cd7b       ?OnQuery3dControls@CWnd@@IAEJIJ@Z 1005dd7b f   nafxcw:wincore.obj
 0001:0005cd83       ?UpdateData@CWnd@@QAEHH@Z  1005dd83 f   nafxcw:wincore.obj
 0001:0005ce25       ??0CDataExchange@@QAE@PAVCWnd@@H@Z 1005de25 f   nafxcw:wincore.obj
 0001:0005ce3b       ?CenterWindow@CWnd@@QAEXPAV1@@Z 1005de3b f   nafxcw:wincore.obj
 0001:0005cff0       ?CheckAutoCenter@CWnd@@UAEHXZ 1005dff0 f   nafxcw:wincore.obj
 0001:0005cff0       ?OnCreateAggregates@CCmdTarget@@UAEHXZ 1005dff0 f   nafxcw:wincore.obj
 0001:0005cff4       ?ExecuteDlgInit@CWnd@@QAEHPBD@Z 1005dff4 f   nafxcw:wincore.obj
 0001:0005d044       ?ExecuteDlgInit@CWnd@@QAEHPAX@Z 1005e044 f   nafxcw:wincore.obj
 0001:0005d116       ?PreTranslateInput@CWnd@@QAEHPAUtagMSG@@@Z 1005e116 f   nafxcw:wincore.obj
 0001:0005d146       ?RunModalLoop@CWnd@@QAEHK@Z 1005e146 f   nafxcw:wincore.obj
 0001:0005d2a5       ?ContinueModal@CWnd@@UAEHXZ 1005e2a5 f   nafxcw:wincore.obj
 0001:0005d2ac       ?EndModalLoop@CWnd@@UAEXH@Z 1005e2ac f   nafxcw:wincore.obj
 0001:0005d2d0       ?_AfxRegisterWithIcon@@YGHPAUtagWNDCLASSA@@PBDI@Z 1005e2d0 f   nafxcw:wincore.obj
 0001:0005d311       ?_AfxInitCommonControls@@YGJPAUtagINITCOMMONCONTROLSEX@@J@Z 1005e311 f   nafxcw:wincore.obj
 0001:0005d388       ?AfxEndDeferRegisterClass@@YGHJ@Z 1005e388 f   nafxcw:wincore.obj
 0001:0005d63f       ?IsTracking@CFrameWnd@@QBEHXZ 1005e63f f   nafxcw:wincore.obj
 0001:0005d65e       ?SubclassWindow@CWnd@@QAEHPAUHWND__@@@Z 1005e65e f   nafxcw:wincore.obj
 0001:0005d6a1       ??3CTempWnd@@SAXPAX@Z      1005e6a1 f i nafxcw:wincore.obj
 0001:0005d6b0       ?OnAmbientProperty@CWnd@@UAEHPAVCOleControlSite@@JPAUtagVARIANT@@@Z 1005e6b0 f   nafxcw:winocc.obj
 0001:0005d6c7       ?GetDlgItem@CWnd@@QBEPAV1@H@Z 1005e6c7 f   nafxcw:winocc.obj
 0001:0005d6f1       ?GetDlgItem@CWnd@@QBEXHPAPAUHWND__@@@Z 1005e6f1 f   nafxcw:winocc.obj
 0001:0005d71f       ?ScrollWindowEx@CWnd@@QAEHHHPBUtagRECT@@0PAVCRgn@@PAU2@I@Z 1005e71f f   nafxcw:winocc.obj
 0001:0005d76e       ?IsDialogMessageA@CWnd@@QAEHPAUtagMSG@@@Z 1005e76e f   nafxcw:winocc.obj
 0001:0005d7a1       ?GetStyle@CWnd@@QBEKXZ     1005e7a1 f   nafxcw:winocc.obj
 0001:0005d7bb       ?GetExStyle@CWnd@@QBEKXZ   1005e7bb f   nafxcw:winocc.obj
 0001:0005d7d5       ?ModifyStyle@CWnd@@QAEHKKI@Z 1005e7d5 f   nafxcw:winocc.obj
 0001:0005d806       ?SetWindowTextA@CWnd@@QAEXPBD@Z 1005e806 f   nafxcw:winocc.obj
 0001:0005d82d       ?GetDlgCtrlID@CWnd@@QBEHXZ 1005e82d f   nafxcw:winocc.obj
 0001:0005d848       ?MoveWindow@CWnd@@QAEXHHHHH@Z 1005e848 f   nafxcw:winocc.obj
 0001:0005d889       ?SetWindowPos@CWnd@@QAEHPBV1@HHHHI@Z 1005e889 f   nafxcw:winocc.obj
 0001:0005d8d8       ?ShowWindow@CWnd@@QAEHH@Z  1005e8d8 f   nafxcw:winocc.obj
 0001:0005d8ff       ?IsWindowEnabled@CWnd@@QBEHXZ 1005e8ff f   nafxcw:winocc.obj
 0001:0005d91a       ?EnableWindow@CWnd@@QAEHH@Z 1005e91a f   nafxcw:winocc.obj
 0001:0005d941       ?SetFocus@CWnd@@QAEPAV1@XZ 1005e941 f   nafxcw:winocc.obj
 0001:0005d962       ?AttachControlSite@CWnd@@IAEXPAVCHandleMap@@@Z 1005e962 f   nafxcw:winocc.obj
 0001:0005d99f       ?AttachControlSite@CWnd@@QAEXPAV1@@Z 1005e99f f   nafxcw:winocc.obj
 0001:0005d9be       ?GetFileName@CFile@@UBE?AVCString@@XZ 1005e9be f   nafxcw:filest.obj
 0001:0005da40       ?GetFileTitle@CFile@@UBE?AVCString@@XZ 1005ea40 f   nafxcw:filest.obj
 0001:0005dac2       ?GetFilePath@CFile@@UBE?AVCString@@XZ 1005eac2 f   nafxcw:filest.obj
 0001:0005daf1       ?GetStatus@CFile@@QBEHAAUCFileStatus@@@Z 1005eaf1 f   nafxcw:filest.obj
 0001:0005dbcb       ?GetMessageMap@CWinApp@@MBEPBUAFX_MSGMAP@@XZ 1005ebcb f   nafxcw:appcore.obj
 0001:0005dbd1       ?Run@CWinApp@@UAEHXZ       1005ebd1 f   nafxcw:appcore.obj
 0001:0005dbf3       ?WinHelpA@CWinApp@@UAEXKI@Z 1005ebf3 f   nafxcw:appcore.obj
 0001:0005dc2a       ?ProcessWndProcException@CWinApp@@UAEJPAVCException@@PBUtagMSG@@@Z 1005ec2a f   nafxcw:appcore.obj
 0001:0005dca1       ?OnIdle@CWinApp@@UAEHJ@Z   1005eca1 f   nafxcw:appcore.obj
 0001:0005dd0b       ?DevModeChange@CWinApp@@QAEXPAD@Z 1005ed0b f   nafxcw:appcore.obj
 0001:0005ddb8       ??0CCmdTarget@@QAE@XZ      1005edb8 f   nafxcw:cmdtarg.obj
 0001:0005ddd2       ??1CCmdTarget@@UAE@XZ      1005edd2 f   nafxcw:cmdtarg.obj
 0001:0005ddfd       ?_AfxDispatchCmdMsg@@YGHPAVCCmdTarget@@IHP81@AEXXZPAXIPAUAFX_CMDHANDLERINFO@@@Z 1005edfd f   nafxcw:cmdtarg.obj
 0001:0005df04       ?OnCmdMsg@CCmdTarget@@UAEHIHPAXPAUAFX_CMDHANDLERINFO@@@Z 1005ef04 f   nafxcw:cmdtarg.obj
 0001:0005e013       ?IsInvokeAllowed@CCmdTarget@@UAEHJ@Z 1005f013 f   nafxcw:cmdtarg.obj
 0001:0005e019       ?IsFrameWnd@CWnd@@UBEHXZ   1005f019 f   nafxcw:cmdtarg.obj
 0001:0005e019       ?InitInstance@CWinThread@@UAEHXZ 1005f019 f   nafxcw:cmdtarg.obj
 0001:0005e019       ?GetTypeLibCache@CCmdTarget@@UAEPAVCTypeLibCache@@XZ 1005f019 f   nafxcw:cmdtarg.obj
 0001:0005e019       ?GetTypeInfoCount@CCmdTarget@@UAEIXZ 1005f019 f   nafxcw:cmdtarg.obj
 0001:0005e01c       ?GetTypeLib@CCmdTarget@@UAEJKPAPAUITypeLib@@@Z 1005f01c f   nafxcw:cmdtarg.obj
 0001:0005e024       ?BeginWaitCursor@CCmdTarget@@QAEXXZ 1005f024 f   nafxcw:cmdtarg.obj
 0001:0005e039       ?EndWaitCursor@CCmdTarget@@QAEXXZ 1005f039 f   nafxcw:cmdtarg.obj
 0001:0005e04e       ?GetMessageMap@CCmdTarget@@MBEPBUAFX_MSGMAP@@XZ 1005f04e f   nafxcw:cmdtarg.obj
 0001:0005e054       ?GetDispatchMap@CCmdTarget@@MBEPBUAFX_DISPMAP@@XZ 1005f054 f   nafxcw:cmdtarg.obj
 0001:0005e05a       ?GetEventSinkMap@CCmdTarget@@MBEPBUAFX_EVENTSINKMAP@@XZ 1005f05a f   nafxcw:cmdtarg.obj
 0001:0005e060       ?GetInterfaceMap@CCmdTarget@@MBEPBUAFX_INTERFACEMAP@@XZ 1005f060 f   nafxcw:cmdtarg.obj
 0001:0005e066       ?OnFinalRelease@CCmdTarget@@UAEXXZ 1005f066 f   nafxcw:cmdtarg.obj
 0001:0005e098       ?GetConnectionMap@CCmdTarget@@MBEPBUAFX_CONNECTIONMAP@@XZ 1005f098 f   nafxcw:cmdtarg.obj
 0001:0005e09e       ?GetCommandMap@CCmdTarget@@MBEPBUAFX_OLECMDMAP@@XZ 1005f09e f   nafxcw:cmdtarg.obj
 0001:0005e0a4       ??0CCmdUI@@QAE@XZ          1005f0a4 f   nafxcw:cmdtarg.obj
 0001:0005e0ca       ?Enable@CCmdUI@@UAEXH@Z    1005f0ca f   nafxcw:cmdtarg.obj
 0001:0005e15a       ?SetCheck@CCmdUI@@UAEXH@Z  1005f15a f   nafxcw:cmdtarg.obj
 0001:0005e1bc       ?SetRadio@CCmdUI@@UAEXH@Z  1005f1bc f   nafxcw:cmdtarg.obj
 0001:0005e212       ?SetText@CCmdUI@@UAEXPBD@Z 1005f212 f   nafxcw:cmdtarg.obj
 0001:0005e269       ?AfxGetThread@@YGPAVCWinThread@@XZ 1005f269 f   nafxcw:thrdcore.obj
 0001:0005e27e       ?AfxInitThread@@YGXXZ      1005f27e f   nafxcw:thrdcore.obj
 0001:0005e2dd       ?AfxTermThread@@YGXPAUHINSTANCE__@@@Z 1005f2dd f   nafxcw:thrdcore.obj
 0001:0005e36d       ?Delete@CWinThread@@UAEXXZ 1005f36d f   nafxcw:thrdcore.obj
 0001:0005e37f       ?Run@CWinThread@@UAEHXZ    1005f37f f   nafxcw:thrdcore.obj
 0001:0005e3fe       ?IsIdleMessage@CWinThread@@UAEHPAUtagMSG@@@Z 1005f3fe f   nafxcw:thrdcore.obj
 0001:0005e457       ?ExitInstance@CWinThread@@UAEHXZ 1005f457 f   nafxcw:thrdcore.obj
 0001:0005e45b       ?OnIdle@CWinThread@@UAEHJ@Z 1005f45b f   nafxcw:thrdcore.obj
 0001:0005e566       ?DispatchThreadMessageEx@CWinThread@@IAEHPAUtagMSG@@@Z 1005f566 f   nafxcw:thrdcore.obj
 0001:0005e5e1       ?PreTranslateMessage@CWinThread@@UAEHPAUtagMSG@@@Z 1005f5e1 f   nafxcw:thrdcore.obj
 0001:0005e63e       ?ProcessWndProcException@CWinThread@@UAEJPAVCException@@PBUtagMSG@@@Z 1005f63e f   nafxcw:thrdcore.obj
 0001:0005e663       ?_AfxMsgFilterHook@@YGJHIJ@Z 1005f663 f   nafxcw:thrdcore.obj
 0001:0005e6bb       ?IsHelpKey@@YGHPAUtagMSG@@@Z 1005f6bb f   nafxcw:thrdcore.obj
 0001:0005e706       ?ProcessMessageFilter@CWinThread@@UAEHHPAUtagMSG@@@Z 1005f706 f   nafxcw:thrdcore.obj
 0001:0005e850       ?GetMainWnd@CWinThread@@UAEPAVCWnd@@XZ 1005f850 f   nafxcw:thrdcore.obj
 0001:0005e86b       ?PumpMessage@CWinThread@@UAEHXZ 1005f86b f   nafxcw:thrdcore.obj
 0001:0005e8ab       ?afxMapHMENU@@YGPAVCHandleMap@@H@Z 1005f8ab f   nafxcw:winmenu.obj
 0001:0005e91d       ?FromHandle@CMenu@@SGPAV1@PAUHMENU__@@@Z 1005f91d f   nafxcw:winmenu.obj
 0001:0005e932       ?FromHandlePermanent@CMenu@@SGPAV1@PAUHMENU__@@@Z 1005f932 f   nafxcw:winmenu.obj
 0001:0005e950       ?Detach@CMenu@@QAEPAUHMENU__@@XZ 1005f950 f   nafxcw:winmenu.obj
 0001:0005e97a       ?DestroyMenu@CMenu@@QAEHXZ 1005f97a f   nafxcw:winmenu.obj
 0001:0005e990       ?MeasureItem@CMenu@@UAEXPAUtagMEASUREITEMSTRUCT@@@Z 1005f990 f   nafxcw:winmenu.obj
 0001:0005e990       ?SetRadio@CTestCmdUI@@UAEXH@Z 1005f990 f   nafxcw:winmenu.obj
 0001:0005e990       ?SetText@CTestCmdUI@@UAEXPBD@Z 1005f990 f   nafxcw:winmenu.obj
 0001:0005e990       ?SetCheck@CTestCmdUI@@UAEXH@Z 1005f990 f   nafxcw:winmenu.obj
 0001:0005e990       ?OnSetFont@CDialog@@UAEXPAVCFont@@@Z 1005f990 f   nafxcw:winmenu.obj
 0001:0005e990       ?DrawItem@CMenu@@UAEXPAUtagDRAWITEMSTRUCT@@@Z 1005f990 f   nafxcw:winmenu.obj
 0001:0005e993       ?ThrowOsError@CFileException@@SGXJPBD@Z 1005f993 f   nafxcw:filex.obj
 0001:0005e9b4       ?GetErrorMessage@CFileException@@UAEHPADIPAI@Z 1005f9b4 f   nafxcw:filex.obj
 0001:0005ea54       ?AfxThrowFileException@@YGXHJPBD@Z 1005fa54 f   nafxcw:filex.obj
 0001:0005eabf       ?OsErrorToException@CFileException@@SGHJ@Z 1005fabf f   nafxcw:filex.obj
 0001:0005ed3d       ?AfxLockTempMaps@@YGXXZ    1005fd3d f   nafxcw:winhand.obj
 0001:0005ed46       ?AfxUnlockTempMaps@@YGHH@Z 1005fd46 f   nafxcw:winhand.obj
 0001:0005ee40       ??0CHandleMap@@QAE@PAUCRuntimeClass@@IH@Z 1005fe40 f   nafxcw:winhand.obj
 0001:0005eea5       ?FromHandle@CHandleMap@@QAEPAVCObject@@PAX@Z 1005fea5 f   nafxcw:winhand.obj
 0001:0005ef64       ?DeleteTemp@CHandleMap@@QAEXXZ 1005ff64 f   nafxcw:winhand.obj
 0001:0005efc9       ?LoadStringA@CString@@QAEHI@Z 1005ffc9 f   nafxcw:winstr.obj
 0001:0005f04d       ?AfxLoadString@@YGHIPADI@Z 1006004d f   nafxcw:winstr.obj
 0001:0005f074       ?IsKindOf@CObject@@QBEHPBUCRuntimeClass@@@Z 10060074 f   nafxcw:objcore.obj
 0001:0005f086       ?AfxDynamicDownCast@@YAPAVCObject@@PAUCRuntimeClass@@PAV1@@Z 10060086 f   nafxcw:objcore.obj
 0001:0005f0a6       ?CreateObject@CRuntimeClass@@QAEPAVCObject@@XZ 100600a6 f   nafxcw:objcore.obj
 0001:0005f0ec       ?AfxClassInit@@YGXPAUCRuntimeClass@@@Z 100600ec f   nafxcw:objcore.obj
 0001:0005f112       ?IsDerivedFrom@CRuntimeClass@@QBEHPBU1@@Z 10060112 f   nafxcw:objcore.obj
 0001:0005f12b       ??0CDialogTemplate@@QAE@PBUDLGTEMPLATE@@@Z 1006012b f   nafxcw:dlgtempl.obj
 0001:0005f15a       ?SetTemplate@CDialogTemplate@@IAEHPBUDLGTEMPLATE@@I@Z 1006015a f   nafxcw:dlgtempl.obj
 0001:0005f1ba       ??1CDialogTemplate@@QAE@XZ 100601ba f   nafxcw:dlgtempl.obj
 0001:0005f1c8       ?Detach@CDialogTemplate@@QAEPAXXZ 100601c8 f   nafxcw:dlgtempl.obj
 0001:0005f1ce       ?GetFontSizeField@CDialogTemplate@@KAPAEPBUDLGTEMPLATE@@@Z 100601ce f   nafxcw:dlgtempl.obj
 0001:0005f224       ?GetTemplateSize@CDialogTemplate@@KAIPBUDLGTEMPLATE@@@Z 10060224 f   nafxcw:dlgtempl.obj
 0001:0005f2dc       ?GetFont@CDialogTemplate@@SAHPBUDLGTEMPLATE@@AAVCString@@AAG@Z 100602dc f   nafxcw:dlgtempl.obj
 0001:0005f34b       ?SetFont@CDialogTemplate@@QAEHPBDG@Z 1006034b f   nafxcw:dlgtempl.obj
 0001:0005f465       ?SetSystemFont@CDialogTemplate@@QAEHG@Z 10060465 f   nafxcw:dlgtempl.obj
 0001:0005f4f6       ?UpdateSysColors@AUX_DATA@@QAEXXZ 100604f6 f   nafxcw:auxdata.obj
 0001:0005f53a       ?UpdateSysMetrics@AUX_DATA@@QAEXXZ 1006053a f   nafxcw:auxdata.obj
 0001:0005f592       ??0CDC@@QAE@XZ             10060592 f   nafxcw:wingdi.obj
 0001:0005f5a6       ??_ECDC@@UAEPAXI@Z         100605a6 f i nafxcw:wingdi.obj
 0001:0005f5a6       ??_GCDC@@UAEPAXI@Z         100605a6 f i nafxcw:wingdi.obj
 0001:0005f5c2       ?afxMapHDC@@YGPAVCHandleMap@@H@Z 100605c2 f   nafxcw:wingdi.obj
 0001:0005f634       ?FromHandle@CDC@@SGPAV1@PAUHDC__@@@Z 10060634 f   nafxcw:wingdi.obj
 0001:0005f649       ?Attach@CDC@@QAEHPAUHDC__@@@Z 10060649 f   nafxcw:wingdi.obj
 0001:0005f680       ?Detach@CDC@@QAEPAUHDC__@@XZ 10060680 f   nafxcw:wingdi.obj
 0001:0005f6b1       ?DeleteDC@CDC@@QAEHXZ      100606b1 f   nafxcw:wingdi.obj
 0001:0005f6c7       ??1CDC@@UAE@XZ             100606c7 f   nafxcw:wingdi.obj
 0001:0005f6fd       ?SetAttribDC@CDC@@UAEXPAUHDC__@@@Z 100606fd f   nafxcw:wingdi.obj
 0001:0005f707       ?SetOutputDC@CDC@@UAEXPAUHDC__@@@Z 10060707 f   nafxcw:wingdi.obj
 0001:0005f711       ?ReleaseAttribDC@CDC@@UAEXXZ 10060711 f   nafxcw:wingdi.obj
 0001:0005f716       ?ReleaseOutputDC@CDC@@UAEXXZ 10060716 f   nafxcw:wingdi.obj
 0001:0005f71b       ?SaveDC@CDC@@UAEHXZ        1006071b f   nafxcw:wingdi.obj
 0001:0005f74c       ?RestoreDC@CDC@@UAEHH@Z    1006074c f   nafxcw:wingdi.obj
 0001:0005f78a       ?SelectGdiObject@CDC@@KGPAVCGdiObject@@PAUHDC__@@PAX@Z 1006078a f   nafxcw:wingdi.obj
 0001:0005f7a1       ?SelectStockObject@CDC@@UAEPAVCGdiObject@@H@Z 100607a1 f   nafxcw:wingdi.obj
 0001:0005f7dd       ?SelectObject@CDC@@UAEPAVCFont@@PAV2@@Z 100607dd f   nafxcw:wingdi.obj
 0001:0005f7dd       ?SelectObject@CDC@@QAEPAVCPen@@PAV2@@Z 100607dd f   nafxcw:wingdi.obj
 0001:0005f7dd       ?SelectObject@CDC@@QAEPAVCBrush@@PAV2@@Z 100607dd f   nafxcw:wingdi.obj
 0001:0005f823       ?SelectObject@CDC@@QAEHPAVCRgn@@@Z 10060823 f   nafxcw:wingdi.obj
 0001:0005f868       ?SelectPalette@CDC@@QAEPAVCPalette@@PAV2@H@Z 10060868 f   nafxcw:wingdi.obj
 0001:0005f88a       ?SetBkColor@CDC@@UAEKK@Z   1006088a f   nafxcw:wingdi.obj
 0001:0005f8b9       ?SetBkMode@CDC@@QAEHH@Z    100608b9 f   nafxcw:wingdi.obj
 0001:0005f8e7       ?SetPolyFillMode@CDC@@QAEHH@Z 100608e7 f   nafxcw:wingdi.obj
 0001:0005f915       ?SetROP2@CDC@@QAEHH@Z      10060915 f   nafxcw:wingdi.obj
 0001:0005f943       ?SetStretchBltMode@CDC@@QAEHH@Z 10060943 f   nafxcw:wingdi.obj
 0001:0005f971       ?SetTextColor@CDC@@UAEKK@Z 10060971 f   nafxcw:wingdi.obj
 0001:0005f9a0       ?SetMapMode@CDC@@UAEHH@Z   100609a0 f   nafxcw:wingdi.obj
 0001:0005f9ce       ?SetViewportOrg@CDC@@UAE?AVCPoint@@HH@Z 100609ce f   nafxcw:wingdi.obj
 0001:0005fa1a       ?OffsetViewportOrg@CDC@@UAE?AVCPoint@@HH@Z 10060a1a f   nafxcw:wingdi.obj
 0001:0005fa66       ?SetViewportExt@CDC@@UAE?AVCSize@@HH@Z 10060a66 f   nafxcw:wingdi.obj
 0001:0005fab2       ?ScaleViewportExt@CDC@@UAE?AVCSize@@HHHH@Z 10060ab2 f   nafxcw:wingdi.obj
 0001:0005fb0a       ?SetWindowOrg@CDC@@QAE?AVCPoint@@HH@Z 10060b0a f   nafxcw:wingdi.obj
 0001:0005fb56       ?SetWindowExt@CDC@@UAE?AVCSize@@HH@Z 10060b56 f   nafxcw:wingdi.obj
 0001:0005fba2       ?ScaleWindowExt@CDC@@UAE?AVCSize@@HHHH@Z 10060ba2 f   nafxcw:wingdi.obj
 0001:0005fbfa       ?GetClipBox@CDC@@UBEHPAUtagRECT@@@Z 10060bfa f   nafxcw:wingdi.obj
 0001:0005fc0a       ?SelectClipRgn@CDC@@QAEHPAVCRgn@@@Z 10060c0a f   nafxcw:wingdi.obj
 0001:0005fc4a       ?ExcludeClipRect@CDC@@QAEHHHHH@Z 10060c4a f   nafxcw:wingdi.obj
 0001:0005fc8c       ?ExcludeClipRect@CDC@@QAEHPBUtagRECT@@@Z 10060c8c f   nafxcw:wingdi.obj
 0001:0005fcce       ?MoveTo@CDC@@QAE?AVCPoint@@HH@Z 10060cce f   nafxcw:wingdi.obj
 0001:0005fd1a       ?LineTo@CDC@@QAEHHH@Z      10060d1a f   nafxcw:wingdi.obj
 0001:0005fd4f       ?ScreenToClient@CWnd@@QBEXPAUtagRECT@@@Z 10060d4f f   nafxcw:wingdi.obj
 0001:0005fd8b       ?ClientToScreen@CWnd@@QBEXPAUtagRECT@@@Z 10060d8b f   nafxcw:wingdi.obj
 0001:0005fdc7       ?SelectClipRgn@CDC@@QAEHPAVCRgn@@H@Z 10060dc7 f   nafxcw:wingdi.obj
 0001:0005fe0f       ?LPtoDP@CDC@@QBEXPAUtagSIZE@@@Z 10060e0f f   nafxcw:wingdi.obj
 0001:0005fe78       ?DPtoLP@CDC@@QBEXPAUtagSIZE@@@Z 10060e78 f   nafxcw:wingdi.obj
 0001:0005fee1       ??0CClientDC@@QAE@PAVCWnd@@@Z 10060ee1 f   nafxcw:wingdi.obj
 0001:0005ff37       ??_ECClientDC@@UAEPAXI@Z   10060f37 f i nafxcw:wingdi.obj
 0001:0005ff37       ??_GCClientDC@@UAEPAXI@Z   10060f37 f i nafxcw:wingdi.obj
 0001:0005ff53       ??1CClientDC@@UAE@XZ       10060f53 f   nafxcw:wingdi.obj
 0001:0005ff95       ??0CWindowDC@@QAE@PAVCWnd@@@Z 10060f95 f   nafxcw:wingdi.obj
 0001:0005ffeb       ??_GCWindowDC@@UAEPAXI@Z   10060feb f i nafxcw:wingdi.obj
 0001:0005ffeb       ??_ECWindowDC@@UAEPAXI@Z   10060feb f i nafxcw:wingdi.obj
 0001:00060007       ??1CWindowDC@@UAE@XZ       10061007 f   nafxcw:wingdi.obj
 0001:00060049       ??0CPaintDC@@QAE@PAVCWnd@@@Z 10061049 f   nafxcw:wingdi.obj
 0001:0006009f       ??_GCPaintDC@@UAEPAXI@Z    1006109f f i nafxcw:wingdi.obj
 0001:0006009f       ??_ECPaintDC@@UAEPAXI@Z    1006109f f i nafxcw:wingdi.obj
 0001:000600bb       ??1CPaintDC@@UAE@XZ        100610bb f   nafxcw:wingdi.obj
 0001:00060102       ?afxMapHGDIOBJ@@YGPAVCHandleMap@@H@Z 10061102 f   nafxcw:wingdi.obj
 0001:00060174       ?FromHandle@CGdiObject@@SGPAV1@PAX@Z 10061174 f   nafxcw:wingdi.obj
 0001:00060189       ?Attach@CGdiObject@@QAEHPAX@Z 10061189 f   nafxcw:wingdi.obj
 0001:000601b6       ?Detach@CGdiObject@@QAEPAXXZ 100611b6 f   nafxcw:wingdi.obj
 0001:000601e0       ?DeleteObject@CGdiObject@@QAEHXZ 100611e0 f   nafxcw:wingdi.obj
 0001:000601f6       ??0CPen@@QAE@HHK@Z         100611f6 f   nafxcw:wingdi.obj
 0001:00060246       ??0CBrush@@QAE@K@Z         10061246 f   nafxcw:wingdi.obj
 0001:00060290       ?AfxThrowResourceException@@YGXXZ 10061290 f   nafxcw:wingdi.obj
 0001:000602a9       ??6@YGAAVCArchive@@AAV0@ABVCString@@@Z 100612a9 f   nafxcw:arccore.obj
 0001:00060322       ?_AfxReadStringLength@@YGIAAVCArchive@@@Z 10061322 f   nafxcw:arccore.obj
 0001:00060379       ??5@YGAAVCArchive@@AAV0@AAVCString@@@Z 10061379 f   nafxcw:arccore.obj
 0001:00060411       ??0CArchive@@QAE@PAVCFile@@IHPAX@Z 10061411 f   nafxcw:arccore.obj
 0001:000604ed       ??1CArchive@@QAE@XZ        100614ed f   nafxcw:arccore.obj
 0001:00060533       ?Abort@CArchive@@QAEXXZ    10061533 f   nafxcw:arccore.obj
 0001:00060575       ?Close@CArchive@@QAEXXZ    10061575 f   nafxcw:arccore.obj
 0001:00060583       ?Read@CArchive@@QAEIPAXI@Z 10061583 f   nafxcw:arccore.obj
 0001:00060692       ?Write@CArchive@@QAEXPBXI@Z 10061692 f   nafxcw:arccore.obj
 0001:00060722       ?Flush@CArchive@@QAEXXZ    10061722 f   nafxcw:arccore.obj
 0001:0006079e       ?FillBuffer@CArchive@@QAEXI@Z 1006179e f   nafxcw:arccore.obj
 0001:00060860       ?WriteCount@CArchive@@QAEXK@Z 10061860 f   nafxcw:arccore.obj
 0001:0006088e       ?ReadCount@CArchive@@QAEKXZ 1006188e f   nafxcw:arccore.obj
 0001:000608be       ?GetErrorMessage@CArchiveException@@UAEHPADIPAI@Z 100618be f   nafxcw:arcex.obj
 0001:0006095e       ?AfxThrowArchiveException@@YGXHPBD@Z 1006195e f   nafxcw:arcex.obj
 0001:000609c3       ?OnAppExit@CWinApp@@IAEXXZ 100619c3 f   nafxcw:appui.obj
 0001:000609d6       ?_AfxIsComboBoxControl@@YGHPAUHWND__@@I@Z 100619d6 f   nafxcw:winutil.obj
 0001:00060a20       ?_AfxCompareClassName@@YGHPAUHWND__@@PBD@Z 10061a20 f   nafxcw:winutil.obj
 0001:00060a4b       ?_AfxChildWindowFromPoint@@YGPAUHWND__@@PAU1@UtagPOINT@@@Z 10061a4b f   nafxcw:winutil.obj
 0001:00060ac0       ?AfxSetWindowText@@YGXPAUHWND__@@PBD@Z 10061ac0 f   nafxcw:winutil.obj
 0001:00060b18       ?AfxDeleteObject@@YGXPAPAX@Z 10061b18 f   nafxcw:winutil.obj
 0001:00060b31       ?AfxCancelModes@@YGXPAUHWND__@@@Z 10061b31 f   nafxcw:winutil.obj
 0001:00060ba8       ?AfxGlobalFree@@YGXPAX@Z   10061ba8 f   nafxcw:winutil.obj
 0001:00060bde       ?AfxCriticalNewHandler@@YAHI@Z 10061bde f   nafxcw:winutil.obj
 0001:00060c30       ??0CMemFile@@QAE@I@Z       10061c30 f   nafxcw:filemem.obj
 0001:00060c60       ??_ECMemFile@@UAEPAXI@Z    10061c60 f i nafxcw:filemem.obj
 0001:00060c60       ??_GCMemFile@@UAEPAXI@Z    10061c60 f i nafxcw:filemem.obj
 0001:00060c7c       ?Attach@CMemFile@@QAEXPAEII@Z 10061c7c f   nafxcw:filemem.obj
 0001:00060ca7       ?Detach@CMemFile@@QAEPAEXZ 10061ca7 f   nafxcw:filemem.obj
 0001:00060cb9       ??1CMemFile@@UAE@XZ        10061cb9 f   nafxcw:filemem.obj
 0001:00060d05       ?Alloc@CMemFile@@MAEPAEK@Z 10061d05 f   nafxcw:filemem.obj
 0001:00060d12       ?Realloc@CMemFile@@MAEPAEPAEK@Z 10061d12 f   nafxcw:filemem.obj
 0001:00060d24       ?Memcpy@CMemFile@@MAEPAEPAEPBEI@Z 10061d24 f   nafxcw:filemem.obj
 0001:00060d49       ?Free@CMemFile@@MAEXPAE@Z  10061d49 f   nafxcw:filemem.obj
 0001:00060d56       ?GetPosition@CMemFile@@UBEKXZ 10061d56 f   nafxcw:filemem.obj
 0001:00060d5a       ?GrowFile@CMemFile@@MAEXK@Z 10061d5a f   nafxcw:filemem.obj
 0001:00060db3       ?SetLength@CMemFile@@UAEXK@Z 10061db3 f   nafxcw:filemem.obj
 0001:00060dd6       ?Read@CMemFile@@UAEIPAXI@Z 10061dd6 f   nafxcw:filemem.obj
 0001:00060e17       ?Write@CMemFile@@UAEXPBXI@Z 10061e17 f   nafxcw:filemem.obj
 0001:00060e59       ?Seek@CMemFile@@UAEJJI@Z   10061e59 f   nafxcw:filemem.obj
 0001:00060e9f       ?Flush@CMemFile@@UAEXXZ    10061e9f f   nafxcw:filemem.obj
 0001:00060ea0       ?Close@CMemFile@@UAEXXZ    10061ea0 f   nafxcw:filemem.obj
 0001:00060eca       ?Abort@CMemFile@@UAEXXZ    10061eca f   nafxcw:filemem.obj
 0001:00060ecf       ?UnlockRange@CMemFile@@UAEXKK@Z 10061ecf f   nafxcw:filemem.obj
 0001:00060ecf       ?LockRange@CMemFile@@UAEXKK@Z 10061ecf f   nafxcw:filemem.obj
 0001:00060ed7       ?Duplicate@CMemFile@@UBEPAVCFile@@XZ 10061ed7 f   nafxcw:filemem.obj
 0001:00060edf       ?GetBufferPtr@CMemFile@@UAEIIIPAPAX0@Z 10061edf f   nafxcw:filemem.obj
 0001:00060f86       ?EnableModeless@CWinApp@@QAEXH@Z 10061f86 f   nafxcw:appui1.obj
 0001:00060fb4       ?DoMessageBox@CWinApp@@UAEHPBDII@Z 10061fb4 f   nafxcw:appui1.obj
 0001:0006109b       ?AfxMessageBox@@YGHPBDII@Z 1006209b f   nafxcw:appui1.obj
 0001:000610d3       ?AfxMessageBox@@YGHIII@Z   100620d3 f   nafxcw:appui1.obj
 0001:0006112c       ?GetSafeOwner_@CWnd@@SGPAUHWND__@@PAU2@PAPAU2@@Z 1006212c f   nafxcw:appui1.obj
 0001:000611c8       ?GetRoutingFrame_@CCmdTarget@@KGPAVCFrameWnd@@XZ 100621c8 f   nafxcw:appui1.obj
 0001:000611d4       ?DoWaitCursor@CWinApp@@UAEXH@Z 100621d4 f   nafxcw:appui.obj
 0001:00061233       ?SaveAllModified@CWinApp@@UAEHXZ 10062233 f   nafxcw:appui.obj
 0001:00061246       ?AddToRecentFileList@CWinApp@@UAEXPBD@Z 10062246 f   nafxcw:appui.obj
 0001:0006125c       ?OpenDocumentFile@CWinApp@@UAEPAVCDocument@@PBD@Z 1006225c f   nafxcw:appui.obj
 0001:0006126e       ?OnUpdateRecentFileMenu@CWinApp@@IAEXPAVCCmdUI@@@Z 1006226e f   nafxcw:appui.obj
 0001:00061290       ?OnDDECommand@CWinApp@@UAEHPAD@Z 10062290 f   nafxcw:appui.obj
 0001:000612aa       ?OnOpenRecentFile@CWinApp@@IAEHI@Z 100622aa f   nafxcw:appui.obj
 0001:000612dd       ?PrepareCtrl@CDataExchange@@QAEPAUHWND__@@H@Z 100622dd f   nafxcw:dlgdata.obj
 0001:0006130c       ?DDX_Control@@YGXPAVCDataExchange@@HAAVCWnd@@@Z 1006230c f   nafxcw:dlgdata.obj
 0001:00061358       ?WriteProfileInt@CWinApp@@QAEHPBD0H@Z 10062358 f   nafxcw:appui3.obj
 0001:000613cd       ?AfxFormatStrings@@YGXAAVCString@@IPBQBDH@Z 100623cd f   nafxcw:apphelp.obj
 0001:00061407       ?AfxFormatStrings@@YGXAAVCString@@PBDPBQBDH@Z 10062407 f   nafxcw:apphelp.obj
 0001:00061506       ?AfxFormatString1@@YGXAAVCString@@IPBD@Z 10062506 f   nafxcw:apphelp.obj
 0001:0006151d       ??1CStatic@@UAE@XZ         1006251d f   nafxcw:winctrl1.obj
 0001:00061555       ??1CButton@@UAE@XZ         10062555 f   nafxcw:winctrl1.obj
 0001:0006158d       ?DrawItem@CButton@@UAEXPAUtagDRAWITEMSTRUCT@@@Z 1006258d f   nafxcw:winctrl1.obj
 0001:0006158d       ?DeleteItem@CComboBox@@UAEXPAUtagDELETEITEMSTRUCT@@@Z 1006258d f   nafxcw:winctrl1.obj
 0001:0006158d       ?DrawItem@CComboBox@@UAEXPAUtagDRAWITEMSTRUCT@@@Z 1006258d f   nafxcw:winctrl1.obj
 0001:0006158d       ?MeasureItem@CComboBox@@UAEXPAUtagMEASUREITEMSTRUCT@@@Z 1006258d f   nafxcw:winctrl1.obj
 0001:00061590       ?OnChildNotify@CButton@@MAEHIIJPAJ@Z 10062590 f   nafxcw:winctrl1.obj
 0001:000615be       ?GetText@CListBox@@QBEXHAAVCString@@@Z 100625be f   nafxcw:winctrl1.obj
 0001:00061601       ??1CComboBox@@UAE@XZ       10062601 f   nafxcw:winctrl1.obj
 0001:00061639       ?CompareItem@CComboBox@@UAEHPAUtagCOMPAREITEMSTRUCT@@@Z 10062639 f   nafxcw:winctrl1.obj
 0001:0006163e       ?OnChildNotify@CComboBox@@MAEHIIJPAJ@Z 1006263e f   nafxcw:winctrl1.obj
 0001:000616a5       ?Create@CEdit@@QAEHKABUtagRECT@@PAVCWnd@@I@Z 100626a5 f   nafxcw:winctrl1.obj
 0001:000616c6       ??1CEdit@@UAE@XZ           100626c6 f   nafxcw:winctrl1.obj
 0001:000616fe       ??0_AFX_CHECKLIST_STATE@@QAE@XZ 100626fe f   nafxcw:winctrl3.obj
 0001:000617a0       ??_E_AFX_CHECKLIST_STATE@@UAEPAXI@Z 100627a0 f i nafxcw:winctrl3.obj
 0001:000617a0       ??_G_AFX_CHECKLIST_STATE@@UAEPAXI@Z 100627a0 f i nafxcw:winctrl3.obj
 0001:000617bb       ??1_AFX_CHECKLIST_STATE@@UAE@XZ 100627bb f   nafxcw:winctrl3.obj
 0001:000617d0       ?SetCheck@CCheckListBox@@QAEXHH@Z 100627d0 f   nafxcw:winctrl3.obj
 0001:0006184b       ?GetCheck@CCheckListBox@@QAEHH@Z 1006284b f   nafxcw:winctrl3.obj
 0001:00061870       ?IsEnabled@CCheckListBox@@QAEHH@Z 10062870 f   nafxcw:winctrl3.obj
 0001:00061897       ?CalcMinimumItemHeight@CCheckListBox@@IAEHXZ 10062897 f   nafxcw:winctrl3.obj
 0001:00061932       ?InvalidateCheck@CCheckListBox@@IAEXH@Z 10062932 f   nafxcw:winctrl3.obj
 0001:00061984       ?CheckFromPoint@CCheckListBox@@IAEHVCPoint@@AAH@Z 10062984 f   nafxcw:winctrl3.obj
 0001:00061a84       ?SetSelectionCheck@CCheckListBox@@IAEXH@Z 10062a84 f   nafxcw:winctrl3.obj
 0001:00061afc       ?OnLButtonDown@CCheckListBox@@IAEXIVCPoint@@@Z 10062afc f   nafxcw:winctrl3.obj
 0001:00061bf9       ?OnLButtonDblClk@CCheckListBox@@IAEXIVCPoint@@@Z 10062bf9 f   nafxcw:winctrl3.obj
 0001:00061c33       ?OnKeyDown@CCheckListBox@@IAEXIII@Z 10062c33 f   nafxcw:winctrl3.obj
 0001:00061da0       ?OnCreate@CCheckListBox@@IAEHPAUtagCREATESTRUCTA@@@Z 10062da0 f   nafxcw:winctrl3.obj
 0001:00061de0       ?OnSetFont@CCheckListBox@@IAEJIJ@Z 10062de0 f   nafxcw:winctrl3.obj
 0001:00061e17       ?OnLBAddString@CCheckListBox@@IAEJIJ@Z 10062e17 f   nafxcw:winctrl3.obj
 0001:00061e7f       ?OnLBFindString@CCheckListBox@@IAEJIJ@Z 10062e7f f   nafxcw:winctrl3.obj
 0001:00061f00       ?OnLBFindStringExact@CCheckListBox@@IAEJIJ@Z 10062f00 f   nafxcw:winctrl3.obj
 0001:00061f81       ?OnLBGetItemData@CCheckListBox@@IAEJIJ@Z 10062f81 f   nafxcw:winctrl3.obj
 0001:00061fa5       ?OnLBGetText@CCheckListBox@@IAEJIJ@Z 10062fa5 f   nafxcw:winctrl3.obj
 0001:00061fce       ?OnLBInsertString@CCheckListBox@@IAEJIJ@Z 10062fce f   nafxcw:winctrl3.obj
 0001:00062036       ?OnLBSelectString@CCheckListBox@@IAEJIJ@Z 10063036 f   nafxcw:winctrl3.obj
 0001:000620c6       ?OnLBSetItemData@CCheckListBox@@IAEJIJ@Z 100630c6 f   nafxcw:winctrl3.obj
 0001:0006213a       ?OnLBSetItemHeight@CCheckListBox@@IAEJIJ@Z 1006313a f   nafxcw:winctrl3.obj
 0001:00062173       ?AfxWingdixTerm@@YAXXZ     10063173 f   nafxcw:wingdix.obj
 0001:00062194       ?FillSolidRect@CDC@@QAEXPBUtagRECT@@K@Z 10063194 f   nafxcw:wingdix.obj
 0001:000621be       ?FillSolidRect@CDC@@QAEXHHHHK@Z 100631be f   nafxcw:wingdix.obj
 0001:0006220a       ?AfxOleCanExitApp@@YGHXZ   1006320a f   nafxcw:olelock.obj
 0001:0006221a       ?AfxOleGetUserCtrl@@YGHXZ  1006321a f   nafxcw:olelock.obj
 0001:00062223       ?GetRuntimeClass@CMemoryException@@UBEPAUCRuntimeClass@@XZ 10063223 f   nafxcw:except.obj
 0001:0006225b       ?GetRuntimeClass@CNotSupportedException@@UBEPAUCRuntimeClass@@XZ 1006325b f   nafxcw:except.obj
 0001:00062293       ?CreateObject@?$CThreadLocal@V_AFX_THREAD_STATE@@@@SGPAVCNoTrackObject@@XZ 10063293 f i nafxcw:except.obj
 0001:000622c7       ?GetRuntimeClass@CFile@@UBEPAUCRuntimeClass@@XZ 100632c7 f   nafxcw:filecore.obj
 0001:000622cd       ?GetRuntimeClass@CMemFile@@UBEPAUCRuntimeClass@@XZ 100632cd f   nafxcw:filemem.obj
 0001:000622d3       ?GetRuntimeClass@CResourceException@@UBEPAUCRuntimeClass@@XZ 100632d3 f   nafxcw:wingdi.obj
 0001:0006230b       ?GetRuntimeClass@CUserException@@UBEPAUCRuntimeClass@@XZ 1006330b f   nafxcw:wingdi.obj
 0001:00062343       ?CreateObject@CDC@@SGPAVCObject@@XZ 10063343 f   nafxcw:wingdi.obj
 0001:0006235a       ?GetRuntimeClass@CDC@@UBEPAUCRuntimeClass@@XZ 1006335a f   nafxcw:wingdi.obj
 0001:00062360       ?GetRuntimeClass@CClientDC@@UBEPAUCRuntimeClass@@XZ 10063360 f   nafxcw:wingdi.obj
 0001:00062366       ?GetRuntimeClass@CWindowDC@@UBEPAUCRuntimeClass@@XZ 10063366 f   nafxcw:wingdi.obj
 0001:0006236c       ?GetRuntimeClass@CPaintDC@@UBEPAUCRuntimeClass@@XZ 1006336c f   nafxcw:wingdi.obj
 0001:00062372       ?CreateObject@CGdiObject@@SGPAVCObject@@XZ 10063372 f   nafxcw:wingdi.obj
 0001:0006238c       ?GetRuntimeClass@CGdiObject@@UBEPAUCRuntimeClass@@XZ 1006338c f   nafxcw:wingdi.obj
 0001:00062392       ?GetRuntimeClass@CPen@@UBEPAUCRuntimeClass@@XZ 10063392 f   nafxcw:wingdi.obj
 0001:00062398       ?GetRuntimeClass@CBrush@@UBEPAUCRuntimeClass@@XZ 10063398 f   nafxcw:wingdi.obj
 0001:0006239e       ?GetRuntimeClass@CFont@@UBEPAUCRuntimeClass@@XZ 1006339e f   nafxcw:wingdi.obj
 0001:000623a4       ?GetRuntimeClass@CBitmap@@UBEPAUCRuntimeClass@@XZ 100633a4 f   nafxcw:wingdi.obj
 0001:000623aa       ?GetRuntimeClass@CPalette@@UBEPAUCRuntimeClass@@XZ 100633aa f   nafxcw:wingdi.obj
 0001:000623b0       ?GetRuntimeClass@CRgn@@UBEPAUCRuntimeClass@@XZ 100633b0 f   nafxcw:wingdi.obj
 0001:000623b6       ?CreateObject@CTempDC@@SGPAVCObject@@XZ 100633b6 f   nafxcw:wingdi.obj
 0001:000623dc       ??_GCTempDC@@UAEPAXI@Z     100633dc f i nafxcw:wingdi.obj
 0001:000623dc       ??_ECTempDC@@UAEPAXI@Z     100633dc f i nafxcw:wingdi.obj
 0001:000623fc       ??1CTempDC@@UAE@XZ         100633fc f i nafxcw:wingdi.obj
 0001:00062401       ?GetRuntimeClass@CTempDC@@UBEPAUCRuntimeClass@@XZ 10063401 f   nafxcw:wingdi.obj
 0001:00062407       ?CreateObject@CTempGdiObject@@SGPAVCObject@@XZ 10063407 f   nafxcw:wingdi.obj
 0001:00062423       ??_GCTempGdiObject@@UAEPAXI@Z 10063423 f i nafxcw:wingdi.obj
 0001:00062423       ??_ECTempGdiObject@@UAEPAXI@Z 10063423 f i nafxcw:wingdi.obj
 0001:00062443       ??1CTempGdiObject@@UAE@XZ  10063443 f i nafxcw:wingdi.obj
 0001:0006246c       ?GetRuntimeClass@CTempGdiObject@@UBEPAUCRuntimeClass@@XZ 1006346c f   nafxcw:wingdi.obj
 0001:000624f2       ?GetRuntimeClass@CDialog@@UBEPAUCRuntimeClass@@XZ 100634f2 f   nafxcw:dlgcore.obj
 0001:000624f8       ?CreateObject@CWnd@@SGPAVCObject@@XZ 100634f8 f   nafxcw:wincore.obj
 0001:0006252a       ?GetRuntimeClass@CWnd@@UBEPAUCRuntimeClass@@XZ 1006352a f   nafxcw:wincore.obj
 0001:00062530       ?CreateObject@CTempWnd@@SGPAVCObject@@XZ 10063530 f   nafxcw:wincore.obj
 0001:00062570       ??_ECTempWnd@@UAEPAXI@Z    10063570 f i nafxcw:wincore.obj
 0001:00062570       ??_GCTempWnd@@UAEPAXI@Z    10063570 f i nafxcw:wincore.obj
 0001:00062590       ??1CTempWnd@@UAE@XZ        10063590 f i nafxcw:wincore.obj
 0001:00062595       ?GetRuntimeClass@CTempWnd@@UBEPAUCRuntimeClass@@XZ 10063595 f   nafxcw:wincore.obj
 0001:000625db       ?CreateObject@?$CProcessLocal@V_AFX_WIN_STATE@@@@SGPAVCNoTrackObject@@XZ 100635db f i nafxcw:wincore.obj
 0001:0006260c       ?CreateObject@?$CProcessLocal@V_AFX_CTL3D_STATE@@@@SGPAVCNoTrackObject@@XZ 1006360c f i nafxcw:wincore.obj
 0001:00062621       ??_E_AFX_CTL3D_STATE@@UAEPAXI@Z 10063621 f i nafxcw:wincore.obj
 0001:00062621       ??_G_AFX_CTL3D_STATE@@UAEPAXI@Z 10063621 f i nafxcw:wincore.obj
 0001:0006263c       ?GetRuntimeClass@CPtrArray@@UBEPAUCRuntimeClass@@XZ 1006363c f   nafxcw:array_p.obj
 0001:00062642       ?GetRuntimeClass@CStatic@@UBEPAUCRuntimeClass@@XZ 10063642 f   nafxcw:winctrl1.obj
 0001:00062648       ?GetRuntimeClass@CButton@@UBEPAUCRuntimeClass@@XZ 10063648 f   nafxcw:winctrl1.obj
 0001:0006264e       ?GetRuntimeClass@CComboBox@@UBEPAUCRuntimeClass@@XZ 1006364e f   nafxcw:winctrl1.obj
 0001:00062654       ?GetRuntimeClass@CEdit@@UBEPAUCRuntimeClass@@XZ 10063654 f   nafxcw:winctrl1.obj
 0001:0006267b       ?CreateObject@?$CProcessLocal@V_AFX_CHECKLIST_STATE@@@@SGPAVCNoTrackObject@@XZ 1006367b f i nafxcw:winctrl3.obj
 0001:000626ac       ?GetRuntimeClass@CFileDialog@@UBEPAUCRuntimeClass@@XZ 100636ac f   nafxcw:dlgfile.obj
 0001:000626b2       ??0_AFX_THREAD_STATE@@QAE@XZ 100636b2 f   nafxcw:afxstate.obj
 0001:000626c9       ??_G_AFX_THREAD_STATE@@UAEPAXI@Z 100636c9 f i nafxcw:afxstate.obj
 0001:000626c9       ??_E_AFX_THREAD_STATE@@UAEPAXI@Z 100636c9 f i nafxcw:afxstate.obj
 0001:000626e4       ??1_AFX_THREAD_STATE@@UAE@XZ 100636e4 f   nafxcw:afxstate.obj
 0001:00062758       ?AfxGetThreadState@@YGPAV_AFX_THREAD_STATE@@XZ 10063758 f   nafxcw:afxstate.obj
 0001:00062789       ??0AFX_MODULE_STATE@@QAE@H@Z 10063789 f   nafxcw:afxstate.obj
 0001:000627ec       ??_GAFX_MODULE_STATE@@UAEPAXI@Z 100637ec f i nafxcw:afxstate.obj
 0001:000627ec       ??_EAFX_MODULE_STATE@@UAEPAXI@Z 100637ec f i nafxcw:afxstate.obj
 0001:00062807       ??1AFX_MODULE_STATE@@UAE@XZ 10063807 f   nafxcw:afxstate.obj
 0001:0006287c       ??0AFX_MODULE_THREAD_STATE@@QAE@XZ 1006387c f   nafxcw:afxstate.obj
 0001:0006289b       ??_GAFX_MODULE_THREAD_STATE@@UAEPAXI@Z 1006389b f i nafxcw:afxstate.obj
 0001:0006289b       ??_EAFX_MODULE_THREAD_STATE@@UAEPAXI@Z 1006389b f i nafxcw:afxstate.obj
 0001:000628b6       ??1AFX_MODULE_THREAD_STATE@@UAE@XZ 100638b6 f   nafxcw:afxstate.obj
 0001:00062985       ?AfxGetModuleState@@YGPAVAFX_MODULE_STATE@@XZ 10063985 f   nafxcw:afxstate.obj
 0001:000629ab       ?AfxGetModuleThreadState@@YGPAVAFX_MODULE_THREAD_STATE@@XZ 100639ab f   nafxcw:afxstate.obj
 0001:000629c2       ?Unlock@CTypeLibCache@@QAEXXZ 100639c2 f   nafxcw:afxstate.obj
 0001:000629f7       ?CreateObject@?$CThreadLocal@VAFX_MODULE_THREAD_STATE@@@@SGPAVCNoTrackObject@@XZ 100639f7 f i nafxcw:afxstate.obj
 0001:00062a0d       ?CreateObject@?$CProcessLocal@V_AFX_BASE_MODULE_STATE@@@@SGPAVCNoTrackObject@@XZ 10063a0d f i nafxcw:afxstate.obj
 0001:00062a35       ??_G_AFX_BASE_MODULE_STATE@@UAEPAXI@Z 10063a35 f i nafxcw:afxstate.obj
 0001:00062a35       ??_E_AFX_BASE_MODULE_STATE@@UAEPAXI@Z 10063a35 f i nafxcw:afxstate.obj
 0001:00062a50       ??1_AFX_BASE_MODULE_STATE@@UAE@XZ 10063a50 f i nafxcw:afxstate.obj
 0001:00062a55       ?CreateObject@CStringArray@@SGPAVCObject@@XZ 10063a55 f   nafxcw:array_s.obj
 0001:00062a6c       ?GetRuntimeClass@CStringArray@@UBEPAUCRuntimeClass@@XZ 10063a6c f   nafxcw:array_s.obj
 0001:00062a82       ?AddHead@CSimpleList@@QAEXPAX@Z 10063a82 f   nafxcw:afxtls.obj
 0001:00062a95       ?Remove@CSimpleList@@QAEHPAX@Z 10063a95 f   nafxcw:afxtls.obj
 0001:00062adb       ??2CNoTrackObject@@SGPAXI@Z 10063adb f   nafxcw:afxtls.obj
 0001:00062af9       ??3CNoTrackObject@@SGXPAX@Z 10063af9 f   nafxcw:afxtls.obj
 0001:00062b0d       ??0CThreadSlotData@@QAE@XZ 10063b0d f   nafxcw:afxtls.obj
 0001:00062b4f       ??1CThreadSlotData@@QAE@XZ 10063b4f f   nafxcw:afxtls.obj
 0001:00062ba6       ?AllocSlot@CThreadSlotData@@QAEHXZ 10063ba6 f   nafxcw:afxtls.obj
 0001:00062cb8       ?FreeSlot@CThreadSlotData@@QAEXH@Z 10063cb8 f   nafxcw:afxtls.obj
 0001:00062d15       ?SetValue@CThreadSlotData@@QAEXHPAX@Z 10063d15 f   nafxcw:afxtls.obj
 0001:00062dff       ??_ECThreadData@@UAEPAXI@Z 10063dff f i nafxcw:afxtls.obj
 0001:00062dff       ??_GCThreadData@@UAEPAXI@Z 10063dff f i nafxcw:afxtls.obj
 0001:00062e1a       ??1CThreadData@@UAE@XZ     10063e1a f i nafxcw:afxtls.obj
 0001:00062e1b       ?AssignInstance@CThreadSlotData@@QAEXPAUHINSTANCE__@@@Z 10063e1b f   nafxcw:afxtls.obj
 0001:00062e5c       ?DeleteValues@CThreadSlotData@@QAEXPAUCThreadData@@PAUHINSTANCE__@@@Z 10063e5c f   nafxcw:afxtls.obj
 0001:00062ef5       ?DeleteValues@CThreadSlotData@@QAEXPAUHINSTANCE__@@H@Z 10063ef5 f   nafxcw:afxtls.obj
 0001:00062f4e       ?GetData@CThreadLocalObject@@QAEPAVCNoTrackObject@@P6GPAV2@XZ@Z 10063f4e f   nafxcw:afxtls.obj
 0001:00062fc5       ?GetDataNA@CThreadLocalObject@@QAEPAVCNoTrackObject@@XZ 10063fc5 f   nafxcw:afxtls.obj
 0001:00062ff2       ??1CThreadLocalObject@@QAE@XZ 10063ff2 f   nafxcw:afxtls.obj
 0001:00063010       ?GetData@CProcessLocalObject@@QAEPAVCNoTrackObject@@P6GPAV2@XZ@Z 10064010 f   nafxcw:afxtls.obj
 0001:0006306b       ??1CProcessLocalObject@@QAE@XZ 1006406b f   nafxcw:afxtls.obj
 0001:00063090       ?AfxInitLocalData@@YGXPAUHINSTANCE__@@@Z 10064090 f   nafxcw:afxtls.obj
 0001:000630a6       ?AfxTermLocalData@@YGXPAUHINSTANCE__@@H@Z 100640a6 f   nafxcw:afxtls.obj
 0001:000630c0       ?AfxTlsAddRef@@YGXXZ       100640c0 f   nafxcw:afxtls.obj
 0001:000630c7       ?AfxTlsRelease@@YGXXZ      100640c7 f   nafxcw:afxtls.obj
 0001:000630ef       ??0_AFX_WIN_STATE@@QAE@XZ  100640ef f   nafxcw:appcore.obj
 0001:000630f8       ??_G_AFX_WIN_STATE@@UAEPAXI@Z 100640f8 f i nafxcw:appcore.obj
 0001:000630f8       ??_E_AFX_WIN_STATE@@UAEPAXI@Z 100640f8 f i nafxcw:appcore.obj
 0001:00063113       ??0CWinApp@@QAE@PBD@Z      10064113 f   nafxcw:appcore.obj
 0001:000631fd       ??_ECWinApp@@UAEPAXI@Z     100641fd f i nafxcw:appcore.obj
 0001:000631fd       ??_GCWinApp@@UAEPAXI@Z     100641fd f i nafxcw:appcore.obj
 0001:00063219       ?InitApplication@CWinApp@@UAEHXZ 10064219 f   nafxcw:appcore.obj
 0001:00063259       ?InitInstance@CWinApp@@UAEHXZ 10064259 f   nafxcw:appcore.obj
 0001:0006325d       ??1CWinApp@@UAE@XZ         1006425d f   nafxcw:appcore.obj
 0001:00063393       ?SaveStdProfileSettings@CWinApp@@IAEXXZ 10064393 f   nafxcw:appcore.obj
 0001:000633c3       ?ExitInstance@CWinApp@@UAEHXZ 100643c3 f   nafxcw:appcore.obj
 0001:000633f9       ?GetRuntimeClass@CWinApp@@UBEPAUCRuntimeClass@@XZ 100643f9 f   nafxcw:appcore.obj
 0001:00063420       ??1?$CProcessLocal@V_AFX_CHECKLIST_STATE@@@@QAE@XZ 10064420 f i nafxcw:appcore.obj
 0001:00063420       ??1?$CProcessLocal@V_AFX_COLOR_STATE@@@@QAE@XZ 10064420 f i nafxcw:appcore.obj
 0001:00063420       ??1?$CProcessLocal@V_AFX_BASE_MODULE_STATE@@@@QAE@XZ 10064420 f i nafxcw:appcore.obj
 0001:00063420       ??1?$CProcessLocal@V_AFX_CTL3D_STATE@@@@QAE@XZ 10064420 f i nafxcw:appcore.obj
 0001:00063420       ??1?$CProcessLocal@V_AFX_WIN_STATE@@@@QAE@XZ 10064420 f i nafxcw:appcore.obj
 0001:00063425       ?GetRuntimeClass@CProgressCtrl@@UBEPAUCRuntimeClass@@XZ 10064425 f   nafxcw:winctrl2.obj
 0001:0006342b       ?CreateObject@CImageList@@SGPAVCObject@@XZ 1006442b f   nafxcw:winctrl2.obj
 0001:00063442       ?GetRuntimeClass@CImageList@@UBEPAUCRuntimeClass@@XZ 10064442 f   nafxcw:winctrl2.obj
 0001:00063448       ?CreateObject@CTempImageList@@SGPAVCObject@@XZ 10064448 f   nafxcw:winctrl2.obj
 0001:0006346e       ??_ECTempImageList@@UAEPAXI@Z 1006446e f i nafxcw:winctrl2.obj
 0001:0006346e       ??_GCTempImageList@@UAEPAXI@Z 1006446e f i nafxcw:winctrl2.obj
 0001:0006348e       ??1CTempImageList@@UAE@XZ  1006448e f i nafxcw:winctrl2.obj
 0001:00063493       ?GetRuntimeClass@CTempImageList@@UBEPAUCRuntimeClass@@XZ 10064493 f   nafxcw:winctrl2.obj
 0001:000634d9       ?GetRuntimeClass@CArchiveException@@UBEPAUCRuntimeClass@@XZ 100644d9 f   nafxcw:arcex.obj
 0001:000634df       ?_AfxLoadDotBitmap@@YGXXZ  100644df f   nafxcw:cmdtarg.obj
 0001:000635bf       ??_GCWinThread@@UAEPAXI@Z  100645bf f i nafxcw:thrdcore.obj
 0001:000635bf       ??_ECWinThread@@UAEPAXI@Z  100645bf f i nafxcw:thrdcore.obj
 0001:000635db       ??0CWinThread@@QAE@XZ      100645db f   nafxcw:thrdcore.obj
 0001:00063618       ?CommonConstruct@CWinThread@@QAEXXZ 10064618 f   nafxcw:thrdcore.obj
 0001:0006364a       ?GetRuntimeClass@CWinThread@@UBEPAUCRuntimeClass@@XZ 1006464a f   nafxcw:thrdcore.obj
 0001:00063650       ?CreateObject@?$CThreadLocal@V_AFX_CTL3D_THREAD@@@@SGPAVCNoTrackObject@@XZ 10064650 f i nafxcw:thrdcore.obj
 0001:00063665       ??_G_AFX_CTL3D_THREAD@@UAEPAXI@Z 10064665 f i nafxcw:thrdcore.obj
 0001:00063665       ??_E_AFX_CTL3D_THREAD@@UAEPAXI@Z 10064665 f i nafxcw:thrdcore.obj
 0001:00063680       ?CreateObject@CDWordArray@@SGPAVCObject@@XZ 10064680 f   nafxcw:array_d.obj
 0001:00063697       ?GetRuntimeClass@CDWordArray@@UBEPAUCRuntimeClass@@XZ 10064697 f   nafxcw:array_d.obj
 0001:000636ad       ?CreateObject@CWordArray@@SGPAVCObject@@XZ 100646ad f   nafxcw:array_w.obj
 0001:000636c4       ?GetRuntimeClass@CWordArray@@UBEPAUCRuntimeClass@@XZ 100646c4 f   nafxcw:array_w.obj
 0001:000636da       ?CreateObject@CMenu@@SGPAVCObject@@XZ 100646da f   nafxcw:winmenu.obj
 0001:000636f4       ?GetRuntimeClass@CMenu@@UBEPAUCRuntimeClass@@XZ 100646f4 f   nafxcw:winmenu.obj
 0001:000636fa       ?CreateObject@CTempMenu@@SGPAVCObject@@XZ 100646fa f   nafxcw:winmenu.obj
 0001:00063716       ??_GCTempMenu@@UAEPAXI@Z   10064716 f i nafxcw:winmenu.obj
 0001:00063716       ??_ECTempMenu@@UAEPAXI@Z   10064716 f i nafxcw:winmenu.obj
 0001:00063736       ??1CTempMenu@@UAE@XZ       10064736 f i nafxcw:winmenu.obj
 0001:0006375f       ?GetRuntimeClass@CTempMenu@@UBEPAUCRuntimeClass@@XZ 1006475f f   nafxcw:winmenu.obj
 0001:000637a5       ?GetRuntimeClass@CFileException@@UBEPAUCRuntimeClass@@XZ 100647a5 f   nafxcw:filex.obj
 0001:000637ab       ?GetRuntimeClass@CMapPtrToPtr@@UBEPAUCRuntimeClass@@XZ 100647ab f   nafxcw:map_pp.obj
 0001:000637b1       ?GetRuntimeClass@CToolTipCtrl@@UBEPAUCRuntimeClass@@XZ 100647b1 f   nafxcw:tooltip.obj
 0001:000637b7       ?GetRuntimeClass@CColorDialog@@UBEPAUCRuntimeClass@@XZ 100647b7 f   nafxcw:dlgclr.obj
 0001:000637de       ?CreateObject@?$CProcessLocal@V_AFX_COLOR_STATE@@@@SGPAVCNoTrackObject@@XZ 100647de f i nafxcw:dlgclr.obj
 0001:000637f4       ?AfxWinInit@@YGHPAUHINSTANCE__@@0PADH@Z 100647f4 f   nafxcw:appinit.obj
 0001:00063857       ?SetCurrentHandles@CWinApp@@QAEXXZ 10064857 f   nafxcw:appinit.obj
 0001:00063974       ?AfxGetFileName@@YGIPBDPADI@Z 10064974 f   nafxcw:appinit.obj
 0001:000639ca       ?AfxCriticalInit@@YGHXZ    100649ca f   nafxcw:afxcrit.obj
 0001:00063a0f       ?AfxCriticalTerm@@YGXXZ    10064a0f f   nafxcw:afxcrit.obj
 0001:00063a5d       ?AfxLockGlobals@@YGXH@Z    10064a5d f   nafxcw:afxcrit.obj
 0001:00063acd       ?AfxUnlockGlobals@@YGXH@Z  10064acd f   nafxcw:afxcrit.obj
 0001:00063aee       ??1_AFX_CTL3D_STATE@@UAE@XZ 10064aee f   nafxcw:app3d.obj
 0001:00063b2f       ??1_AFX_CTL3D_THREAD@@UAE@XZ 10064b2f f   nafxcw:app3d.obj
 0001:00063b65       ?AfxGetCtl3dState@@YGPAV_AFX_CTL3D_STATE@@XZ 10064b65 f   nafxcw:app3d.obj
 0001:00063b96       ??1?$CThreadLocal@VAFX_MODULE_THREAD_STATE@@@@QAE@XZ 10064b96 f i nafxcw:app3d.obj
 0001:00063b96       ??1?$CThreadLocal@V_AFX_CTL3D_THREAD@@@@QAE@XZ 10064b96 f i nafxcw:app3d.obj
 0001:00063b96       ??1?$CThreadLocal@V_AFX_THREAD_STATE@@@@QAE@XZ 10064b96 f i nafxcw:app3d.obj
 0001:00063be6       ?AfxEnableWin40Compatibility@@YGXXZ 10064be6 f   nafxcw:auxdata.obj
 0001:00063c16       ?AfxEnableWin31Compatibility@@YGXXZ 10064c16 f   nafxcw:auxdata.obj
 0001:00063c38       ??0AUX_DATA@@QAE@XZ        10064c38 f   nafxcw:auxdata.obj
 0001:00063cd3       ?_AfxInitDBCS@@YGHXZ       10064cd3 f   nafxcw:afxdbcs.obj
 0001:00063d06       ?GetAppRegistryKey@CWinApp@@QAEPAUHKEY__@@XZ 10064d06 f   nafxcw:appui3.obj
 0001:00063d9a       ?GetSectionKey@CWinApp@@QAEPAUHKEY__@@PBD@Z 10064d9a f   nafxcw:appui3.obj
 0001:00063de0       ?GetRuntimeClass@CMapStringToPtr@@UBEPAUCRuntimeClass@@XZ 10064de0 f   nafxcw:map_sp.obj
 0001:00063de6       ??1_AFX_WIN_STATE@@UAE@XZ  10064de6 f   nafxcw:appcore.obj
 0001:00063e13       ?AfxPostQuitMessage@@YGXH@Z 10064e13 f   nafxcw:appcore.obj
 0001:00063e36       ??1CWinThread@@UAE@XZ      10064e36 f   nafxcw:thrdcore.obj
 0001:00063e85       ?AfxWinTerm@@YGXXZ         10064e85 f   nafxcw:appterm.obj
 0001:00063f3a       ??1AUX_DATA@@QAE@XZ        10064f3a f   nafxcw:auxdata.obj
 0002:00000000       __imp__RegQueryValueA@16   10069000     advapi32:ADVAPI32.dll
 0002:00000004       __imp__RegCloseKey@4       10069004     advapi32:ADVAPI32.dll
 0002:00000008       __imp__RegOpenKeyExA@20    10069008     advapi32:ADVAPI32.dll
 0002:0000000c       __imp__RegSetValueExA@24   1006900c     advapi32:ADVAPI32.dll
 0002:00000010       __imp__RegCreateKeyExA@36  10069010     advapi32:ADVAPI32.dll
 0002:00000014       \177ADVAPI32_NULL_THUNK_DATA 10069014     advapi32:ADVAPI32.dll
 0002:00000018       __imp__ImageList_Destroy@4 10069018     comctl32:COMCTL32.dll
 0002:0000001c       __imp__InitCommonControls@0 1006901c     comctl32:COMCTL32.dll
 0002:00000020       \177COMCTL32_NULL_THUNK_DATA 10069020     comctl32:COMCTL32.dll
 0002:00000024       __imp__CreateRectRgnIndirect@4 10069024     gdi32:GDI32.dll
 0002:00000028       __imp__SetStretchBltMode@8 10069028     gdi32:GDI32.dll
 0002:0000002c       __imp__GetClipRgn@8        1006902c     gdi32:GDI32.dll
 0002:00000030       __imp__CreatePolygonRgn@12 10069030     gdi32:GDI32.dll
 0002:00000034       __imp__SelectClipRgn@8     10069034     gdi32:GDI32.dll
 0002:00000038       __imp__DeleteObject@4      10069038     gdi32:GDI32.dll
 0002:0000003c       __imp__CreateDIBitmap@24   1006903c     gdi32:GDI32.dll
 0002:00000040       __imp__GetSystemPaletteEntries@16 10069040     gdi32:GDI32.dll
 0002:00000044       __imp__CreatePalette@4     10069044     gdi32:GDI32.dll
 0002:00000048       __imp__StretchBlt@44       10069048     gdi32:GDI32.dll
 0002:0000004c       __imp__SelectPalette@12    1006904c     gdi32:GDI32.dll
 0002:00000050       __imp__RealizePalette@4    10069050     gdi32:GDI32.dll
 0002:00000054       __imp__GetDIBits@28        10069054     gdi32:GDI32.dll
 0002:00000058       __imp__BeginPath@4         10069058     gdi32:GDI32.dll
 0002:0000005c       __imp__EndPath@4           1006905c     gdi32:GDI32.dll
 0002:00000060       __imp__PathToRegion@4      10069060     gdi32:GDI32.dll
 0002:00000064       __imp__CreateEllipticRgn@16 10069064     gdi32:GDI32.dll
 0002:00000068       __imp__CreateRoundRectRgn@24 10069068     gdi32:GDI32.dll
 0002:0000006c       __imp__GetWindowExtEx@8    1006906c     gdi32:GDI32.dll
 0002:00000070       __imp__GetViewportOrgEx@8  10069070     gdi32:GDI32.dll
 0002:00000074       __imp__GetWindowOrgEx@8    10069074     gdi32:GDI32.dll
 0002:00000078       __imp__GetTextColor@4      10069078     gdi32:GDI32.dll
 0002:0000007c       __imp__GetBkMode@4         1006907c     gdi32:GDI32.dll
 0002:00000080       __imp__GetBkColor@4        10069080     gdi32:GDI32.dll
 0002:00000084       __imp__GetROP2@4           10069084     gdi32:GDI32.dll
 0002:00000088       __imp__GetStretchBltMode@4 10069088     gdi32:GDI32.dll
 0002:0000008c       __imp__GetPolyFillMode@4   1006908c     gdi32:GDI32.dll
 0002:00000090       __imp__CreateCompatibleBitmap@12 10069090     gdi32:GDI32.dll
 0002:00000094       __imp__CreateDCA@16        10069094     gdi32:GDI32.dll
 0002:00000098       __imp__CreateBitmap@20     10069098     gdi32:GDI32.dll
 0002:0000009c       __imp__SelectObject@8      1006909c     gdi32:GDI32.dll
 0002:000000a0       __imp__GetObjectA@12       100690a0     gdi32:GDI32.dll
 0002:000000a4       __imp__CreatePen@12        100690a4     gdi32:GDI32.dll
 0002:000000a8       __imp__PatBlt@24           100690a8     gdi32:GDI32.dll
 0002:000000ac       __imp__FillRgn@12          100690ac     gdi32:GDI32.dll
 0002:000000b0       __imp__CreateRectRgn@16    100690b0     gdi32:GDI32.dll
 0002:000000b4       __imp__CombineRgn@16       100690b4     gdi32:GDI32.dll
 0002:000000b8       __imp__CreateSolidBrush@4  100690b8     gdi32:GDI32.dll
 0002:000000bc       __imp__GetStockObject@4    100690bc     gdi32:GDI32.dll
 0002:000000c0       __imp__CreateFontIndirectA@4 100690c0     gdi32:GDI32.dll
 0002:000000c4       __imp__EndPage@4           100690c4     gdi32:GDI32.dll
 0002:000000c8       __imp__EndDoc@4            100690c8     gdi32:GDI32.dll
 0002:000000cc       __imp__DeleteDC@4          100690cc     gdi32:GDI32.dll
 0002:000000d0       __imp__StartDocA@8         100690d0     gdi32:GDI32.dll
 0002:000000d4       __imp__StartPage@4         100690d4     gdi32:GDI32.dll
 0002:000000d8       __imp__BitBlt@36           100690d8     gdi32:GDI32.dll
 0002:000000dc       __imp__CreateCompatibleDC@4 100690dc     gdi32:GDI32.dll
 0002:000000e0       __imp__Ellipse@20          100690e0     gdi32:GDI32.dll
 0002:000000e4       __imp__Rectangle@20        100690e4     gdi32:GDI32.dll
 0002:000000e8       __imp__LPtoDP@12           100690e8     gdi32:GDI32.dll
 0002:000000ec       __imp__DPtoLP@12           100690ec     gdi32:GDI32.dll
 0002:000000f0       __imp__GetCurrentObject@8  100690f0     gdi32:GDI32.dll
 0002:000000f4       __imp__RoundRect@28        100690f4     gdi32:GDI32.dll
 0002:000000f8       __imp__GetTextExtentPoint32A@16 100690f8     gdi32:GDI32.dll
 0002:000000fc       __imp__GetDeviceCaps@8     100690fc     gdi32:GDI32.dll
 0002:00000100       __imp__SaveDC@4            10069100     gdi32:GDI32.dll
 0002:00000104       __imp__RestoreDC@8         10069104     gdi32:GDI32.dll
 0002:00000108       __imp__SetBkMode@8         10069108     gdi32:GDI32.dll
 0002:0000010c       __imp__SetPolyFillMode@8   1006910c     gdi32:GDI32.dll
 0002:00000110       __imp__SetROP2@8           10069110     gdi32:GDI32.dll
 0002:00000114       __imp__SetTextColor@8      10069114     gdi32:GDI32.dll
 0002:00000118       __imp__GetTextMetricsA@8   10069118     gdi32:GDI32.dll
 0002:0000011c       __imp__Escape@20           1006911c     gdi32:GDI32.dll
 0002:00000120       __imp__ExtTextOutA@32      10069120     gdi32:GDI32.dll
 0002:00000124       __imp__TextOutA@20         10069124     gdi32:GDI32.dll
 0002:00000128       __imp__RectVisible@8       10069128     gdi32:GDI32.dll
 0002:0000012c       __imp__PtVisible@12        1006912c     gdi32:GDI32.dll
 0002:00000130       __imp__GetViewportExtEx@8  10069130     gdi32:GDI32.dll
 0002:00000134       __imp__ExtSelectClipRgn@12 10069134     gdi32:GDI32.dll
 0002:00000138       __imp__LineTo@12           10069138     gdi32:GDI32.dll
 0002:0000013c       __imp__MoveToEx@16         1006913c     gdi32:GDI32.dll
 0002:00000140       __imp__ExcludeClipRect@20  10069140     gdi32:GDI32.dll
 0002:00000144       __imp__GetClipBox@8        10069144     gdi32:GDI32.dll
 0002:00000148       __imp__ScaleWindowExtEx@24 10069148     gdi32:GDI32.dll
 0002:0000014c       __imp__SetWindowExtEx@16   1006914c     gdi32:GDI32.dll
 0002:00000150       __imp__SetWindowOrgEx@16   10069150     gdi32:GDI32.dll
 0002:00000154       __imp__ScaleViewportExtEx@24 10069154     gdi32:GDI32.dll
 0002:00000158       __imp__SetViewportExtEx@16 10069158     gdi32:GDI32.dll
 0002:0000015c       __imp__OffsetViewportOrgEx@16 1006915c     gdi32:GDI32.dll
 0002:00000160       __imp__SetViewportOrgEx@16 10069160     gdi32:GDI32.dll
 0002:00000164       __imp__SetMapMode@8        10069164     gdi32:GDI32.dll
 0002:00000168       __imp__SetBkColor@8        10069168     gdi32:GDI32.dll
 0002:0000016c       \177GDI32_NULL_THUNK_DATA  1006916c     gdi32:GDI32.dll
 0002:00000170       __imp__GlobalUnlock@4      10069170     kernel32:KERNEL32.dll
 0002:00000174       __imp__SetStdHandle@8      10069174     kernel32:KERNEL32.dll
 0002:00000178       __imp__IsBadCodePtr@4      10069178     kernel32:KERNEL32.dll
 0002:0000017c       __imp__IsBadReadPtr@8      1006917c     kernel32:KERNEL32.dll
 0002:00000180       __imp__CompareStringW@24   10069180     kernel32:KERNEL32.dll
 0002:00000184       __imp__CompareStringA@24   10069184     kernel32:KERNEL32.dll
 0002:00000188       __imp__SetUnhandledExceptionFilter@4 10069188     kernel32:KERNEL32.dll
 0002:0000018c       __imp__GetStringTypeW@16   1006918c     kernel32:KERNEL32.dll
 0002:00000190       __imp__GetStringTypeA@20   10069190     kernel32:KERNEL32.dll
 0002:00000194       __imp__IsBadWritePtr@8     10069194     kernel32:KERNEL32.dll
 0002:00000198       __imp__VirtualAlloc@16     10069198     kernel32:KERNEL32.dll
 0002:0000019c       __imp__FindClose@4         1006919c     kernel32:KERNEL32.dll
 0002:000001a0       __imp__LCMapStringA@24     100691a0     kernel32:KERNEL32.dll
 0002:000001a4       __imp__SetEnvironmentVariableA@8 100691a4     kernel32:KERNEL32.dll
 0002:000001a8       __imp__VirtualFree@12      100691a8     kernel32:KERNEL32.dll
 0002:000001ac       __imp__HeapCreate@12       100691ac     kernel32:KERNEL32.dll
 0002:000001b0       __imp__HeapDestroy@4       100691b0     kernel32:KERNEL32.dll
 0002:000001b4       __imp__GetEnvironmentVariableA@12 100691b4     kernel32:KERNEL32.dll
 0002:000001b8       __imp__GetEnvironmentStringsW@0 100691b8     kernel32:KERNEL32.dll
 0002:000001bc       __imp__GetEnvironmentStrings@0 100691bc     kernel32:KERNEL32.dll
 0002:000001c0       __imp__FreeEnvironmentStringsW@4 100691c0     kernel32:KERNEL32.dll
 0002:000001c4       __imp__FreeEnvironmentStringsA@4 100691c4     kernel32:KERNEL32.dll
 0002:000001c8       __imp__GetStartupInfoA@4   100691c8     kernel32:KERNEL32.dll
 0002:000001cc       __imp__GetFileType@4       100691cc     kernel32:KERNEL32.dll
 0002:000001d0       __imp__GetStdHandle@4      100691d0     kernel32:KERNEL32.dll
 0002:000001d4       __imp__SetHandleCount@4    100691d4     kernel32:KERNEL32.dll
 0002:000001d8       __imp__GetACP@0            100691d8     kernel32:KERNEL32.dll
 0002:000001dc       __imp__HeapSize@12         100691dc     kernel32:KERNEL32.dll
 0002:000001e0       __imp__TerminateProcess@8  100691e0     kernel32:KERNEL32.dll
 0002:000001e4       __imp__GetLocalTime@4      100691e4     kernel32:KERNEL32.dll
 0002:000001e8       __imp__GetSystemTime@4     100691e8     kernel32:KERNEL32.dll
 0002:000001ec       __imp__GetTimeZoneInformation@4 100691ec     kernel32:KERNEL32.dll
 0002:000001f0       __imp__RaiseException@16   100691f0     kernel32:KERNEL32.dll
 0002:000001f4       __imp__RtlUnwind@16        100691f4     kernel32:KERNEL32.dll
 0002:000001f8       __imp__GetOEMCP@0          100691f8     kernel32:KERNEL32.dll
 0002:000001fc       __imp__GetCPInfo@8         100691fc     kernel32:KERNEL32.dll
 0002:00000200       __imp__GetProcessVersion@4 10069200     kernel32:KERNEL32.dll
 0002:00000204       __imp__SetErrorMode@4      10069204     kernel32:KERNEL32.dll
 0002:00000208       __imp__GlobalFlags@4       10069208     kernel32:KERNEL32.dll
 0002:0000020c       __imp__GetCurrentThread@0  1006920c     kernel32:KERNEL32.dll
 0002:00000210       __imp__CreateSemaphoreA@16 10069210     kernel32:KERNEL32.dll
 0002:00000214       __imp__ResumeThread@4      10069214     kernel32:KERNEL32.dll
 0002:00000218       __imp__ReleaseSemaphore@12 10069218     kernel32:KERNEL32.dll
 0002:0000021c       __imp__EnterCriticalSection@4 1006921c     kernel32:KERNEL32.dll
 0002:00000220       __imp__LeaveCriticalSection@4 10069220     kernel32:KERNEL32.dll
 0002:00000224       __imp__GetProfileStringA@20 10069224     kernel32:KERNEL32.dll
 0002:00000228       __imp__WriteFile@20        10069228     kernel32:KERNEL32.dll
 0002:0000022c       __imp__ReadFile@20         1006922c     kernel32:KERNEL32.dll
 0002:00000230       __imp__GetLastError@0      10069230     kernel32:KERNEL32.dll
 0002:00000234       __imp__WaitForMultipleObjects@16 10069234     kernel32:KERNEL32.dll
 0002:00000238       __imp__CreateFileA@28      10069238     kernel32:KERNEL32.dll
 0002:0000023c       __imp__SetEvent@4          1006923c     kernel32:KERNEL32.dll
 0002:00000240       __imp__FindResourceA@12    10069240     kernel32:KERNEL32.dll
 0002:00000244       __imp__LoadResource@8      10069244     kernel32:KERNEL32.dll
 0002:00000248       __imp__LockResource@4      10069248     kernel32:KERNEL32.dll
 0002:0000024c       __imp__GetModuleFileNameA@12 1006924c     kernel32:KERNEL32.dll
 0002:00000250       __imp__GetCurrentThreadId@0 10069250     kernel32:KERNEL32.dll
 0002:00000254       __imp__ExitProcess@4       10069254     kernel32:KERNEL32.dll
 0002:00000258       __imp__GlobalSize@4        10069258     kernel32:KERNEL32.dll
 0002:0000025c       __imp__GlobalFree@4        1006925c     kernel32:KERNEL32.dll
 0002:00000260       __imp__DeleteCriticalSection@4 10069260     kernel32:KERNEL32.dll
 0002:00000264       __imp__InitializeCriticalSection@4 10069264     kernel32:KERNEL32.dll
 0002:00000268       __imp__lstrcatA@8          10069268     kernel32:KERNEL32.dll
 0002:0000026c       __imp__WinExec@8           1006926c     kernel32:KERNEL32.dll
 0002:00000270       __imp__lstrcpyA@8          10069270     kernel32:KERNEL32.dll
 0002:00000274       __imp__FindNextFileA@8     10069274     kernel32:KERNEL32.dll
 0002:00000278       __imp__GlobalReAlloc@12    10069278     kernel32:KERNEL32.dll
 0002:0000027c       __imp__HeapFree@12         1006927c     kernel32:KERNEL32.dll
 0002:00000280       __imp__HeapReAlloc@16      10069280     kernel32:KERNEL32.dll
 0002:00000284       __imp__GetProcessHeap@0    10069284     kernel32:KERNEL32.dll
 0002:00000288       __imp__HeapAlloc@12        10069288     kernel32:KERNEL32.dll
 0002:0000028c       __imp__GetFullPathNameA@16 1006928c     kernel32:KERNEL32.dll
 0002:00000290       __imp__FreeLibrary@4       10069290     kernel32:KERNEL32.dll
 0002:00000294       __imp__LoadLibraryA@4      10069294     kernel32:KERNEL32.dll
 0002:00000298       __imp__lstrlenA@4          10069298     kernel32:KERNEL32.dll
 0002:0000029c       __imp__GetVersionExA@4     1006929c     kernel32:KERNEL32.dll
 0002:000002a0       __imp__WritePrivateProfileStringA@16 100692a0     kernel32:KERNEL32.dll
 0002:000002a4       __imp__CreateThread@24     100692a4     kernel32:KERNEL32.dll
 0002:000002a8       __imp__CreateEventA@16     100692a8     kernel32:KERNEL32.dll
 0002:000002ac       __imp__Sleep@4             100692ac     kernel32:KERNEL32.dll
 0002:000002b0       __imp__GlobalAlloc@8       100692b0     kernel32:KERNEL32.dll
 0002:000002b4       __imp__FindFirstFileA@8    100692b4     kernel32:KERNEL32.dll
 0002:000002b8       __imp__GlobalLock@4        100692b8     kernel32:KERNEL32.dll
 0002:000002bc       __imp__GetFileTime@16      100692bc     kernel32:KERNEL32.dll
 0002:000002c0       __imp__GetFileSize@8       100692c0     kernel32:KERNEL32.dll
 0002:000002c4       __imp__TlsGetValue@4       100692c4     kernel32:KERNEL32.dll
 0002:000002c8       __imp__LocalReAlloc@12     100692c8     kernel32:KERNEL32.dll
 0002:000002cc       __imp__TlsSetValue@8       100692cc     kernel32:KERNEL32.dll
 0002:000002d0       __imp__TlsFree@4           100692d0     kernel32:KERNEL32.dll
 0002:000002d4       __imp__GlobalHandle@4      100692d4     kernel32:KERNEL32.dll
 0002:000002d8       __imp__TlsAlloc@0          100692d8     kernel32:KERNEL32.dll
 0002:000002dc       __imp__LocalAlloc@8        100692dc     kernel32:KERNEL32.dll
 0002:000002e0       __imp__lstrcmpA@8          100692e0     kernel32:KERNEL32.dll
 0002:000002e4       __imp__GetVersion@0        100692e4     kernel32:KERNEL32.dll
 0002:000002e8       __imp__GlobalGetAtomNameA@12 100692e8     kernel32:KERNEL32.dll
 0002:000002ec       __imp__GlobalAddAtomA@4    100692ec     kernel32:KERNEL32.dll
 0002:000002f0       __imp__GlobalFindAtomA@4   100692f0     kernel32:KERNEL32.dll
 0002:000002f4       __imp__GlobalDeleteAtom@4  100692f4     kernel32:KERNEL32.dll
 0002:000002f8       __imp__lstrcmpiA@8         100692f8     kernel32:KERNEL32.dll
 0002:000002fc       __imp__SetEndOfFile@4      100692fc     kernel32:KERNEL32.dll
 0002:00000300       __imp__UnlockFile@20       10069300     kernel32:KERNEL32.dll
 0002:00000304       __imp__LockFile@20         10069304     kernel32:KERNEL32.dll
 0002:00000308       __imp__FlushFileBuffers@4  10069308     kernel32:KERNEL32.dll
 0002:0000030c       __imp__SetFilePointer@16   1006930c     kernel32:KERNEL32.dll
 0002:00000310       __imp__GetCurrentProcess@0 10069310     kernel32:KERNEL32.dll
 0002:00000314       __imp__DuplicateHandle@28  10069314     kernel32:KERNEL32.dll
 0002:00000318       __imp__lstrcpynA@12        10069318     kernel32:KERNEL32.dll
 0002:0000031c       __imp__SetLastError@4      1006931c     kernel32:KERNEL32.dll
 0002:00000320       __imp__GetFileAttributesA@4 10069320     kernel32:KERNEL32.dll
 0002:00000324       __imp__SetCurrentDirectoryA@4 10069324     kernel32:KERNEL32.dll
 0002:00000328       __imp__FileTimeToLocalFileTime@8 10069328     kernel32:KERNEL32.dll
 0002:0000032c       __imp__FileTimeToSystemTime@8 1006932c     kernel32:KERNEL32.dll
 0002:00000330       __imp__LocalFree@4         10069330     kernel32:KERNEL32.dll
 0002:00000334       __imp__MultiByteToWideChar@24 10069334     kernel32:KERNEL32.dll
 0002:00000338       __imp__WideCharToMultiByte@32 10069338     kernel32:KERNEL32.dll
 0002:0000033c       __imp__InterlockedDecrement@4 1006933c     kernel32:KERNEL32.dll
 0002:00000340       __imp__InterlockedIncrement@4 10069340     kernel32:KERNEL32.dll
 0002:00000344       __imp__GetVolumeInformationA@32 10069344     kernel32:KERNEL32.dll
 0002:00000348       __imp__GetModuleHandleA@4  10069348     kernel32:KERNEL32.dll
 0002:0000034c       __imp__GetProcAddress@8    1006934c     kernel32:KERNEL32.dll
 0002:00000350       __imp__MulDiv@12           10069350     kernel32:KERNEL32.dll
 0002:00000354       __imp__GetCommandLineA@0   10069354     kernel32:KERNEL32.dll
 0002:00000358       __imp__GetTickCount@0      10069358     kernel32:KERNEL32.dll
 0002:0000035c       __imp__WaitForSingleObject@8 1006935c     kernel32:KERNEL32.dll
 0002:00000360       __imp__LCMapStringW@24     10069360     kernel32:KERNEL32.dll
 0002:00000364       __imp__CloseHandle@4       10069364     kernel32:KERNEL32.dll
 0002:00000368       \177KERNEL32_NULL_THUNK_DATA 10069368     kernel32:KERNEL32.dll
 0002:0000036c       __imp__UnRegisterTypeLib@20 1006936c     oleaut32:OLEAUT32.dll
 0002:00000370       __imp__RegisterTypeLib@12  10069370     oleaut32:OLEAUT32.dll
 0002:00000374       __imp__LoadTypeLib@8       10069374     oleaut32:OLEAUT32.dll
 0002:00000378       \177OLEAUT32_NULL_THUNK_DATA 10069378     oleaut32:OLEAUT32.dll
 0002:0000037c       __imp__Shell_NotifyIconA@8 1006937c     shell32:SHELL32.dll
 0002:00000380       __imp__ShellExecuteA@24    10069380     shell32:SHELL32.dll
 0002:00000384       \177SHELL32_NULL_THUNK_DATA 10069384     shell32:SHELL32.dll
 0002:00000388       __imp__OpenClipboard@4     10069388     user32:USER32.dll
 0002:0000038c       __imp__GetClipboardData@4  1006938c     user32:USER32.dll
 0002:00000390       __imp__CloseClipboard@0    10069390     user32:USER32.dll
 0002:00000394       __imp__SetClipboardData@8  10069394     user32:USER32.dll
 0002:00000398       __imp__EmptyClipboard@0    10069398     user32:USER32.dll
 0002:0000039c       __imp__wsprintfA           1006939c     user32:USER32.dll
 0002:000003a0       __imp__GetSystemMetrics@4  100693a0     user32:USER32.dll
 0002:000003a4       __imp__GetCursorPos@4      100693a4     user32:USER32.dll
 0002:000003a8       __imp__MessageBoxA@16      100693a8     user32:USER32.dll
 0002:000003ac       __imp__SetWindowPos@28     100693ac     user32:USER32.dll
 0002:000003b0       __imp__SendMessageA@16     100693b0     user32:USER32.dll
 0002:000003b4       __imp__DestroyCursor@4     100693b4     user32:USER32.dll
 0002:000003b8       __imp__SetParent@8         100693b8     user32:USER32.dll
 0002:000003bc       __imp__IsWindow@4          100693bc     user32:USER32.dll
 0002:000003c0       __imp__PostMessageA@16     100693c0     user32:USER32.dll
 0002:000003c4       __imp__GetTopWindow@4      100693c4     user32:USER32.dll
 0002:000003c8       __imp__GetParent@4         100693c8     user32:USER32.dll
 0002:000003cc       __imp__GetFocus@0          100693cc     user32:USER32.dll
 0002:000003d0       __imp__GetClientRect@8     100693d0     user32:USER32.dll
 0002:000003d4       __imp__InvalidateRect@12   100693d4     user32:USER32.dll
 0002:000003d8       __imp__ValidateRect@8      100693d8     user32:USER32.dll
 0002:000003dc       __imp__UpdateWindow@4      100693dc     user32:USER32.dll
 0002:000003e0       __imp__EqualRect@8         100693e0     user32:USER32.dll
 0002:000003e4       __imp__GetWindowRect@8     100693e4     user32:USER32.dll
 0002:000003e8       __imp__SetForegroundWindow@4 100693e8     user32:USER32.dll
 0002:000003ec       __imp__DestroyMenu@4       100693ec     user32:USER32.dll
 0002:000003f0       __imp__IsChild@8           100693f0     user32:USER32.dll
 0002:000003f4       __imp__ReleaseDC@8         100693f4     user32:USER32.dll
 0002:000003f8       __imp__IsRectEmpty@4       100693f8     user32:USER32.dll
 0002:000003fc       __imp__FillRect@12         100693fc     user32:USER32.dll
 0002:00000400       __imp__SystemParametersInfoA@16 10069400     user32:USER32.dll
 0002:00000404       __imp__TranslateMessage@4  10069404     user32:USER32.dll
 0002:00000408       __imp__LoadIconA@8         10069408     user32:USER32.dll
 0002:0000040c       __imp__DrawFrameControl@16 1006940c     user32:USER32.dll
 0002:00000410       __imp__DrawEdge@16         10069410     user32:USER32.dll
 0002:00000414       __imp__DrawFocusRect@8     10069414     user32:USER32.dll
 0002:00000418       __imp__WindowFromPoint@8   10069418     user32:USER32.dll
 0002:0000041c       __imp__GetMessageA@16      1006941c     user32:USER32.dll
 0002:00000420       __imp__DispatchMessageA@4  10069420     user32:USER32.dll
 0002:00000424       __imp__SetRectEmpty@4      10069424     user32:USER32.dll
 0002:00000428       __imp__RegisterClipboardFormatA@4 10069428     user32:USER32.dll
 0002:0000042c       __imp__CreateIconFromResourceEx@28 1006942c     user32:USER32.dll
 0002:00000430       __imp__CreateIconFromResource@16 10069430     user32:USER32.dll
 0002:00000434       __imp__DrawIconEx@36       10069434     user32:USER32.dll
 0002:00000438       __imp__CreatePopupMenu@0   10069438     user32:USER32.dll
 0002:0000043c       __imp__AppendMenuA@16      1006943c     user32:USER32.dll
 0002:00000440       __imp__ModifyMenuA@20      10069440     user32:USER32.dll
 0002:00000444       __imp__CreateMenu@0        10069444     user32:USER32.dll
 0002:00000448       __imp__CreateAcceleratorTableA@8 10069448     user32:USER32.dll
 0002:0000044c       __imp__ShowWindow@8        1006944c     user32:USER32.dll
 0002:00000450       __imp__IsWindowEnabled@4   10069450     user32:USER32.dll
 0002:00000454       __imp__TranslateAcceleratorA@12 10069454     user32:USER32.dll
 0002:00000458       __imp__CopyAcceleratorTableA@12 10069458     user32:USER32.dll
 0002:0000045c       __imp__PostQuitMessage@4   1006945c     user32:USER32.dll
 0002:00000460       __imp__IsZoomed@4          10069460     user32:USER32.dll
 0002:00000464       __imp__GetClassInfoA@12    10069464     user32:USER32.dll
 0002:00000468       __imp__DefWindowProcA@16   10069468     user32:USER32.dll
 0002:0000046c       __imp__GetDlgCtrlID@4      1006946c     user32:USER32.dll
 0002:00000470       __imp__GetSubMenu@8        10069470     user32:USER32.dll
 0002:00000474       __imp__EnableMenuItem@12   10069474     user32:USER32.dll
 0002:00000478       __imp__ClientToScreen@8    10069478     user32:USER32.dll
 0002:0000047c       __imp__EnumDisplaySettingsA@12 1006947c     user32:USER32.dll
 0002:00000480       __imp__LoadImageA@24       10069480     user32:USER32.dll
 0002:00000484       __imp__GetKeyState@4       10069484     user32:USER32.dll
 0002:00000488       __imp__GetMenu@4           10069488     user32:USER32.dll
 0002:0000048c       __imp__SetMenu@8           1006948c     user32:USER32.dll
 0002:00000490       __imp__PeekMessageA@20     10069490     user32:USER32.dll
 0002:00000494       __imp__IsIconic@4          10069494     user32:USER32.dll
 0002:00000498       __imp__SetFocus@4          10069498     user32:USER32.dll
 0002:0000049c       __imp__GetActiveWindow@0   1006949c     user32:USER32.dll
 0002:000004a0       __imp__GetWindow@8         100694a0     user32:USER32.dll
 0002:000004a4       __imp__DestroyAcceleratorTable@4 100694a4     user32:USER32.dll
 0002:000004a8       __imp__SetWindowRgn@12     100694a8     user32:USER32.dll
 0002:000004ac       __imp__GetMessagePos@0     100694ac     user32:USER32.dll
 0002:000004b0       __imp__ScreenToClient@8    100694b0     user32:USER32.dll
 0002:000004b4       __imp__ChildWindowFromPointEx@16 100694b4     user32:USER32.dll
 0002:000004b8       __imp__CopyRect@8          100694b8     user32:USER32.dll
 0002:000004bc       __imp__LoadBitmapA@8       100694bc     user32:USER32.dll
 0002:000004c0       __imp__WinHelpA@16         100694c0     user32:USER32.dll
 0002:000004c4       __imp__KillTimer@8         100694c4     user32:USER32.dll
 0002:000004c8       __imp__SetTimer@16         100694c8     user32:USER32.dll
 0002:000004cc       __imp__ReleaseCapture@0    100694cc     user32:USER32.dll
 0002:000004d0       __imp__GetWindowTextA@12   100694d0     user32:USER32.dll
 0002:000004d4       __imp__GetWindowTextLengthA@4 100694d4     user32:USER32.dll
 0002:000004d8       __imp__CharUpperA@4        100694d8     user32:USER32.dll
 0002:000004dc       __imp__GetWindowDC@4       100694dc     user32:USER32.dll
 0002:000004e0       __imp__BeginPaint@8        100694e0     user32:USER32.dll
 0002:000004e4       __imp__EndPaint@8          100694e4     user32:USER32.dll
 0002:000004e8       __imp__TabbedTextOutA@32   100694e8     user32:USER32.dll
 0002:000004ec       __imp__DrawTextA@20        100694ec     user32:USER32.dll
 0002:000004f0       __imp__GrayStringA@36      100694f0     user32:USER32.dll
 0002:000004f4       __imp__GetDlgItem@8        100694f4     user32:USER32.dll
 0002:000004f8       __imp__DestroyWindow@4     100694f8     user32:USER32.dll
 0002:000004fc       __imp__CreateDialogIndirectParamA@20 100694fc     user32:USER32.dll
 0002:00000500       __imp__EndDialog@8         10069500     user32:USER32.dll
 0002:00000504       __imp__GetNextDlgTabItem@12 10069504     user32:USER32.dll
 0002:00000508       __imp__GetWindowPlacement@8 10069508     user32:USER32.dll
 0002:0000050c       __imp__RegisterWindowMessageA@4 1006950c     user32:USER32.dll
 0002:00000510       __imp__GetDC@4             10069510     user32:USER32.dll
 0002:00000514       __imp__GetLastActivePopup@4 10069514     user32:USER32.dll
 0002:00000518       __imp__GetMessageTime@0    10069518     user32:USER32.dll
 0002:0000051c       __imp__RemovePropA@8       1006951c     user32:USER32.dll
 0002:00000520       __imp__CallWindowProcA@20  10069520     user32:USER32.dll
 0002:00000524       __imp__GetPropA@8          10069524     user32:USER32.dll
 0002:00000528       __imp__UnhookWindowsHookEx@4 10069528     user32:USER32.dll
 0002:0000052c       __imp__SetPropA@12         1006952c     user32:USER32.dll
 0002:00000530       __imp__GetClassLongA@8     10069530     user32:USER32.dll
 0002:00000534       __imp__CallNextHookEx@16   10069534     user32:USER32.dll
 0002:00000538       __imp__SetWindowsHookExA@16 10069538     user32:USER32.dll
 0002:0000053c       __imp__CreateWindowExA@48  1006953c     user32:USER32.dll
 0002:00000540       __imp__GetMenuItemID@8     10069540     user32:USER32.dll
 0002:00000544       __imp__GetMenuItemCount@4  10069544     user32:USER32.dll
 0002:00000548       __imp__RegisterClassA@4    10069548     user32:USER32.dll
 0002:0000054c       __imp__GetScrollPos@8      1006954c     user32:USER32.dll
 0002:00000550       __imp__GetForegroundWindow@0 10069550     user32:USER32.dll
 0002:00000554       __imp__AdjustWindowRectEx@16 10069554     user32:USER32.dll
 0002:00000558       __imp__MapWindowPoints@16  10069558     user32:USER32.dll
 0002:0000055c       __imp__SendDlgItemMessageA@20 1006955c     user32:USER32.dll
 0002:00000560       __imp__ScrollWindowEx@32   10069560     user32:USER32.dll
 0002:00000564       __imp__IsDialogMessageA@8  10069564     user32:USER32.dll
 0002:00000568       __imp__SetWindowTextA@8    10069568     user32:USER32.dll
 0002:0000056c       __imp__MoveWindow@24       1006956c     user32:USER32.dll
 0002:00000570       __imp__CheckMenuItem@12    10069570     user32:USER32.dll
 0002:00000574       __imp__SetMenuItemBitmaps@20 10069574     user32:USER32.dll
 0002:00000578       __imp__GetMenuState@12     10069578     user32:USER32.dll
 0002:0000057c       __imp__GetMenuCheckMarkDimensions@0 1006957c     user32:USER32.dll
 0002:00000580       __imp__GetClassNameA@12    10069580     user32:USER32.dll
 0002:00000584       __imp__GetDesktopWindow@0  10069584     user32:USER32.dll
 0002:00000588       __imp__UnregisterClassA@8  10069588     user32:USER32.dll
 0002:0000058c       __imp__LoadStringA@16      1006958c     user32:USER32.dll
 0002:00000590       __imp__GetSysColorBrush@4  10069590     user32:USER32.dll
 0002:00000594       __imp__GetCapture@0        10069594     user32:USER32.dll
 0002:00000598       __imp__SetCapture@4        10069598     user32:USER32.dll
 0002:0000059c       __imp__GetScrollRange@16   1006959c     user32:USER32.dll
 0002:000005a0       __imp__SetScrollRange@20   100695a0     user32:USER32.dll
 0002:000005a4       __imp__SetScrollPos@16     100695a4     user32:USER32.dll
 0002:000005a8       __imp__InflateRect@12      100695a8     user32:USER32.dll
 0002:000005ac       __imp__SetRect@20          100695ac     user32:USER32.dll
 0002:000005b0       __imp__IntersectRect@12    100695b0     user32:USER32.dll
 0002:000005b4       __imp__DestroyIcon@4       100695b4     user32:USER32.dll
 0002:000005b8       __imp__PtInRect@12         100695b8     user32:USER32.dll
 0002:000005bc       __imp__OffsetRect@12       100695bc     user32:USER32.dll
 0002:000005c0       __imp__IsWindowVisible@4   100695c0     user32:USER32.dll
 0002:000005c4       __imp__EnableWindow@8      100695c4     user32:USER32.dll
 0002:000005c8       __imp__RedrawWindow@16     100695c8     user32:USER32.dll
 0002:000005cc       __imp__GetWindowLongA@8    100695cc     user32:USER32.dll
 0002:000005d0       __imp__SetWindowLongA@12   100695d0     user32:USER32.dll
 0002:000005d4       __imp__GetSysColor@4       100695d4     user32:USER32.dll
 0002:000005d8       __imp__SetActiveWindow@4   100695d8     user32:USER32.dll
 0002:000005dc       __imp__SetCursorPos@8      100695dc     user32:USER32.dll
 0002:000005e0       __imp__LoadCursorA@8       100695e0     user32:USER32.dll
 0002:000005e4       __imp__SetCursor@4         100695e4     user32:USER32.dll
 0002:000005e8       \177USER32_NULL_THUNK_DATA 100695e8     user32:USER32.dll
 0002:000005ec       __imp__waveOutReset@4      100695ec     winmm:WINMM.dll
 0002:000005f0       __imp__midiStreamRestart@4 100695f0     winmm:WINMM.dll
 0002:000005f4       __imp__midiStreamClose@4   100695f4     winmm:WINMM.dll
 0002:000005f8       __imp__midiOutReset@4      100695f8     winmm:WINMM.dll
 0002:000005fc       __imp__midiStreamStop@4    100695fc     winmm:WINMM.dll
 0002:00000600       __imp__midiStreamOut@12    10069600     winmm:WINMM.dll
 0002:00000604       __imp__midiOutPrepareHeader@12 10069604     winmm:WINMM.dll
 0002:00000608       __imp__midiStreamProperty@12 10069608     winmm:WINMM.dll
 0002:0000060c       __imp__midiStreamOpen@24   1006960c     winmm:WINMM.dll
 0002:00000610       __imp__midiOutUnprepareHeader@12 10069610     winmm:WINMM.dll
 0002:00000614       __imp__waveOutOpen@24      10069614     winmm:WINMM.dll
 0002:00000618       __imp__waveOutGetNumDevs@0 10069618     winmm:WINMM.dll
 0002:0000061c       __imp__waveOutClose@4      1006961c     winmm:WINMM.dll
 0002:00000620       __imp__waveOutUnprepareHeader@12 10069620     winmm:WINMM.dll
 0002:00000624       __imp__waveOutPause@4      10069624     winmm:WINMM.dll
 0002:00000628       __imp__waveOutWrite@12     10069628     winmm:WINMM.dll
 0002:0000062c       __imp__waveOutPrepareHeader@12 1006962c     winmm:WINMM.dll
 0002:00000630       \177WINMM_NULL_THUNK_DATA  10069630     winmm:WINMM.dll
 0002:00000634       __imp__ClosePrinter@4      10069634     winspool:WINSPOOL.DRV
 0002:00000638       __imp__DocumentPropertiesA@24 10069638     winspool:WINSPOOL.DRV
 0002:0000063c       __imp__OpenPrinterA@12     1006963c     winspool:WINSPOOL.DRV
 0002:00000640       \177WINSPOOL_NULL_THUNK_DATA 10069640     winspool:WINSPOOL.DRV
 0002:00000644       __imp__ioctlsocket@12      10069644     Ws2_32:WS2_32.dll
 0002:00000648       __imp__recv@16             10069648     Ws2_32:WS2_32.dll
 0002:0000064c       __imp__getpeername@12      1006964c     Ws2_32:WS2_32.dll
 0002:00000650       __imp__accept@12           10069650     Ws2_32:WS2_32.dll
 0002:00000654       __imp__inet_ntoa@4         10069654     Ws2_32:WS2_32.dll
 0002:00000658       __imp__WSACleanup@0        10069658     Ws2_32:WS2_32.dll
 0002:0000065c       __imp__closesocket@4       1006965c     Ws2_32:WS2_32.dll
 0002:00000660       __imp__WSAAsyncSelect@16   10069660     Ws2_32:WS2_32.dll
 0002:00000664       __imp__recvfrom@24         10069664     Ws2_32:WS2_32.dll
 0002:00000668       \177WS2_32_NULL_THUNK_DATA 10069668     Ws2_32:WS2_32.dll
 0002:0000066c       __imp__GetFileTitleA@12    1006966c     comdlg32:comdlg32.dll
 0002:00000670       __imp__GetSaveFileNameA@4  10069670     comdlg32:comdlg32.dll
 0002:00000674       __imp__GetOpenFileNameA@4  10069674     comdlg32:comdlg32.dll
 0002:00000678       __imp__ChooseColorA@4      10069678     comdlg32:comdlg32.dll
 0002:0000067c       \177comdlg32_NULL_THUNK_DATA 1006967c     comdlg32:comdlg32.dll
 0002:00000680       __imp__OleUninitialize@0   10069680     ole32:ole32.dll
 0002:00000684       __imp__CLSIDFromString@8   10069684     ole32:ole32.dll
 0002:00000688       __imp__OleInitialize@4     10069688     ole32:ole32.dll
 0002:0000068c       \177ole32_NULL_THUNK_DATA  1006968c     ole32:ole32.dll
 0002:00000690       ___eapp_info               10069690     compress.obj
 0002:000014c8       __real@8@c012a081a00000000000 1006a4c8     krnln_static:Libfn.obj
 0002:000014d0       __real@8@4014b492040000000000 1006a4d0     krnln_static:Libfn.obj
 0002:000014d8       __real@8@00000000000000000000 1006a4d8     krnln_static:Libfn.obj
 0002:000014e0       __real@8@3fff8000000000000000 1006a4e0     krnln_static:Libfn.obj
 0002:000014e8       __real@8@3ffe8000000000000000 1006a4e8     krnln_static:Libfn.obj
 0002:000014f0       __real@8@4002a000000000000000 1006a4f0     krnln_static:Libfn.obj
 0002:000014f8       ??_7CFreqMem@@6B@          1006a4f8     krnln_static:Libfn.obj
 0002:000014fc       ??_7CMyDWordArray@@6B@     1006a4fc     krnln_static:Libfn.obj
 0002:00001500       __real@8@4005c800000000000000 1006a500     krnln_static:Libfn.obj
 0002:00001508       __real@8@400fa8c0000000000000 1006a508     krnln_static:Libfn.obj
 0002:00001510       __real@8@3fedc22e450672894800 1006a510     krnln_static:Libfn.obj
 0002:00001518       ??_7CJBPic@@6B@            1006a518     krnln_static:Libfn.obj
 0002:00001520       ??_7CCryptFile@@6B@        1006a520     krnln_static:Libfn.obj
 0002:00001578       ?messageMap@CSpin@@1UAFX_MSGMAP@@B 1006a578     krnln_static:krnl2.obj
 0002:00001580       ?_messageEntries@CSpin@@0QBUAFX_MSGMAP_ENTRY@@B 1006a580     krnln_static:krnl2.obj
 0002:000015c8       ?messageMap@CUEdit@@1UAFX_MSGMAP@@B 1006a5c8     krnln_static:krnl2.obj
 0002:000015d0       ?_messageEntries@CUEdit@@0QBUAFX_MSGMAP_ENTRY@@B 1006a5d0     krnln_static:krnl2.obj
 0002:00001780       ?messageMap@CUTab@@1UAFX_MSGMAP@@B 1006a780     krnln_static:krnl2.obj
 0002:00001788       ?_messageEntries@CUTab@@0QBUAFX_MSGMAP_ENTRY@@B 1006a788     krnln_static:krnl2.obj
 0002:000018a8       ?messageMap@CULabel@@1UAFX_MSGMAP@@B 1006a8a8     krnln_static:krnl2.obj
 0002:000018b0       ?_messageEntries@CULabel@@0QBUAFX_MSGMAP_ENTRY@@B 1006a8b0     krnln_static:krnl2.obj
 0002:00001940       ?messageMap@CUPicBox@@1UAFX_MSGMAP@@B 1006a940     krnln_static:krnl2.obj
 0002:00001948       ?_messageEntries@CUPicBox@@0QBUAFX_MSGMAP_ENTRY@@B 1006a948     krnln_static:krnl2.obj
 0002:00001a38       ?messageMap@CUShapeBox@@1UAFX_MSGMAP@@B 1006aa38     krnln_static:krnl2.obj
 0002:00001a40       ?_messageEntries@CUShapeBox@@0QBUAFX_MSGMAP_ENTRY@@B 1006aa40     krnln_static:krnl2.obj
 0002:00001b00       ?messageMap@CUGroupBox@@1UAFX_MSGMAP@@B 1006ab00     krnln_static:krnl2.obj
 0002:00001b08       ?_messageEntries@CUGroupBox@@0QBUAFX_MSGMAP_ENTRY@@B 1006ab08     krnln_static:krnl2.obj
 0002:00001be0       ?messageMap@CUButton@@1UAFX_MSGMAP@@B 1006abe0     krnln_static:krnl2.obj
 0002:00001be8       ?_messageEntries@CUButton@@0QBUAFX_MSGMAP_ENTRY@@B 1006abe8     krnln_static:krnl2.obj
 0002:00001c48       ?messageMap@CUHScrollBar@@1UAFX_MSGMAP@@B 1006ac48     krnln_static:krnl2.obj
 0002:00001c50       ?_messageEntries@CUHScrollBar@@0QBUAFX_MSGMAP_ENTRY@@B 1006ac50     krnln_static:krnl2.obj
 0002:00001cc8       ?messageMap@CUVScrollBar@@1UAFX_MSGMAP@@B 1006acc8     krnln_static:krnl2.obj
 0002:00001cd0       ?_messageEntries@CUVScrollBar@@0QBUAFX_MSGMAP_ENTRY@@B 1006acd0     krnln_static:krnl2.obj
 0002:00001d48       ?messageMap@CUProcessBar@@1UAFX_MSGMAP@@B 1006ad48     krnln_static:krnl2.obj
 0002:00001d50       ?_messageEntries@CUProcessBar@@0QBUAFX_MSGMAP_ENTRY@@B 1006ad50     krnln_static:krnl2.obj
 0002:00001d68       ?messageMap@CUSliderBar@@1UAFX_MSGMAP@@B 1006ad68     krnln_static:krnl2.obj
 0002:00001d70       ?_messageEntries@CUSliderBar@@0QBUAFX_MSGMAP_ENTRY@@B 1006ad70     krnln_static:krnl2.obj
 0002:00001de8       ?messageMap@CUAnimate@@1UAFX_MSGMAP@@B 1006ade8     krnln_static:krnl2.obj
 0002:00001df0       ?_messageEntries@CUAnimate@@0QBUAFX_MSGMAP_ENTRY@@B 1006adf0     krnln_static:krnl2.obj
 0002:00001e20       ?messageMap@CUDateTimePicker@@1UAFX_MSGMAP@@B 1006ae20     krnln_static:krnl2.obj
 0002:00001e28       ?_messageEntries@CUDateTimePicker@@0QBUAFX_MSGMAP_ENTRY@@B 1006ae28     krnln_static:krnl2.obj
 0002:00001ee8       ?messageMap@CUMonthCalCtrl@@1UAFX_MSGMAP@@B 1006aee8     krnln_static:krnl2.obj
 0002:00001ef0       ?_messageEntries@CUMonthCalCtrl@@0QBUAFX_MSGMAP_ENTRY@@B 1006aef0     krnln_static:krnl2.obj
 0002:00001f20       ?messageMap@CUDrvBox@@1UAFX_MSGMAP@@B 1006af20     krnln_static:krnl2.obj
 0002:00001f28       ?_messageEntries@CUDrvBox@@0QBUAFX_MSGMAP_ENTRY@@B 1006af28     krnln_static:krnl2.obj
 0002:00001fa0       ?messageMap@CUDirTree@@1UAFX_MSGMAP@@B 1006afa0     krnln_static:krnl2.obj
 0002:00001fa8       ?_messageEntries@CUDirTree@@0QBUAFX_MSGMAP_ENTRY@@B 1006afa8     krnln_static:krnl2.obj
 0002:00002038       ?messageMap@CUFileBox@@1UAFX_MSGMAP@@B 1006b038     krnln_static:krnl2.obj
 0002:00002040       ?_messageEntries@CUFileBox@@0QBUAFX_MSGMAP_ENTRY@@B 1006b040     krnln_static:krnl2.obj
 0002:000020d0       ?messageMap@CUColorPicker@@1UAFX_MSGMAP@@B 1006b0d0     krnln_static:krnl2.obj
 0002:000020d8       ?_messageEntries@CUColorPicker@@0QBUAFX_MSGMAP_ENTRY@@B 1006b0d8     krnln_static:krnl2.obj
 0002:00002138       ?messageMap@CUHyperLinker@@1UAFX_MSGMAP@@B 1006b138     krnln_static:krnl2.obj
 0002:00002140       ?_messageEntries@CUHyperLinker@@0QBUAFX_MSGMAP_ENTRY@@B 1006b140     krnln_static:krnl2.obj
 0002:000021a0       ?messageMap@CUSpin@@1UAFX_MSGMAP@@B 1006b1a0     krnln_static:krnl2.obj
 0002:000021a8       ?_messageEntries@CUSpin@@0QBUAFX_MSGMAP_ENTRY@@B 1006b1a8     krnln_static:krnl2.obj
 0002:000021d8       ?messageMap@CUTimer@@1UAFX_MSGMAP@@B 1006b1d8     krnln_static:krnl2.obj
 0002:000021e0       ?_messageEntries@CUTimer@@0QBUAFX_MSGMAP_ENTRY@@B 1006b1e0     krnln_static:krnl2.obj
 0002:00002258       ?messageMap@CUCommonDlg@@1UAFX_MSGMAP@@B 1006b258     krnln_static:krnl2.obj
 0002:00002260       ?_messageEntries@CUCommonDlg@@0QBUAFX_MSGMAP_ENTRY@@B 1006b260     krnln_static:krnl2.obj
 0002:00002290       ?messageMap@CUCheckBox@@1UAFX_MSGMAP@@B 1006b290     krnln_static:krnl2.obj
 0002:00002298       ?_messageEntries@CUCheckBox@@0QBUAFX_MSGMAP_ENTRY@@B 1006b298     krnln_static:krnl2.obj
 0002:00002358       ?messageMap@CURadio@@1UAFX_MSGMAP@@B 1006b358     krnln_static:krnl2.obj
 0002:00002360       ?_messageEntries@CURadio@@0QBUAFX_MSGMAP_ENTRY@@B 1006b360     krnln_static:krnl2.obj
 0002:000023d8       ?messageMap@CUComboBox@@1UAFX_MSGMAP@@B 1006b3d8     krnln_static:krnl2.obj
 0002:000023e0       ?_messageEntries@CUComboBox@@0QBUAFX_MSGMAP_ENTRY@@B 1006b3e0     krnln_static:krnl2.obj
 0002:00002530       ?messageMap@CUListBox@@1UAFX_MSGMAP@@B 1006b530     krnln_static:krnl2.obj
 0002:00002538       ?_messageEntries@CUListBox@@0QBUAFX_MSGMAP_ENTRY@@B 1006b538     krnln_static:krnl2.obj
 0002:00002610       ?messageMap@CUChkListBox@@1UAFX_MSGMAP@@B 1006b610     krnln_static:krnl2.obj
 0002:00002618       ?_messageEntries@CUChkListBox@@0QBUAFX_MSGMAP_ENTRY@@B 1006b618     krnln_static:krnl2.obj
 0002:000026d8       ?messageMap@CUDrawPanel@@1UAFX_MSGMAP@@B 1006b6d8     krnln_static:krnl2.obj
 0002:000026e0       ?_messageEntries@CUDrawPanel@@0QBUAFX_MSGMAP_ENTRY@@B 1006b6e0     krnln_static:krnl2.obj
 0002:00002800       ?messageMap@CUPrinter@@1UAFX_MSGMAP@@B 1006b800     krnln_static:krnl2.obj
 0002:00002808       ?_messageEntries@CUPrinter@@0QBUAFX_MSGMAP_ENTRY@@B 1006b808     krnln_static:krnl2.obj
 0002:00002868       ?messageMap@CUUDPSock@@1UAFX_MSGMAP@@B 1006b868     krnln_static:krnl2.obj
 0002:00002870       ?_messageEntries@CUUDPSock@@0QBUAFX_MSGMAP_ENTRY@@B 1006b870     krnln_static:krnl2.obj
 0002:000028a0       ?messageMap@CUClientSock@@1UAFX_MSGMAP@@B 1006b8a0     krnln_static:krnl2.obj
 0002:000028a8       ?_messageEntries@CUClientSock@@0QBUAFX_MSGMAP_ENTRY@@B 1006b8a8     krnln_static:krnl2.obj
 0002:000028d8       ?messageMap@CUServerSock@@1UAFX_MSGMAP@@B 1006b8d8     krnln_static:krnl2.obj
 0002:000028e0       ?_messageEntries@CUServerSock@@0QBUAFX_MSGMAP_ENTRY@@B 1006b8e0     krnln_static:krnl2.obj
 0002:00002910       ?messageMap@CUSerialPort@@1UAFX_MSGMAP@@B 1006b910     krnln_static:krnl2.obj
 0002:00002918       ?_messageEntries@CUSerialPort@@0QBUAFX_MSGMAP_ENTRY@@B 1006b918     krnln_static:krnl2.obj
 0002:00002948       ?messageMap@CUDataSource@@1UAFX_MSGMAP@@B 1006b948     krnln_static:krnl2.obj
 0002:00002950       ?_messageEntries@CUDataSource@@0QBUAFX_MSGMAP_ENTRY@@B 1006b950     krnln_static:krnl2.obj
 0002:000029e0       ?messageMap@CUProvider@@1UAFX_MSGMAP@@B 1006b9e0     krnln_static:krnl2.obj
 0002:000029e8       ?_messageEntries@CUProvider@@0QBUAFX_MSGMAP_ENTRY@@B 1006b9e8     krnln_static:krnl2.obj
 0002:00002a30       ?messageMap@CUGrid@@1UAFX_MSGMAP@@B 1006ba30     krnln_static:krnl2.obj
 0002:00002a38       ?_messageEntries@CUGrid@@0QBUAFX_MSGMAP_ENTRY@@B 1006ba38     krnln_static:krnl2.obj
 0002:00002ac8       ?messageMap@CUBaseProvider@@1UAFX_MSGMAP@@B 1006bac8     krnln_static:krnl2.obj
 0002:00002ad0       ?_messageEntries@CUBaseProvider@@0QBUAFX_MSGMAP_ENTRY@@B 1006bad0     krnln_static:krnl2.obj
 0002:00002b18       ?messageMap@CUDBProvider@@1UAFX_MSGMAP@@B 1006bb18     krnln_static:krnl2.obj
 0002:00002b20       ?_messageEntries@CUDBProvider@@0QBUAFX_MSGMAP_ENTRY@@B 1006bb20     krnln_static:krnl2.obj
 0002:00002b50       ?messageMap@CURgnButton@@1UAFX_MSGMAP@@B 1006bb50     krnln_static:krnl2.obj
 0002:00002b58       ?_messageEntries@CURgnButton@@0QBUAFX_MSGMAP_ENTRY@@B 1006bb58     krnln_static:krnl2.obj
 0002:00002b70       ?messageMap@CUODBCDB@@1UAFX_MSGMAP@@B 1006bb70     krnln_static:krnl2.obj
 0002:00002b78       ?_messageEntries@CUODBCDB@@0QBUAFX_MSGMAP_ENTRY@@B 1006bb78     krnln_static:krnl2.obj
 0002:00002ba8       ?messageMap@CUODBCProvider@@1UAFX_MSGMAP@@B 1006bba8     krnln_static:krnl2.obj
 0002:00002bb0       ?_messageEntries@CUODBCProvider@@0QBUAFX_MSGMAP_ENTRY@@B 1006bbb0     krnln_static:krnl2.obj
 0002:00002c10       ?messageMap@CUErrorControl@@1UAFX_MSGMAP@@B 1006bc10     krnln_static:krnl2.obj
 0002:00002c18       ?_messageEntries@CUErrorControl@@0QBUAFX_MSGMAP_ENTRY@@B 1006bc18     krnln_static:krnl2.obj
 0002:00002cd8       ?messageMap@CKrnlApp@@1UAFX_MSGMAP@@B 1006bcd8     krnln_static:krnl2.obj
 0002:00002ce0       ?_messageEntries@CKrnlApp@@0QBUAFX_MSGMAP_ENTRY@@B 1006bce0     krnln_static:krnl2.obj
 0002:00002cf8       ?messageMap@CSysHideWnd@@1UAFX_MSGMAP@@B 1006bcf8     krnln_static:krnl2.obj
 0002:00002d00       ?_messageEntries@CSysHideWnd@@0QBUAFX_MSGMAP_ENTRY@@B 1006bd00     krnln_static:krnl2.obj
 0002:00002d30       ??_7CPropertyInfo@@6B@     1006bd30     krnln_static:krnl2.obj
 0002:00002d38       ??_7CFont@@6B@             1006bd38     krnln_static:krnl2.obj
 0002:00002d44       ??_7CPicWnd@@6B@           1006bd44     krnln_static:krnl2.obj
 0002:00002e00       ??_7CIDManger@@6B@         1006be00     krnln_static:krnl2.obj
 0002:00002e18       ??_7CWinUnitIDManger@@6B@  1006be18     krnln_static:krnl2.obj
 0002:00002e30       ??_7CKrnlApp@@6B@          1006be30     krnln_static:krnl2.obj
 0002:00002ecc       ??_7CSysHideWnd@@6B@       1006becc     krnln_static:krnl2.obj
 0002:00002f84       ??_7CDllFunc@@6B@          1006bf84     krnln_static:krnl2.obj
 0002:00002f88       ??_7CWinIDManger@@6B@      1006bf88     krnln_static:krnl2.obj
 0002:00002f94       ??_7CIDDWordManger@@6B@    1006bf94     krnln_static:krnl2.obj
 0002:00002fa0       __real@8@40008000000000000000 1006bfa0     krnln_static:FUNC.OBJ
 0002:00002fa8       __real@8@3feea7c5ac471b478800 1006bfa8     krnln_static:FUNC.OBJ
 0002:00002fb0       __real@4@00000000000000000000 1006bfb0     krnln_static:FUNC.OBJ
 0002:00002fb8       __real@8@400fc350000000000000 1006bfb8     krnln_static:FUNC.OBJ
 0002:00002fc0       __real@8@4012f424000000000000 1006bfc0     krnln_static:FUNC.OBJ
 0002:00002fc8       __real@8@400c9c40000000000000 1006bfc8     krnln_static:FUNC.OBJ
 0002:00002fd0       ?messageMap@CInputEdit@@1UAFX_MSGMAP@@B 1006bfd0     krnln_static:DLG.OBJ
 0002:00002fd8       ?_messageEntries@CInputEdit@@0QBUAFX_MSGMAP_ENTRY@@B 1006bfd8     krnln_static:DLG.OBJ
 0002:00003008       ?messageMap@CInputDlg@@1UAFX_MSGMAP@@B 1006c008     krnln_static:DLG.OBJ
 0002:00003010       ?_messageEntries@CInputDlg@@0QBUAFX_MSGMAP_ENTRY@@B 1006c010     krnln_static:DLG.OBJ
 0002:00003028       ?messageMap@CPrintStatusDlg@@1UAFX_MSGMAP@@B 1006c028     krnln_static:DLG.OBJ
 0002:00003030       ?_messageEntries@CPrintStatusDlg@@0QBUAFX_MSGMAP_ENTRY@@B 1006c030     krnln_static:DLG.OBJ
 0002:00003060       ?messageMap@CInputPanel@@1UAFX_MSGMAP@@B 1006c060     krnln_static:DLG.OBJ
 0002:00003068       ?_messageEntries@CInputPanel@@0QBUAFX_MSGMAP_ENTRY@@B 1006c068     krnln_static:DLG.OBJ
 0002:000030c8       ?messageMap@CBrowDlg@@1UAFX_MSGMAP@@B 1006c0c8     krnln_static:DLG.OBJ
 0002:000030d0       ?_messageEntries@CBrowDlg@@0QBUAFX_MSGMAP_ENTRY@@B 1006c0d0     krnln_static:DLG.OBJ
 0002:00003100       ?messageMap@CFieldEdit@@1UAFX_MSGMAP@@B 1006c100     krnln_static:DLG.OBJ
 0002:00003108       ?_messageEntries@CFieldEdit@@0QBUAFX_MSGMAP_ENTRY@@B 1006c108     krnln_static:DLG.OBJ
 0002:00003168       ?messageMap@CFieldBtn@@1UAFX_MSGMAP@@B 1006c168     krnln_static:DLG.OBJ
 0002:00003170       ?_messageEntries@CFieldBtn@@0QBUAFX_MSGMAP_ENTRY@@B 1006c170     krnln_static:DLG.OBJ
 0002:000031d0       ?messageMap@CFieldLabel@@1UAFX_MSGMAP@@B 1006c1d0     krnln_static:DLG.OBJ
 0002:000031d8       ?_messageEntries@CFieldLabel@@0QBUAFX_MSGMAP_ENTRY@@B 1006c1d8     krnln_static:DLG.OBJ
 0002:00003208       ?messageMap@CModiMemoBin@@1UAFX_MSGMAP@@B 1006c208     krnln_static:DLG.OBJ
 0002:00003210       ?_messageEntries@CModiMemoBin@@0QBUAFX_MSGMAP_ENTRY@@B 1006c210     krnln_static:DLG.OBJ
 0002:000032a0       ??_7CModiMemoBin@@6B@      1006c2a0     krnln_static:DLG.OBJ
 0002:00003370       ?classCWinFormUnit@CWinFormUnit@@2UCRuntimeClass@@B 1006c370     krnln_static:Winform.obj
 0002:00003388       ?messageMap@CWinFormUnit@@1UAFX_MSGMAP@@B 1006c388     krnln_static:Winform.obj
 0002:00003390       ?_messageEntries@CWinFormUnit@@0QBUAFX_MSGMAP_ENTRY@@B 1006c390     krnln_static:Winform.obj
 0002:000035b8       ??_7CPIWinForm@@6B@        1006c5b8     krnln_static:Winform.obj
 0002:000035c0       ??_7CWinFormUnit@@6B@      1006c5c0     krnln_static:Winform.obj
 0002:00003678       ??_7CPalette@@6B@          1006c678     krnln_static:Savebmp.obj
 0002:00003684       __real@4@3fff8000000000000000 1006c684     krnln_static:JBPIC.OBJ
 0002:00003688       ?messageMap@CPicWnd@@1UAFX_MSGMAP@@B 1006c688     krnln_static:Pic.obj
 0002:00003690       ?_messageEntries@CPicWnd@@0QBUAFX_MSGMAP_ENTRY@@B 1006c690     krnln_static:Pic.obj
 0002:000036c0       ??_7CStream@@6B@           1006c6c0     krnln_static:Pic.obj
 0002:000036c8       ??_7CBaseStream@@6B@       1006c6c8     krnln_static:Pic.obj
 0002:000036d0       ??_7CMIDI@@6B@             1006c6d0     krnln_static:MIDI.OBJ
 0002:000036e8       ?messageMap@CBaseSockWnd@@1UAFX_MSGMAP@@B 1006c6e8     krnln_static:sockwnd.obj
 0002:000036f0       ?_messageEntries@CBaseSockWnd@@0QBUAFX_MSGMAP_ENTRY@@B 1006c6f0     krnln_static:sockwnd.obj
 0002:00003708       ?messageMap@CUDPSockWnd@@1UAFX_MSGMAP@@B 1006c708     krnln_static:sockwnd.obj
 0002:00003710       ?_messageEntries@CUDPSockWnd@@0QBUAFX_MSGMAP_ENTRY@@B 1006c710     krnln_static:sockwnd.obj
 0002:00003740       ?messageMap@CClientSockWnd@@1UAFX_MSGMAP@@B 1006c740     krnln_static:sockwnd.obj
 0002:00003748       ?_messageEntries@CClientSockWnd@@0QBUAFX_MSGMAP_ENTRY@@B 1006c748     krnln_static:sockwnd.obj
 0002:00003778       ?messageMap@CServerSockWnd@@1UAFX_MSGMAP@@B 1006c778     krnln_static:sockwnd.obj
 0002:00003780       ?_messageEntries@CServerSockWnd@@0QBUAFX_MSGMAP_ENTRY@@B 1006c780     krnln_static:sockwnd.obj
 0002:000037c8       ??_7CPing@@6B@             1006c7c8     krnln_static:sockwnd.obj
 0002:000037d0       ?messageMap@CSerial@@1UAFX_MSGMAP@@B 1006c7d0     krnln_static:Serial.obj
 0002:000037d8       ?_messageEntries@CSerial@@0QBUAFX_MSGMAP_ENTRY@@B 1006c7d8     krnln_static:Serial.obj
 0002:00003808       ?messageMap@CMGrid@@1UAFX_MSGMAP@@B 1006c808     krnln_static:MGrid.obj
 0002:00003810       ?_messageEntries@CMGrid@@0QBUAFX_MSGMAP_ENTRY@@B 1006c810     krnln_static:MGrid.obj
 0002:00003978       ??_7CEWorkSpace@@6B@       1006c978     krnln_static:Database.obj
 0002:0000397c       ??_7CDatFile@@6B@          1006c97c     krnln_static:DATFILE.OBJ
 0002:00003980       ?messageMap@CDBPWDDlg@@1UAFX_MSGMAP@@B 1006c980     krnln_static:dbpwddlg.obj
 0002:00003988       ?_messageEntries@CDBPWDDlg@@0QBUAFX_MSGMAP_ENTRY@@B 1006c988     krnln_static:dbpwddlg.obj
 0002:000039a0       ?messageMap@CRgnBtn@@1UAFX_MSGMAP@@B 1006c9a0     krnln_static:RgnBtn.obj
 0002:000039a8       ?_messageEntries@CRgnBtn@@0QBUAFX_MSGMAP_ENTRY@@B 1006c9a8     krnln_static:RgnBtn.obj
 0002:00003a38       ?classCColourPicker@CColourPicker@@2UCRuntimeClass@@B 1006ca38     krnln_static:Clrpkr.obj
 0002:00003a50       ?messageMap@CColourPicker@@1UAFX_MSGMAP@@B 1006ca50     krnln_static:Clrpkr.obj
 0002:00003a58       ?_messageEntries@CColourPicker@@0QBUAFX_MSGMAP_ENTRY@@B 1006ca58     krnln_static:Clrpkr.obj
 0002:00003b00       ??_7CColourPicker@@6B@     1006cb00     krnln_static:Clrpkr.obj
 0002:00003bc0       ?messageMap@CGifWnd@@1UAFX_MSGMAP@@B 1006cbc0     krnln_static:GIFWND.OBJ
 0002:00003bc8       ?_messageEntries@CGifWnd@@0QBUAFX_MSGMAP_ENTRY@@B 1006cbc8     krnln_static:GIFWND.OBJ
 0002:00003bf8       ??_7CGifWnd@@6B@           1006cbf8     krnln_static:GIFWND.OBJ
 0002:00003cb4       ??_7CMD5Checksum@@6B@      1006ccb4     krnln_static:md5.obj
 0002:00003cb8       ?messageMap@CPrinterSetup@@1UAFX_MSGMAP@@B 1006ccb8     krnln_static:PrinterSetup.obj
 0002:00003cc0       ?_messageEntries@CPrinterSetup@@0QBUAFX_MSGMAP_ENTRY@@B 1006ccc0     krnln_static:PrinterSetup.obj
 0002:00003eb8       ??_7CPrinterSetup@@6B@     1006ceb8     krnln_static:PrinterSetup.obj
 0002:00003f88       __real@8@3ffbccccccccccccd000 1006cf88     krnln_static:gfunc.obj
 0002:00003f90       __real@8@3ff8e38e38e38e38e000 1006cf90     krnln_static:gfunc.obj
 0002:00003f98       __real@8@3ffdb47c2c78b559f800 1006cf98     krnln_static:gfunc.obj
 0002:00003fa0       __real@8@4000e19b3796e2b07800 1006cfa0     krnln_static:gfunc.obj
 0002:00003fa8       __real@8@40059000000000000000 1006cfa8     krnln_static:gfunc.obj
 0002:00003fb0       __real@8@4003cb0bb207cc053800 1006cfb0     krnln_static:gfunc.obj
 0002:00003fb8       __real@8@4006fdce9e89bf068800 1006cfb8     krnln_static:gfunc.obj
 0002:00003fc0       __real@8@4003e2f1a9fbe76c8800 1006cfc0     krnln_static:gfunc.obj
 0002:00003fc8       __real@8@3ffdc9ba5e353f7ce800 1006cfc8     krnln_static:gfunc.obj
 0002:00003fd0       __real@8@4000b58e219652bd3800 1006cfd0     krnln_static:gfunc.obj
 0002:00003fd8       __real@8@3ffaa161e4f765fd8800 1006cfd8     krnln_static:gfunc.obj
 0002:00003fe0       __real@8@3ffd913e81450efdc800 1006cfe0     krnln_static:gfunc.obj
 0002:00003fe8       __real@8@3ff7811b1d92b7fe0800 1006cfe8     krnln_static:gfunc.obj
 0002:00003ff0       __real@8@3ff8a3d70a3d70a3d800 1006cff0     krnln_static:gfunc.obj
 0002:00003ff8       ?messageMap@CPreviewDlg@@1UAFX_MSGMAP@@B 1006cff8     krnln_static:PreviewDlg.obj
 0002:00004000       ?_messageEntries@CPreviewDlg@@0QBUAFX_MSGMAP_ENTRY@@B 1006d000     krnln_static:PreviewDlg.obj
 0002:00004138       ?messageMap@CPreviewWnd@@1UAFX_MSGMAP@@B 1006d138     krnln_static:PreviewWnd.obj
 0002:00004140       ?_messageEntries@CPreviewWnd@@0QBUAFX_MSGMAP_ENTRY@@B 1006d140     krnln_static:PreviewWnd.obj
 0002:000041e8       ?messageMap@CInPlaceEdit@@1UAFX_MSGMAP@@B 1006d1e8     krnln_static:GridEdit.obj
 0002:000041f0       ?_messageEntries@CInPlaceEdit@@0QBUAFX_MSGMAP_ENTRY@@B 1006d1f0     krnln_static:GridEdit.obj
 0002:000042b0       ??_7CInPlaceEdit@@6B@      1006d2b0     krnln_static:GridEdit.obj
 0002:00004368       ?messageMap@CMPrintStatusDlg@@1UAFX_MSGMAP@@B 1006d368     krnln_static:PrintStatusDlg.obj
 0002:00004370       ?_messageEntries@CMPrintStatusDlg@@0QBUAFX_MSGMAP_ENTRY@@B 1006d370     krnln_static:PrintStatusDlg.obj
 0002:000043a0       ??_7CMPrintStatusDlg@@6B@  1006d3a0     krnln_static:PrintStatusDlg.obj
 0002:00004470       ?messageMap@CColourPopup@@1UAFX_MSGMAP@@B 1006d470     krnln_static:Clrpopup.obj
 0002:00004478       ?_messageEntries@CColourPopup@@0QBUAFX_MSGMAP_ENTRY@@B 1006d478     krnln_static:Clrpopup.obj
 0002:00004568       ??_7CColourPopup@@6B@      1006d568     krnln_static:Clrpopup.obj
 0002:00004628       ?messageMap@CGotoPageDlg@@1UAFX_MSGMAP@@B 1006d628     krnln_static:GotoPageDlg.obj
 0002:00004630       ?_messageEntries@CGotoPageDlg@@0QBUAFX_MSGMAP_ENTRY@@B 1006d630     krnln_static:GotoPageDlg.obj
 0002:00004648       ??_7CGotoPageDlg@@6B@      1006d648     krnln_static:GotoPageDlg.obj
 0002:00004728       ?jpeg_natural_order@@3QBHB 1006d728     krnln_static:JUTILS.OBJ
 0002:00004b34       __real@4@3fff8a8bd40000000000 1006db34     krnln_static:JIDCTFLT.OBJ
 0002:00004b38       __real@4@4000a73d750000000000 1006db38     krnln_static:JIDCTFLT.OBJ
 0002:00004b3c       __real@4@3fffec835e0000000000 1006db3c     krnln_static:JIDCTFLT.OBJ
 0002:00004b40       __real@4@3fffb504f30000000000 1006db40     krnln_static:JIDCTFLT.OBJ
 0002:00005208       dp1___dist_code            1006e208     dp1_static:trees.obj
 0002:00005408       dp1___length_code          1006e408     dp1_static:trees.obj
 0002:00005828       _IID_IUnknown              1006e828     uuid:unknwn_i_guid0.obj
 0002:00005838       _IID_IOleControl           1006e838     uuid:ocidl_i_guid8.obj
 0002:00005848       _IID_IOleInPlaceActiveObject 1006e848     uuid:oleidl_i_guid12.obj
 0002:00005858       _IID_IPictureDisp          1006e858     uuid:ocidl_i_guid23.obj
 0002:00005868       _IID_IPicture              1006e868     uuid:ocidl_i_guid20.obj
 0002:00005878       _IID_IFontDisp             1006e878     uuid:ocidl_i_guid22.obj
 0002:00005888       _IID_IFont                 1006e888     uuid:ocidl_i_guid19.obj
 0002:00005898       _IID_IDispatch             1006e898     uuid:oaidl_i_guid4.obj
 0002:000058a8       _GUID_NULL                 1006e8a8     uuid:cguid_i_guid0.obj
 0002:000058b8       ??_C@_05JFHK@?$CF?$CK?4?$CKf?$AA@ 1006e8b8     nafxcw:strex.obj
 0002:000058c0       ??_C@_03NOMB@I64?$AA@      1006e8c0     nafxcw:strex.obj
 0002:000058c8       __real@8@3feec22e450672894800 1006e8c8     nafxcw:olevar.obj
 0002:000058d0       __real@8@bfedc22e450672894800 1006e8d0     nafxcw:olevar.obj
 0002:000058d8       ?classCNotSupportedException@CNotSupportedException@@2UCRuntimeClass@@B 1006e8d8     nafxcw:except.obj
 0002:000058f0       ??_C@_0BH@JODH@CNotSupportedException?$AA@ 1006e8f0     nafxcw:except.obj
 0002:00005908       ?classCMemoryException@CMemoryException@@2UCRuntimeClass@@B 1006e908     nafxcw:except.obj
 0002:00005920       ??_C@_0BB@NODM@CMemoryException?$AA@ 1006e920     nafxcw:except.obj
 0002:00005938       ?classCException@CException@@2UCRuntimeClass@@B 1006e938     nafxcw:except.obj
 0002:00005950       ??_C@_0L@CMNH@CException?$AA@ 1006e950     nafxcw:except.obj
 0002:00005960       ??_7CMemoryException@@6B@  1006e960     nafxcw:except.obj
 0002:00005978       ??_7CNotSupportedException@@6B@ 1006e978     nafxcw:except.obj
 0002:00005990       ?classCFile@CFile@@2UCRuntimeClass@@B 1006e990     nafxcw:filecore.obj
 0002:000059a8       ??_C@_05GM@CFile?$AA@      1006e9a8     nafxcw:filecore.obj
 0002:000059b4       ??_7CFile@@6B@             1006e9b4     nafxcw:filecore.obj
 0002:00005a0c       ??_7CFileException@@6B@    1006ea0c     nafxcw:filecore.obj
 0002:00005a20       ?classCMemFile@CMemFile@@2UCRuntimeClass@@B 1006ea20     nafxcw:filemem.obj
 0002:00005a38       ??_C@_08EMMO@CMemFile?$AA@ 1006ea38     nafxcw:filemem.obj
 0002:00005a48       ??_7CMemFile@@6B@          1006ea48     nafxcw:filemem.obj
 0002:00005ab0       ?classCTempGdiObject@CTempGdiObject@@2UCRuntimeClass@@B 1006eab0     nafxcw:wingdi.obj
 0002:00005ac8       ??_C@_0P@LOPC@CTempGdiObject?$AA@ 1006eac8     nafxcw:wingdi.obj
 0002:00005ad8       ?classCTempDC@CTempDC@@2UCRuntimeClass@@B 1006ead8     nafxcw:wingdi.obj
 0002:00005af0       ??_C@_07LHDN@CTempDC?$AA@  1006eaf0     nafxcw:wingdi.obj
 0002:00005af8       ?classCRgn@CRgn@@2UCRuntimeClass@@B 1006eaf8     nafxcw:wingdi.obj
 0002:00005b10       ??_C@_04HJNG@CRgn?$AA@     1006eb10     nafxcw:wingdi.obj
 0002:00005b18       ?classCPalette@CPalette@@2UCRuntimeClass@@B 1006eb18     nafxcw:wingdi.obj
 0002:00005b30       ??_C@_08CIF@CPalette?$AA@  1006eb30     nafxcw:wingdi.obj
 0002:00005b40       ?classCBitmap@CBitmap@@2UCRuntimeClass@@B 1006eb40     nafxcw:wingdi.obj
 0002:00005b58       ??_C@_07HNEL@CBitmap?$AA@  1006eb58     nafxcw:wingdi.obj
 0002:00005b60       ?classCFont@CFont@@2UCRuntimeClass@@B 1006eb60     nafxcw:wingdi.obj
 0002:00005b78       ??_C@_05MCKJ@CFont?$AA@    1006eb78     nafxcw:wingdi.obj
 0002:00005b80       ?classCBrush@CBrush@@2UCRuntimeClass@@B 1006eb80     nafxcw:wingdi.obj
 0002:00005b98       ??_C@_06PNF@CBrush?$AA@    1006eb98     nafxcw:wingdi.obj
 0002:00005ba0       ?classCPen@CPen@@2UCRuntimeClass@@B 1006eba0     nafxcw:wingdi.obj
 0002:00005bb8       ??_C@_04PAKO@CPen?$AA@     1006ebb8     nafxcw:wingdi.obj
 0002:00005bc0       ?classCGdiObject@CGdiObject@@2UCRuntimeClass@@B 1006ebc0     nafxcw:wingdi.obj
 0002:00005bd8       ??_C@_0L@CNBG@CGdiObject?$AA@ 1006ebd8     nafxcw:wingdi.obj
 0002:00005be8       ?classCPaintDC@CPaintDC@@2UCRuntimeClass@@B 1006ebe8     nafxcw:wingdi.obj
 0002:00005c00       ??_C@_08HFDK@CPaintDC?$AA@ 1006ec00     nafxcw:wingdi.obj
 0002:00005c10       ?classCWindowDC@CWindowDC@@2UCRuntimeClass@@B 1006ec10     nafxcw:wingdi.obj
 0002:00005c28       ??_C@_09NFPO@CWindowDC?$AA@ 1006ec28     nafxcw:wingdi.obj
 0002:00005c38       ?classCClientDC@CClientDC@@2UCRuntimeClass@@B 1006ec38     nafxcw:wingdi.obj
 0002:00005c50       ??_C@_09HIEC@CClientDC?$AA@ 1006ec50     nafxcw:wingdi.obj
 0002:00005c60       ?classCDC@CDC@@2UCRuntimeClass@@B 1006ec60     nafxcw:wingdi.obj
 0002:00005c78       ??_C@_03NJOH@CDC?$AA@      1006ec78     nafxcw:wingdi.obj
 0002:00005c80       ?classCUserException@CUserException@@2UCRuntimeClass@@B 1006ec80     nafxcw:wingdi.obj
 0002:00005c98       ??_C@_0P@BHHD@CUserException?$AA@ 1006ec98     nafxcw:wingdi.obj
 0002:00005ca8       ?classCResourceException@CResourceException@@2UCRuntimeClass@@B 1006eca8     nafxcw:wingdi.obj
 0002:00005cc0       ??_C@_0BD@GMHI@CResourceException?$AA@ 1006ecc0     nafxcw:wingdi.obj
 0002:00005cd8       ??_7CDC@@6B@               1006ecd8     nafxcw:wingdi.obj
 0002:00005d50       ??_7CClientDC@@6B@         1006ed50     nafxcw:wingdi.obj
 0002:00005dc8       ??_7CWindowDC@@6B@         1006edc8     nafxcw:wingdi.obj
 0002:00005e40       ??_7CPaintDC@@6B@          1006ee40     nafxcw:wingdi.obj
 0002:00005eb8       ??_7CPen@@6B@              1006eeb8     nafxcw:wingdi.obj
 0002:00005ec8       ??_7CBrush@@6B@            1006eec8     nafxcw:wingdi.obj
 0002:00005ed8       ??_7CGdiObject@@6B@        1006eed8     nafxcw:wingdi.obj
 0002:00005ee8       ??_7CTempDC@@6B@           1006eee8     nafxcw:wingdi.obj
 0002:00005f60       ??_7CTempGdiObject@@6B@    1006ef60     nafxcw:wingdi.obj
 0002:00005f70       ??_7CResourceException@@6B@ 1006ef70     nafxcw:wingdi.obj
 0002:00005f88       ??_7CUserException@@6B@    1006ef88     nafxcw:wingdi.obj
 0002:00005fa0       ?classCDialog@CDialog@@2UCRuntimeClass@@B 1006efa0     nafxcw:dlgcore.obj
 0002:00005fb8       ??_C@_07IJJI@CDialog?$AA@  1006efb8     nafxcw:dlgcore.obj
 0002:00005fc0       ?messageMap@CDialog@@1UAFX_MSGMAP@@B 1006efc0     nafxcw:dlgcore.obj
 0002:00005fc8       ?_messageEntries@CDialog@@0QBUAFX_MSGMAP_ENTRY@@B 1006efc8     nafxcw:dlgcore.obj
 0002:000060a0       ??_C@_04EDLP@Edit?$AA@     1006f0a0     nafxcw:dlgcore.obj
 0002:000060ac       ??_7CDialog@@6B@           1006f0ac     nafxcw:dlgcore.obj
 0002:0000617c       ??_C@_04JCAN@Helv?$AA@     1006f17c     nafxcw:dlgcore.obj
 0002:00006184       ??_C@_0O@JHLN@MS?5Sans?5Serif?$AA@ 1006f184     nafxcw:dlgcore.obj
 0002:00006194       ??_C@_0N@KBJM@MS?5Shell?5Dlg?$AA@ 1006f194     nafxcw:dlgcore.obj
 0002:000061a8       ?classCTempWnd@CTempWnd@@2UCRuntimeClass@@B 1006f1a8     nafxcw:wincore.obj
 0002:000061c0       ??_C@_08EHJM@CTempWnd?$AA@ 1006f1c0     nafxcw:wincore.obj
 0002:000061d0       ?classCWnd@CWnd@@2UCRuntimeClass@@B 1006f1d0     nafxcw:wincore.obj
 0002:000061e8       ??_C@_04MBPC@CWnd?$AA@     1006f1e8     nafxcw:wincore.obj
 0002:000061f0       ?messageMap@CWnd@@1UAFX_MSGMAP@@B 1006f1f0     nafxcw:wincore.obj
 0002:000061f8       ?_messageEntries@CWnd@@0QBUAFX_MSGMAP_ENTRY@@B 1006f1f8     nafxcw:wincore.obj
 0002:00006498       ?_afxOldWndProc@@3QBDB     1006f498     nafxcw:wincore.obj
 0002:000064ac       ?_afxWnd@@3QBDB            1006f4ac     nafxcw:wincore.obj
 0002:000064b8       ?_afxWndControlBar@@3QBDB  1006f4b8     nafxcw:wincore.obj
 0002:000064cc       ?_afxWndMDIFrame@@3QBDB    1006f4cc     nafxcw:wincore.obj
 0002:000064dc       ?_afxWndFrameOrView@@3QBDB 1006f4dc     nafxcw:wincore.obj
 0002:000064f0       ?_afxWndOleControl@@3QBDB  1006f4f0     nafxcw:wincore.obj
 0002:00006504       ??_C@_0BA@LJCP@GetMonitorInfoA?$AA@ 1006f504     nafxcw:wincore.obj
 0002:00006514       ??_C@_0BE@KPOG@EnumDisplayMonitors?$AA@ 1006f514     nafxcw:wincore.obj
 0002:00006528       ??_C@_0BB@GJCM@MonitorFromPoint?$AA@ 1006f528     nafxcw:wincore.obj
 0002:0000653c       ??_C@_0BA@GOHF@MonitorFromRect?$AA@ 1006f53c     nafxcw:wincore.obj
 0002:0000654c       ??_C@_0BC@COEH@MonitorFromWindow?$AA@ 1006f54c     nafxcw:wincore.obj
 0002:00006560       ??_C@_0BB@NDAA@GetSystemMetrics?$AA@ 1006f560     nafxcw:wincore.obj
 0002:00006574       ??_C@_06NEIN@USER32?$AA@   1006f574     nafxcw:wincore.obj
 0002:0000657c       ??_C@_0BF@CBLB@commctrl_DragListMsg?$AA@ 1006f57c     nafxcw:wincore.obj
 0002:00006598       ??_7CWnd@@6B@              1006f598     nafxcw:wincore.obj
 0002:00006650       ??_C@_03HEJE@ime?$AA@      1006f650     nafxcw:wincore.obj
 0002:00006654       ??_C@_0BD@JBOB@Afx?3?$CFx?3?$CFx?3?$CFx?3?$CFx?3?$CFx?$AA@ 1006f654     nafxcw:wincore.obj
 0002:00006668       ??_C@_09NEO@Afx?3?$CFx?3?$CFx?$AA@ 1006f668     nafxcw:wincore.obj
 0002:00006678       ??_7CTestCmdUI@@6B@        1006f678     nafxcw:wincore.obj
 0002:00006688       ??_C@_0BF@CELH@InitCommonControlsEx?$AA@ 1006f688     nafxcw:wincore.obj
 0002:000066a0       ??_C@_0N@BMKC@COMCTL32?4DLL?$AA@ 1006f6a0     nafxcw:wincore.obj
 0002:000066b4       ??_7CTempWnd@@6B@          1006f6b4     nafxcw:wincore.obj
 0002:00006770       ??_7_AFX_CTL3D_STATE@@6B@  1006f770     nafxcw:wincore.obj
 0002:00006778       ?classCPtrArray@CPtrArray@@2UCRuntimeClass@@B 1006f778     nafxcw:array_p.obj
 0002:00006790       ??_C@_09BHCJ@CPtrArray?$AA@ 1006f790     nafxcw:array_p.obj
 0002:000067a0       ??_7CPtrArray@@6B@         1006f7a0     nafxcw:array_p.obj
 0002:000067b0       ?classCEdit@CEdit@@2UCRuntimeClass@@B 1006f7b0     nafxcw:winctrl1.obj
 0002:000067c8       ??_C@_05KKIE@CEdit?$AA@    1006f7c8     nafxcw:winctrl1.obj
 0002:000067d0       ?classCComboBox@CComboBox@@2UCRuntimeClass@@B 1006f7d0     nafxcw:winctrl1.obj
 0002:000067e8       ??_C@_09JMHE@CComboBox?$AA@ 1006f7e8     nafxcw:winctrl1.obj
 0002:000067f8       ?classCButton@CButton@@2UCRuntimeClass@@B 1006f7f8     nafxcw:winctrl1.obj
 0002:00006810       ??_C@_07NNHJ@CButton?$AA@  1006f810     nafxcw:winctrl1.obj
 0002:00006818       ?classCStatic@CStatic@@2UCRuntimeClass@@B 1006f818     nafxcw:winctrl1.obj
 0002:00006830       ??_C@_07HEEJ@CStatic?$AA@  1006f830     nafxcw:winctrl1.obj
 0002:0000683c       ??_7CStatic@@6B@           1006f83c     nafxcw:winctrl1.obj
 0002:000068f8       ??_7CButton@@6B@           1006f8f8     nafxcw:winctrl1.obj
 0002:000069b8       ??_7CComboBox@@6B@         1006f9b8     nafxcw:winctrl1.obj
 0002:00006a84       ??_7CEdit@@6B@             1006fa84     nafxcw:winctrl1.obj
 0002:00006b40       ?messageMap@CCheckListBox@@1UAFX_MSGMAP@@B 1006fb40     nafxcw:winctrl3.obj
 0002:00006b48       ?_messageEntries@CCheckListBox@@0QBUAFX_MSGMAP_ENTRY@@B 1006fb48     nafxcw:winctrl3.obj
 0002:00006cb4       ??_7CBitmap@@6B@           1006fcb4     nafxcw:winctrl3.obj
 0002:00006cc4       ??_7_AFX_CHECKLIST_STATE@@6B@ 1006fcc4     nafxcw:winctrl3.obj
 0002:00006ccc       ??_7CRgn@@6B@              1006fccc     nafxcw:wingdix.obj
 0002:00006cd8       ?classCFileDialog@CFileDialog@@2UCRuntimeClass@@B 1006fcd8     nafxcw:dlgfile.obj
 0002:00006cf0       ??_C@_0M@JEJA@CFileDialog?$AA@ 1006fcf0     nafxcw:dlgfile.obj
 0002:00006d00       ??_7CFileDialog@@6B@       1006fd00     nafxcw:dlgfile.obj
 0002:00006df0       ??_7_AFX_THREAD_STATE@@6B@ 1006fdf0     nafxcw:afxstate.obj
 0002:00006df8       ??_7AFX_MODULE_STATE@@6B@  1006fdf8     nafxcw:afxstate.obj
 0002:00006e00       ??_7AFX_MODULE_THREAD_STATE@@6B@ 1006fe00     nafxcw:afxstate.obj
 0002:00006e08       ??_7_AFX_BASE_MODULE_STATE@@6B@ 1006fe08     nafxcw:afxstate.obj
 0002:00006e0c       ??_C@_0N@FMIP@CStringArray?$AA@ 1006fe0c     nafxcw:array_s.obj
 0002:00006e20       ??_7CStringArray@@6B@      1006fe20     nafxcw:array_s.obj
 0002:00006e30       ??_7CThreadData@@6B@       1006fe30     nafxcw:afxtls.obj
 0002:00006e38       ?classCWinApp@CWinApp@@2UCRuntimeClass@@B 1006fe38     nafxcw:appcore.obj
 0002:00006e50       ??_C@_07DHEF@CWinApp?$AA@  1006fe50     nafxcw:appcore.obj
 0002:00006e58       ?messageMap@CWinApp@@1UAFX_MSGMAP@@B 1006fe58     nafxcw:appcore.obj
 0002:00006e60       ?_messageEntries@CWinApp@@0QBUAFX_MSGMAP_ENTRY@@B 1006fe60     nafxcw:appcore.obj
 0002:00006ec0       ?_afxPreviewEntry@@3QBDB   1006fec0     nafxcw:appcore.obj
 0002:00006ed0       ?_afxPreviewSection@@3QBDB 1006fed0     nafxcw:appcore.obj
 0002:00006ee0       ??_7_AFX_WIN_STATE@@6B@    1006fee0     nafxcw:appcore.obj
 0002:00006ee8       ??_7CWinApp@@6B@           1006fee8     nafxcw:appcore.obj
 0002:00006f88       ?classCTempImageList@CTempImageList@@2UCRuntimeClass@@B 1006ff88     nafxcw:winctrl2.obj
 0002:00006fa0       ??_C@_0P@OCOD@CTempImageList?$AA@ 1006ffa0     nafxcw:winctrl2.obj
 0002:00006fb0       ?classCImageList@CImageList@@2UCRuntimeClass@@B 1006ffb0     nafxcw:winctrl2.obj
 0002:00006fc8       ??_C@_0L@HBAH@CImageList?$AA@ 1006ffc8     nafxcw:winctrl2.obj
 0002:00006fd8       ?classCProgressCtrl@CProgressCtrl@@2UCRuntimeClass@@B 1006ffd8     nafxcw:winctrl2.obj
 0002:00006ff0       ??_C@_0O@ECFI@CProgressCtrl?$AA@ 1006fff0     nafxcw:winctrl2.obj
 0002:00007000       ?messageMap@CTabCtrl@@1UAFX_MSGMAP@@B 10070000     nafxcw:winctrl2.obj
 0002:00007008       ?_messageEntries@CTabCtrl@@0QBUAFX_MSGMAP_ENTRY@@B 10070008     nafxcw:winctrl2.obj
 0002:00007038       ?messageMap@CTreeCtrl@@1UAFX_MSGMAP@@B 10070038     nafxcw:winctrl2.obj
 0002:00007040       ?_messageEntries@CTreeCtrl@@0QBUAFX_MSGMAP_ENTRY@@B 10070040     nafxcw:winctrl2.obj
 0002:00007074       ??_7CProgressCtrl@@6B@     10070074     nafxcw:winctrl2.obj
 0002:00007130       ??_7CImageList@@6B@        10070130     nafxcw:winctrl2.obj
 0002:00007140       ??_7CTempImageList@@6B@    10070140     nafxcw:winctrl2.obj
 0002:00007150       ?classCArchiveException@CArchiveException@@2UCRuntimeClass@@B 10070150     nafxcw:arcex.obj
 0002:00007168       ??_C@_0BC@BIF@CArchiveException?$AA@ 10070168     nafxcw:arcex.obj
 0002:00007180       ??_7CArchiveException@@6B@ 10070180     nafxcw:arcex.obj
 0002:00007198       ?classCCmdTarget@CCmdTarget@@2UCRuntimeClass@@B 10070198     nafxcw:cmdtarg.obj
 0002:000071b0       ??_C@_0L@MION@CCmdTarget?$AA@ 100701b0     nafxcw:cmdtarg.obj
 0002:000071bc       ?_afxDot@@3QBEB            100701bc     nafxcw:cmdtarg.obj
 0002:000071c8       ?messageMap@CCmdTarget@@1UAFX_MSGMAP@@B 100701c8     nafxcw:cmdtarg.obj
 0002:000071d0       ?_messageEntries@CCmdTarget@@0QBUAFX_MSGMAP_ENTRY@@B 100701d0     nafxcw:cmdtarg.obj
 0002:000071e8       ?dispatchMap@CCmdTarget@@1UAFX_DISPMAP@@B 100701e8     nafxcw:cmdtarg.obj
 0002:000071f8       ?_dispatchEntries@CCmdTarget@@0QBUAFX_DISPMAP_ENTRY@@B 100701f8     nafxcw:cmdtarg.obj
 0002:00007218       ?eventsinkMap@CCmdTarget@@1UAFX_EVENTSINKMAP@@B 10070218     nafxcw:cmdtarg.obj
 0002:00007228       ?_eventsinkEntries@CCmdTarget@@0QBUAFX_EVENTSINKMAP_ENTRY@@B 10070228     nafxcw:cmdtarg.obj
 0002:00007250       ?interfaceMap@CCmdTarget@@1UAFX_INTERFACEMAP@@B 10070250     nafxcw:cmdtarg.obj
 0002:00007258       ?_interfaceEntries@CCmdTarget@@0QBUAFX_INTERFACEMAP_ENTRY@@B 10070258     nafxcw:cmdtarg.obj
 0002:00007268       ?connectionMap@CCmdTarget@@1UAFX_CONNECTIONMAP@@B 10070268     nafxcw:cmdtarg.obj
 0002:00007270       ?_connectionEntries@CCmdTarget@@0QBUAFX_CONNECTIONMAP_ENTRY@@B 10070270     nafxcw:cmdtarg.obj
 0002:00007278       ?commandMap@CCmdTarget@@1UAFX_OLECMDMAP@@B 10070278     nafxcw:cmdtarg.obj
 0002:00007280       ?_commandEntries@CCmdTarget@@0QBUAFX_OLECMDMAP_ENTRY@@B 10070280     nafxcw:cmdtarg.obj
 0002:00007290       ??_7CCmdUI@@6B@            10070290     nafxcw:cmdtarg.obj
 0002:000072a0       ?classCWinThread@CWinThread@@2UCRuntimeClass@@B 100702a0     nafxcw:thrdcore.obj
 0002:000072b8       ??_C@_0L@BKIL@CWinThread?$AA@ 100702b8     nafxcw:thrdcore.obj
 0002:000072c8       ??_7CWinThread@@6B@        100702c8     nafxcw:thrdcore.obj
 0002:00007348       ??_7_AFX_CTL3D_THREAD@@6B@ 10070348     nafxcw:thrdcore.obj
 0002:0000734c       ??_C@_0M@JHEJ@CDWordArray?$AA@ 1007034c     nafxcw:array_d.obj
 0002:0000735c       ??_7CDWordArray@@6B@       1007035c     nafxcw:array_d.obj
 0002:00007368       ??_C@_0L@KEGG@CWordArray?$AA@ 10070368     nafxcw:array_w.obj
 0002:00007378       ??_7CWordArray@@6B@        10070378     nafxcw:array_w.obj
 0002:00007388       ?classCTempMenu@CTempMenu@@2UCRuntimeClass@@B 10070388     nafxcw:winmenu.obj
 0002:000073a0       ??_C@_09NDEG@CTempMenu?$AA@ 100703a0     nafxcw:winmenu.obj
 0002:000073b0       ?classCMenu@CMenu@@2UCRuntimeClass@@B 100703b0     nafxcw:winmenu.obj
 0002:000073c8       ??_C@_05BJMA@CMenu?$AA@    100703c8     nafxcw:winmenu.obj
 0002:000073d4       ??_7CMenu@@6B@             100703d4     nafxcw:winmenu.obj
 0002:000073ec       ??_7CTempMenu@@6B@         100703ec     nafxcw:winmenu.obj
 0002:00007400       ??_C@_08PKA@combobox?$AA@  10070400     nafxcw:winutil.obj
 0002:00007410       ?classCFileException@CFileException@@2UCRuntimeClass@@B 10070410     nafxcw:filex.obj
 0002:00007428       ??_C@_0P@HFKI@CFileException?$AA@ 10070428     nafxcw:filex.obj
 0002:00007438       ?classCMapPtrToPtr@CMapPtrToPtr@@2UCRuntimeClass@@B 10070438     nafxcw:map_pp.obj
 0002:00007450       ??_C@_0N@EGND@CMapPtrToPtr?$AA@ 10070450     nafxcw:map_pp.obj
 0002:00007464       ??_7CMapPtrToPtr@@6B@      10070464     nafxcw:map_pp.obj
 0002:00007470       ?classCToolTipCtrl@CToolTipCtrl@@2UCRuntimeClass@@B 10070470     nafxcw:tooltip.obj
 0002:00007488       ??_C@_0N@OELH@CToolTipCtrl?$AA@ 10070488     nafxcw:tooltip.obj
 0002:00007498       ?messageMap@CToolTipCtrl@@1UAFX_MSGMAP@@B 10070498     nafxcw:tooltip.obj
 0002:000074a0       ?_messageEntries@CToolTipCtrl@@0QBUAFX_MSGMAP_ENTRY@@B 100704a0     nafxcw:tooltip.obj
 0002:0000751c       ??_7CToolTipCtrl@@6B@      1007051c     nafxcw:tooltip.obj
 0002:000075d8       ??_C@_0BB@FNBH@tooltips_class32?$AA@ 100705d8     nafxcw:tooltip.obj
 0002:000075f0       ?classCColorDialog@CColorDialog@@2UCRuntimeClass@@B 100705f0     nafxcw:dlgclr.obj
 0002:00007608       ??_C@_0N@GCDM@CColorDialog?$AA@ 10070608     nafxcw:dlgclr.obj
 0002:00007618       ?messageMap@CColorDialog@@1UAFX_MSGMAP@@B 10070618     nafxcw:dlgclr.obj
 0002:00007620       ?_messageEntries@CColorDialog@@0QBUAFX_MSGMAP_ENTRY@@B 10070620     nafxcw:dlgclr.obj
 0002:00007654       ??_7_AFX_COLOR_STATE@@6B@  10070654     nafxcw:dlgclr.obj
 0002:0000765c       ??_7CColorDialog@@6B@      1007065c     nafxcw:dlgclr.obj
 0002:00007734       ??_7CHandleMap@@6B@        10070734     nafxcw:winhand.obj
 0002:00007738       ??_C@_04CLNG@?4INI?$AA@    10070738     nafxcw:appinit.obj
 0002:00007740       ??_C@_04DMK@?4HLP?$AA@     10070740     nafxcw:appinit.obj
 0002:00007748       ?classCObject@CObject@@2UCRuntimeClass@@B 10070748     nafxcw:objcore.obj
 0002:00007760       ??_C@_07EFMO@CObject?$AA@  10070760     nafxcw:objcore.obj
 0002:00007768       ??_C@_06NILE@System?$AA@   10070768     nafxcw:dlgtempl.obj
 0002:00007770       ?messageMap@CCommonDialog@@1UAFX_MSGMAP@@B 10070770     nafxcw:dlgcomm.obj
 0002:00007778       ?_messageEntries@CCommonDialog@@0QBUAFX_MSGMAP_ENTRY@@B 10070778     nafxcw:dlgcomm.obj
 0002:000077a8       ??_C@_0BE@PMME@commdlg_SetRGBColor?$AA@ 100707a8     nafxcw:dlgcomm.obj
 0002:000077bc       ??_C@_0N@IIFK@commdlg_help?$AA@ 100707bc     nafxcw:dlgcomm.obj
 0002:000077cc       ??_C@_0BA@DHJO@commdlg_ColorOK?$AA@ 100707cc     nafxcw:dlgcomm.obj
 0002:000077dc       ??_C@_0BD@HNAP@commdlg_FileNameOK?$AA@ 100707dc     nafxcw:dlgcomm.obj
 0002:000077f0       ??_C@_0BH@KPHM@commdlg_ShareViolation?$AA@ 100707f0     nafxcw:dlgcomm.obj
 0002:00007808       ??_C@_0BL@ODDK@commdlg_LBSelChangedNotify?$AA@ 10070808     nafxcw:dlgcomm.obj
 0002:00007824       ??_C@_08LLFG@software?$AA@ 10070824     nafxcw:appui3.obj
 0002:00007830       ?classCMapStringToPtr@CMapStringToPtr@@2UCRuntimeClass@@B 10070830     nafxcw:map_sp.obj
 0002:00007848       ??_C@_0BA@PAMN@CMapStringToPtr?$AA@ 10070848     nafxcw:map_sp.obj
 0002:0000785c       ??_7CMapStringToPtr@@6B@   1007085c     nafxcw:map_sp.obj
 0002:0000786c       ??_7type_info@@6B@         1007086c     libcmt:typinfo.obj
 0002:000078f0       ??_C@_07CJME@H?3mm?3ss?$AA@ 100708f0     libcmt:strftime.obj
 0002:000078f8       ??_C@_0BE@MHI@dddd?0?5MMMM?5dd?0?5yyyy?$AA@ 100708f8     libcmt:strftime.obj
 0002:0000790c       ??_C@_06HCAD@M?1d?1yy?$AA@ 1007090c     libcmt:strftime.obj
 0002:00007914       ??_C@_02DBLP@PM?$AA@       10070914     libcmt:strftime.obj
 0002:00007918       ??_C@_02ENLM@AM?$AA@       10070918     libcmt:strftime.obj
 0002:0000791c       ??_C@_08LIDF@December?$AA@ 1007091c     libcmt:strftime.obj
 0002:00007928       ??_C@_08NJLI@November?$AA@ 10070928     libcmt:strftime.obj
 0002:00007934       ??_C@_07IAMM@October?$AA@  10070934     libcmt:strftime.obj
 0002:0000793c       ??_C@_09MKGD@September?$AA@ 1007093c     libcmt:strftime.obj
 0002:00007948       ??_C@_06PADP@August?$AA@   10070948     libcmt:strftime.obj
 0002:00007950       ??_C@_04PIJO@July?$AA@     10070950     libcmt:strftime.obj
 0002:00007958       ??_C@_04ICFP@June?$AA@     10070958     libcmt:strftime.obj
 0002:00007960       ??_C@_05JFGC@April?$AA@    10070960     libcmt:strftime.obj
 0002:00007968       ??_C@_05FGPD@March?$AA@    10070968     libcmt:strftime.obj
 0002:00007970       ??_C@_08PGBA@February?$AA@ 10070970     libcmt:strftime.obj
 0002:0000797c       ??_C@_07BPKJ@January?$AA@  1007097c     libcmt:strftime.obj
 0002:00007984       ??_C@_03PGJO@Dec?$AA@      10070984     libcmt:strftime.obj
 0002:00007988       ??_C@_03PDLM@Nov?$AA@      10070988     libcmt:strftime.obj
 0002:0000798c       ??_C@_03BLHK@Oct?$AA@      1007098c     libcmt:strftime.obj
 0002:00007990       ??_C@_03DPFM@Sep?$AA@      10070990     libcmt:strftime.obj
 0002:00007994       ??_C@_03CMCH@Aug?$AA@      10070994     libcmt:strftime.obj
 0002:00007998       ??_C@_03OBKI@Jul?$AA@      10070998     libcmt:strftime.obj
 0002:0000799c       ??_C@_03LEIG@Jun?$AA@      1007099c     libcmt:strftime.obj
 0002:000079a0       ??_C@_03MGHB@May?$AA@      100709a0     libcmt:strftime.obj
 0002:000079a4       ??_C@_03MJJM@Apr?$AA@      100709a4     libcmt:strftime.obj
 0002:000079a8       ??_C@_03GNHA@Mar?$AA@      100709a8     libcmt:strftime.obj
 0002:000079ac       ??_C@_03PICE@Feb?$AA@      100709ac     libcmt:strftime.obj
 0002:000079b0       ??_C@_03IEIF@Jan?$AA@      100709b0     libcmt:strftime.obj
 0002:000079b4       ??_C@_08FAKH@Saturday?$AA@ 100709b4     libcmt:strftime.obj
 0002:000079c0       ??_C@_06ONCK@Friday?$AA@   100709c0     libcmt:strftime.obj
 0002:000079c8       ??_C@_08CCFO@Thursday?$AA@ 100709c8     libcmt:strftime.obj
 0002:000079d4       ??_C@_09PBIN@Wednesday?$AA@ 100709d4     libcmt:strftime.obj
 0002:000079e0       ??_C@_07BMBC@Tuesday?$AA@  100709e0     libcmt:strftime.obj
 0002:000079e8       ??_C@_06CHLK@Monday?$AA@   100709e8     libcmt:strftime.obj
 0002:000079f0       ??_C@_06OOEM@Sunday?$AA@   100709f0     libcmt:strftime.obj
 0002:000079f8       ??_C@_03MPKK@Sat?$AA@      100709f8     libcmt:strftime.obj
 0002:000079fc       ??_C@_03FINJ@Fri?$AA@      100709fc     libcmt:strftime.obj
 0002:00007a00       ??_C@_03HIKC@Thu?$AA@      10070a00     libcmt:strftime.obj
 0002:00007a04       ??_C@_03HECK@Wed?$AA@      10070a04     libcmt:strftime.obj
 0002:00007a08       ??_C@_03ECCP@Tue?$AA@      10070a08     libcmt:strftime.obj
 0002:00007a0c       ??_C@_03PIEP@Mon?$AA@      10070a0c     libcmt:strftime.obj
 0002:00007a10       ??_C@_03FHEP@Sun?$AA@      10070a10     libcmt:strftime.obj
 0002:00007a48       ??_C@_0BH@PHHF@__GLOBAL_HEAP_SELECTED?$AA@ 10070a48     libcmt:heapinit.obj
 0002:00007a60       ??_C@_0BF@BBGL@__MSVCRT_HEAP_SELECT?$AA@ 10070a60     libcmt:heapinit.obj
 0002:00007a78       ??_C@_0P@GGKG@runtime?5error?5?$AA@ 10070a78     libcmt:crt0msg.obj
 0002:00007a88       ??_C@_0O@DELO@TLOSS?5error?$AN?6?$AA@ 10070a88     libcmt:crt0msg.obj
 0002:00007a98       ??_C@_0N@OMLL@SING?5error?$AN?6?$AA@ 10070a98     libcmt:crt0msg.obj
 0002:00007aa8       ??_C@_0P@OJAK@DOMAIN?5error?$AN?6?$AA@ 10070aa8     libcmt:crt0msg.obj
 0002:00007ab8       ??_C@_0CF@EANP@R6028?$AN?6?9?5unable?5to?5initialize?5he@ 10070ab8     libcmt:crt0msg.obj
 0002:00007ae0       ??_C@_0DF@ECGN@R6027?$AN?6?9?5not?5enough?5space?5for?5lo@ 10070ae0     libcmt:crt0msg.obj
 0002:00007b18       ??_C@_0DF@FKAC@R6026?$AN?6?9?5not?5enough?5space?5for?5st@ 10070b18     libcmt:crt0msg.obj
 0002:00007b50       ??_C@_0CG@DPMN@R6025?$AN?6?9?5pure?5virtual?5function?5c@ 10070b50     libcmt:crt0msg.obj
 0002:00007b78       ??_C@_0DF@CKIP@R6024?$AN?6?9?5not?5enough?5space?5for?5_o@ 10070b78     libcmt:crt0msg.obj
 0002:00007bb0       ??_C@_0CJ@GGOE@R6019?$AN?6?9?5unable?5to?5open?5console?5@ 10070bb0     libcmt:crt0msg.obj
 0002:00007bdc       ??_C@_0CB@LBOB@R6018?$AN?6?9?5unexpected?5heap?5error?$AN?6@ 10070bdc     libcmt:crt0msg.obj
 0002:00007c00       ??_C@_0CN@FPEG@R6017?$AN?6?9?5unexpected?5multithread?5@ 10070c00     libcmt:crt0msg.obj
 0002:00007c30       ??_C@_0CM@OBIC@R6016?$AN?6?9?5not?5enough?5space?5for?5th@ 10070c30     libcmt:crt0msg.obj
 0002:00007c5c       ??_C@_0CB@HPAL@?$AN?6abnormal?5program?5termination?$AN?6@ 10070c5c     libcmt:crt0msg.obj
 0002:00007c80       ??_C@_0CM@JOOB@R6009?$AN?6?9?5not?5enough?5space?5for?5en@ 10070c80     libcmt:crt0msg.obj
 0002:00007cac       ??_C@_0CK@OIBL@R6008?$AN?6?9?5not?5enough?5space?5for?5ar@ 10070cac     libcmt:crt0msg.obj
 0002:00007cd8       ??_C@_0CF@LKPB@R6002?$AN?6?9?5floating?5point?5not?5load@ 10070cd8     libcmt:crt0msg.obj
 0002:00007d00       ??_C@_0CF@JPDF@Microsoft?5Visual?5C?$CL?$CL?5Runtime?5Lib@ 10070d00     libcmt:crt0msg.obj
 0002:00007d28       ??_C@_02JJJH@?6?6?$AA@     10070d28     libcmt:crt0msg.obj
 0002:00007d2c       ??_C@_0BK@DEOK@Runtime?5Error?$CB?6?6Program?3?5?$AA@ 10070d2c     libcmt:crt0msg.obj
 0002:00007d48       ??_C@_0BH@NNCD@?$DMprogram?5name?5unknown?$DO?$AA@ 10070d48     libcmt:crt0msg.obj
 0002:00007d60       __real@8@4015800bf60000000000 10070d60     libcmt:testfdiv.obj
 0002:00007d68       __real@8@4014bffffc0000000000 10070d68     libcmt:testfdiv.obj
 0002:00007d70       ??_C@_0BK@JEGK@IsProcessorFeaturePresent?$AA@ 10070d70     libcmt:testfdiv.obj
 0002:00007d8c       ??_C@_08OBID@KERNEL32?$AA@ 10070d8c     libcmt:testfdiv.obj
 0002:00007d98       ??_C@_05OFLO@e?$CL000?$AA@ 10070d98     libcmt:cvt.obj
 0002:00007da8       __DEFAULT_CW_in_mem        10070da8     libcmt:common.obj
 0002:00007daa       __pi_by_2_to_61            10070daa     libcmt:common.obj
 0002:00007de4       ??_C@_03GAFO@_yn?$AA@      10070de4     libcmt:fpexcept.obj
 0002:00007de8       ??_C@_03GNLD@_y1?$AA@      10070de8     libcmt:fpexcept.obj
 0002:00007dec       ??_C@_03MHCE@_y0?$AA@      10070dec     libcmt:fpexcept.obj
 0002:00007df0       ??_C@_05PAK@frexp?$AA@     10070df0     libcmt:fpexcept.obj
 0002:00007df8       ??_C@_04JKCH@fmod?$AA@     10070df8     libcmt:fpexcept.obj
 0002:00007e00       ??_C@_06GGHF@_hypot?$AA@   10070e00     libcmt:fpexcept.obj
 0002:00007e08       ??_C@_05JNMC@_cabs?$AA@    10070e08     libcmt:fpexcept.obj
 0002:00007e10       ??_C@_05MEKH@ldexp?$AA@    10070e10     libcmt:fpexcept.obj
 0002:00007e18       ??_C@_04KAOJ@modf?$AA@     10070e18     libcmt:fpexcept.obj
 0002:00007e20       ??_C@_04EHAJ@fabs?$AA@     10070e20     libcmt:fpexcept.obj
 0002:00007e28       ??_C@_05MFBN@floor?$AA@    10070e28     libcmt:fpexcept.obj
 0002:00007e30       ??_C@_04JJMP@ceil?$AA@     10070e30     libcmt:fpexcept.obj
 0002:00007e38       ??_C@_03JLPI@tan?$AA@      10070e38     libcmt:fpexcept.obj
 0002:00007e3c       ??_C@_03DLFL@cos?$AA@      10070e3c     libcmt:fpexcept.obj
 0002:00007e40       ??_C@_03JAMN@sin?$AA@      10070e40     libcmt:fpexcept.obj
 0002:00007e44       ??_C@_04LMBE@sqrt?$AA@     10070e44     libcmt:fpexcept.obj
 0002:00007e4c       ??_C@_05BFPO@atan2?$AA@    10070e4c     libcmt:fpexcept.obj
 0002:00007e54       ??_C@_04EAGN@atan?$AA@     10070e54     libcmt:fpexcept.obj
 0002:00007e5c       ??_C@_04OAMO@acos?$AA@     10070e5c     libcmt:fpexcept.obj
 0002:00007e64       ??_C@_04ELFI@asin?$AA@     10070e64     libcmt:fpexcept.obj
 0002:00007e6c       ??_C@_04LFAD@tanh?$AA@     10070e6c     libcmt:fpexcept.obj
 0002:00007e74       ??_C@_04PFKD@cosh?$AA@     10070e74     libcmt:fpexcept.obj
 0002:00007e7c       ??_C@_04NPAI@sinh?$AA@     10070e7c     libcmt:fpexcept.obj
 0002:00007e84       ??_C@_05IJHH@log10?$AA@    10070e84     libcmt:fpexcept.obj
 0002:00007e8c       ??_C@_03BGKD@log?$AA@      10070e8c     libcmt:fpexcept.obj
 0002:00007e90       ??_C@_03EGFG@pow?$AA@      10070e90     libcmt:fpexcept.obj
 0002:00007e94       ??_C@_03CDGJ@exp?$AA@      10070e94     libcmt:fpexcept.obj
 0002:00007f48       ??_C@_01A@?$AA?$AA@        10070f48     libcmt:a_map.obj
 0002:00007f4c       ??_C@_13A@?$AA?$AA?$AA?$AA@ 10070f4c     libcmt:a_map.obj
 0002:00007f68       ___lookuptable             10070f68     libcmt:output.obj
 0002:00007fc4       ??_C@_1O@POHA@?$AA?$CI?$AAn?$AAu?$AAl?$AAl?$AA?$CJ?$AA?$AA@ 10070fc4     libcmt:output.obj
 0002:00007fd4       ??_C@_06ONKE@?$CInull?$CJ?$AA@ 10070fd4     libcmt:output.obj
 0002:00007ffc       ___dnames                  10070ffc     libcmt:timeset.obj
 0002:00008014       ___mnames                  10071014     libcmt:timeset.obj
 0002:0000803c       ??_C@_02JHIA@TZ?$AA@       1007103c     libcmt:tzset.obj
 0002:00008040       ??_C@_0BD@NJFP@GetLastActivePopup?$AA@ 10071040     libcmt:crtmbox.obj
 0002:00008054       ??_C@_0BA@GILI@GetActiveWindow?$AA@ 10071054     libcmt:crtmbox.obj
 0002:00008064       ??_C@_0M@PKCK@MessageBoxA?$AA@ 10071064     libcmt:crtmbox.obj
 0002:00008070       ??_C@_0L@HKL@user32?4dll?$AA@ 10071070     libcmt:crtmbox.obj
 0002:00008098       ??_C@_06PAPI@1?$CDQNAN?$AA@ 10071098     libcmt:x10fout.obj
 0002:000080a0       ??_C@_05BGNL@1?$CDINF?$AA@ 100710a0     libcmt:x10fout.obj
 0002:000080a8       ??_C@_05EDPF@1?$CDIND?$AA@ 100710a8     libcmt:x10fout.obj
 0002:000080b0       ??_C@_06LKFM@1?$CDSNAN?$AA@ 100710b0     libcmt:x10fout.obj
 0002:000080b8       _IID_IPersistStreamInit    100710b8     uuid:ocidl_i_guid16.obj
 0002:000080c8       _IID_IPersistStream        100710c8     uuid:objidl_i_guid13.obj
 0002:000080d8       _IID_IClassFactory         100710d8     uuid:unknwn_i_guid1.obj
 0002:000080e8       _IID_IPersistFile          100710e8     uuid:objidl_i_guid21.obj
 0002:000080f8       _IID_IDropTarget           100710f8     uuid:oleidl_i_guid20.obj
 0002:00008108       _IID_IViewObject2          10071108     uuid:oleidl_i_guid18.obj
 0002:00008118       _IID_IOleLink              10071118     uuid:oleidl_i_guid9.obj
 0002:00008128       _IID_IStream               10071128     uuid:objidl_i_guid18.obj
 0002:00008138       ??_R1A@?0A@A@CObject@@8    10071138     nafxcw:except.obj
 0002:00008150       ??_R1A@?0A@A@CException@@8 10071150     nafxcw:except.obj
 0002:00008168       ??_R1A@?0A@A@CSimpleException@@8 10071168     nafxcw:except.obj
 0002:00008180       ??_R1A@?0A@A@CMemoryException@@8 10071180     nafxcw:except.obj
 0002:00008198       ??_R2CMemoryException@@8   10071198     nafxcw:except.obj
 0002:000081b0       ??_R3CMemoryException@@8   100711b0     nafxcw:except.obj
 0002:000081c0       ??_R4CMemoryException@@6B@ 100711c0     nafxcw:except.obj
 0002:000081d8       ??_R1A@?0A@A@CNotSupportedException@@8 100711d8     nafxcw:except.obj
 0002:000081f0       ??_R2CNotSupportedException@@8 100711f0     nafxcw:except.obj
 0002:00008208       ??_R3CNotSupportedException@@8 10071208     nafxcw:except.obj
 0002:00008218       ??_R4CNotSupportedException@@6B@ 10071218     nafxcw:except.obj
 0002:00008230       ??_R1A@?0A@A@CFile@@8      10071230     nafxcw:filecore.obj
 0002:00008248       ??_R2CFile@@8              10071248     nafxcw:filecore.obj
 0002:00008258       ??_R3CFile@@8              10071258     nafxcw:filecore.obj
 0002:00008268       ??_R4CFile@@6B@            10071268     nafxcw:filecore.obj
 0002:00008280       ??_R1A@?0A@A@CFileException@@8 10071280     nafxcw:filecore.obj
 0002:00008298       ??_R2CFileException@@8     10071298     nafxcw:filecore.obj
 0002:000082a8       ??_R3CFileException@@8     100712a8     nafxcw:filecore.obj
 0002:000082b8       ??_R4CFileException@@6B@   100712b8     nafxcw:filecore.obj
 0002:000082d0       ??_R1A@?0A@A@CMemFile@@8   100712d0     nafxcw:filemem.obj
 0002:000082e8       ??_R2CMemFile@@8           100712e8     nafxcw:filemem.obj
 0002:000082f8       ??_R3CMemFile@@8           100712f8     nafxcw:filemem.obj
 0002:00008308       ??_R4CMemFile@@6B@         10071308     nafxcw:filemem.obj
 0002:00008320       ??_R1A@?0A@A@CDC@@8        10071320     nafxcw:wingdi.obj
 0002:00008338       ??_R2CDC@@8                10071338     nafxcw:wingdi.obj
 0002:00008348       ??_R3CDC@@8                10071348     nafxcw:wingdi.obj
 0002:00008358       ??_R4CDC@@6B@              10071358     nafxcw:wingdi.obj
 0002:00008370       ??_R1A@?0A@A@CClientDC@@8  10071370     nafxcw:wingdi.obj
 0002:00008388       ??_R2CClientDC@@8          10071388     nafxcw:wingdi.obj
 0002:00008398       ??_R3CClientDC@@8          10071398     nafxcw:wingdi.obj
 0002:000083a8       ??_R4CClientDC@@6B@        100713a8     nafxcw:wingdi.obj
 0002:000083c0       ??_R1A@?0A@A@CWindowDC@@8  100713c0     nafxcw:wingdi.obj
 0002:000083d8       ??_R2CWindowDC@@8          100713d8     nafxcw:wingdi.obj
 0002:000083e8       ??_R3CWindowDC@@8          100713e8     nafxcw:wingdi.obj
 0002:000083f8       ??_R4CWindowDC@@6B@        100713f8     nafxcw:wingdi.obj
 0002:00008410       ??_R1A@?0A@A@CPaintDC@@8   10071410     nafxcw:wingdi.obj
 0002:00008428       ??_R2CPaintDC@@8           10071428     nafxcw:wingdi.obj
 0002:00008438       ??_R3CPaintDC@@8           10071438     nafxcw:wingdi.obj
 0002:00008448       ??_R4CPaintDC@@6B@         10071448     nafxcw:wingdi.obj
 0002:00008460       ??_R1A@?0A@A@CGdiObject@@8 10071460     nafxcw:wingdi.obj
 0002:00008478       ??_R1A@?0A@A@CPen@@8       10071478     nafxcw:wingdi.obj
 0002:00008490       ??_R2CPen@@8               10071490     nafxcw:wingdi.obj
 0002:000084a0       ??_R3CPen@@8               100714a0     nafxcw:wingdi.obj
 0002:000084b0       ??_R4CPen@@6B@             100714b0     nafxcw:wingdi.obj
 0002:000084c8       ??_R1A@?0A@A@CBrush@@8     100714c8     nafxcw:wingdi.obj
 0002:000084e0       ??_R2CBrush@@8             100714e0     nafxcw:wingdi.obj
 0002:000084f0       ??_R3CBrush@@8             100714f0     nafxcw:wingdi.obj
 0002:00008500       ??_R4CBrush@@6B@           10071500     nafxcw:wingdi.obj
 0002:00008518       ??_R2CGdiObject@@8         10071518     nafxcw:wingdi.obj
 0002:00008528       ??_R3CGdiObject@@8         10071528     nafxcw:wingdi.obj
 0002:00008538       ??_R4CGdiObject@@6B@       10071538     nafxcw:wingdi.obj
 0002:00008550       ??_R1A@?0A@A@CTempDC@@8    10071550     nafxcw:wingdi.obj
 0002:00008568       ??_R2CTempDC@@8            10071568     nafxcw:wingdi.obj
 0002:00008578       ??_R3CTempDC@@8            10071578     nafxcw:wingdi.obj
 0002:00008588       ??_R4CTempDC@@6B@          10071588     nafxcw:wingdi.obj
 0002:000085a0       ??_R1A@?0A@A@CTempGdiObject@@8 100715a0     nafxcw:wingdi.obj
 0002:000085b8       ??_R2CTempGdiObject@@8     100715b8     nafxcw:wingdi.obj
 0002:000085c8       ??_R3CTempGdiObject@@8     100715c8     nafxcw:wingdi.obj
 0002:000085d8       ??_R4CTempGdiObject@@6B@   100715d8     nafxcw:wingdi.obj
 0002:000085f0       ??_R1A@?0A@A@CResourceException@@8 100715f0     nafxcw:wingdi.obj
 0002:00008608       ??_R2CResourceException@@8 10071608     nafxcw:wingdi.obj
 0002:00008620       ??_R3CResourceException@@8 10071620     nafxcw:wingdi.obj
 0002:00008630       ??_R4CResourceException@@6B@ 10071630     nafxcw:wingdi.obj
 0002:00008648       ??_R1A@?0A@A@CUserException@@8 10071648     nafxcw:wingdi.obj
 0002:00008660       ??_R2CUserException@@8     10071660     nafxcw:wingdi.obj
 0002:00008678       ??_R3CUserException@@8     10071678     nafxcw:wingdi.obj
 0002:00008688       ??_R4CUserException@@6B@   10071688     nafxcw:wingdi.obj
 0002:000086a0       ??_R1A@?0A@A@CCmdTarget@@8 100716a0     nafxcw:dlgcore.obj
 0002:000086b8       ??_R1A@?0A@A@CWnd@@8       100716b8     nafxcw:dlgcore.obj
 0002:000086d0       ??_R1A@?0A@A@CDialog@@8    100716d0     nafxcw:dlgcore.obj
 0002:000086e8       ??_R2CDialog@@8            100716e8     nafxcw:dlgcore.obj
 0002:00008700       ??_R3CDialog@@8            10071700     nafxcw:dlgcore.obj
 0002:00008710       ??_R4CDialog@@6B@          10071710     nafxcw:dlgcore.obj
 0002:00008728       ??_R2CWnd@@8               10071728     nafxcw:wincore.obj
 0002:00008738       ??_R3CWnd@@8               10071738     nafxcw:wincore.obj
 0002:00008748       ??_R4CWnd@@6B@             10071748     nafxcw:wincore.obj
 0002:00008760       ??_R1A@?0A@A@CCmdUI@@8     10071760     nafxcw:wincore.obj
 0002:00008778       ??_R1A@?0A@A@CTestCmdUI@@8 10071778     nafxcw:wincore.obj
 0002:00008790       ??_R2CTestCmdUI@@8         10071790     nafxcw:wincore.obj
 0002:000087a0       ??_R3CTestCmdUI@@8         100717a0     nafxcw:wincore.obj
 0002:000087b0       ??_R4CTestCmdUI@@6B@       100717b0     nafxcw:wincore.obj
 0002:000087c8       ??_R1A@?0A@A@CTempWnd@@8   100717c8     nafxcw:wincore.obj
 0002:000087e0       ??_R2CTempWnd@@8           100717e0     nafxcw:wincore.obj
 0002:000087f8       ??_R3CTempWnd@@8           100717f8     nafxcw:wincore.obj
 0002:00008808       ??_R4CTempWnd@@6B@         10071808     nafxcw:wincore.obj
 0002:00008820       ??_R1A@?0A@A@CNoTrackObject@@8 10071820     nafxcw:wincore.obj
 0002:00008838       ??_R1A@?0A@A@_AFX_CTL3D_STATE@@8 10071838     nafxcw:wincore.obj
 0002:00008850       ??_R2_AFX_CTL3D_STATE@@8   10071850     nafxcw:wincore.obj
 0002:00008860       ??_R3_AFX_CTL3D_STATE@@8   10071860     nafxcw:wincore.obj
 0002:00008870       ??_R4_AFX_CTL3D_STATE@@6B@ 10071870     nafxcw:wincore.obj
 0002:00008888       ??_R1A@?0A@A@CPtrArray@@8  10071888     nafxcw:array_p.obj
 0002:000088a0       ??_R2CPtrArray@@8          100718a0     nafxcw:array_p.obj
 0002:000088b0       ??_R3CPtrArray@@8          100718b0     nafxcw:array_p.obj
 0002:000088c0       ??_R4CPtrArray@@6B@        100718c0     nafxcw:array_p.obj
 0002:000088d8       ??_R1A@?0A@A@CStatic@@8    100718d8     nafxcw:winctrl1.obj
 0002:000088f0       ??_R2CStatic@@8            100718f0     nafxcw:winctrl1.obj
 0002:00008908       ??_R3CStatic@@8            10071908     nafxcw:winctrl1.obj
 0002:00008918       ??_R4CStatic@@6B@          10071918     nafxcw:winctrl1.obj
 0002:00008930       ??_R1A@?0A@A@CButton@@8    10071930     nafxcw:winctrl1.obj
 0002:00008948       ??_R2CButton@@8            10071948     nafxcw:winctrl1.obj
 0002:00008960       ??_R3CButton@@8            10071960     nafxcw:winctrl1.obj
 0002:00008970       ??_R4CButton@@6B@          10071970     nafxcw:winctrl1.obj
 0002:00008988       ??_R1A@?0A@A@CComboBox@@8  10071988     nafxcw:winctrl1.obj
 0002:000089a0       ??_R2CComboBox@@8          100719a0     nafxcw:winctrl1.obj
 0002:000089b8       ??_R3CComboBox@@8          100719b8     nafxcw:winctrl1.obj
 0002:000089c8       ??_R4CComboBox@@6B@        100719c8     nafxcw:winctrl1.obj
 0002:000089e0       ??_R1A@?0A@A@CEdit@@8      100719e0     nafxcw:winctrl1.obj
 0002:000089f8       ??_R2CEdit@@8              100719f8     nafxcw:winctrl1.obj
 0002:00008a10       ??_R3CEdit@@8              10071a10     nafxcw:winctrl1.obj
 0002:00008a20       ??_R4CEdit@@6B@            10071a20     nafxcw:winctrl1.obj
 0002:00008a38       ??_R1A@?0A@A@_AFX_CHECKLIST_STATE@@8 10071a38     nafxcw:winctrl3.obj
 0002:00008a50       ??_R2_AFX_CHECKLIST_STATE@@8 10071a50     nafxcw:winctrl3.obj
 0002:00008a60       ??_R3_AFX_CHECKLIST_STATE@@8 10071a60     nafxcw:winctrl3.obj
 0002:00008a70       ??_R4_AFX_CHECKLIST_STATE@@6B@ 10071a70     nafxcw:winctrl3.obj
 0002:00008a88       ??_R1A@?0A@A@CBitmap@@8    10071a88     nafxcw:winctrl3.obj
 0002:00008aa0       ??_R2CBitmap@@8            10071aa0     nafxcw:winctrl3.obj
 0002:00008ab0       ??_R3CBitmap@@8            10071ab0     nafxcw:winctrl3.obj
 0002:00008ac0       ??_R4CBitmap@@6B@          10071ac0     nafxcw:winctrl3.obj
 0002:00008ad8       ??_R1A@?0A@A@CRgn@@8       10071ad8     nafxcw:wingdix.obj
 0002:00008af0       ??_R2CRgn@@8               10071af0     nafxcw:wingdix.obj
 0002:00008b00       ??_R3CRgn@@8               10071b00     nafxcw:wingdix.obj
 0002:00008b10       ??_R4CRgn@@6B@             10071b10     nafxcw:wingdix.obj
 0002:00008b28       ??_R1A@?0A@A@CCommonDialog@@8 10071b28     nafxcw:dlgprnt.obj
 0002:00008b40       ??_R1A@?0A@A@CFileDialog@@8 10071b40     nafxcw:dlgfile.obj
 0002:00008b58       ??_R2CFileDialog@@8        10071b58     nafxcw:dlgfile.obj
 0002:00008b78       ??_R3CFileDialog@@8        10071b78     nafxcw:dlgfile.obj
 0002:00008b88       ??_R4CFileDialog@@6B@      10071b88     nafxcw:dlgfile.obj
 0002:00008ba0       ??_R1A@?0A@A@_AFX_THREAD_STATE@@8 10071ba0     nafxcw:afxstate.obj
 0002:00008bb8       ??_R2_AFX_THREAD_STATE@@8  10071bb8     nafxcw:afxstate.obj
 0002:00008bc8       ??_R3_AFX_THREAD_STATE@@8  10071bc8     nafxcw:afxstate.obj
 0002:00008bd8       ??_R4_AFX_THREAD_STATE@@6B@ 10071bd8     nafxcw:afxstate.obj
 0002:00008bf0       ??_R1A@?0A@A@AFX_MODULE_STATE@@8 10071bf0     nafxcw:afxstate.obj
 0002:00008c08       ??_R2AFX_MODULE_STATE@@8   10071c08     nafxcw:afxstate.obj
 0002:00008c18       ??_R3AFX_MODULE_STATE@@8   10071c18     nafxcw:afxstate.obj
 0002:00008c28       ??_R4AFX_MODULE_STATE@@6B@ 10071c28     nafxcw:afxstate.obj
 0002:00008c40       ??_R1A@?0A@A@AFX_MODULE_THREAD_STATE@@8 10071c40     nafxcw:afxstate.obj
 0002:00008c58       ??_R2AFX_MODULE_THREAD_STATE@@8 10071c58     nafxcw:afxstate.obj
 0002:00008c68       ??_R3AFX_MODULE_THREAD_STATE@@8 10071c68     nafxcw:afxstate.obj
 0002:00008c78       ??_R4AFX_MODULE_THREAD_STATE@@6B@ 10071c78     nafxcw:afxstate.obj
 0002:00008c90       ??_R1A@?0A@A@_AFX_BASE_MODULE_STATE@@8 10071c90     nafxcw:afxstate.obj
 0002:00008ca8       ??_R2_AFX_BASE_MODULE_STATE@@8 10071ca8     nafxcw:afxstate.obj
 0002:00008cb8       ??_R3_AFX_BASE_MODULE_STATE@@8 10071cb8     nafxcw:afxstate.obj
 0002:00008cc8       ??_R4_AFX_BASE_MODULE_STATE@@6B@ 10071cc8     nafxcw:afxstate.obj
 0002:00008ce0       ??_R1A@?0A@A@CStringArray@@8 10071ce0     nafxcw:array_s.obj
 0002:00008cf8       ??_R2CStringArray@@8       10071cf8     nafxcw:array_s.obj
 0002:00008d08       ??_R3CStringArray@@8       10071d08     nafxcw:array_s.obj
 0002:00008d18       ??_R4CStringArray@@6B@     10071d18     nafxcw:array_s.obj
 0002:00008d30       ??_R1A@?0A@A@CThreadData@@8 10071d30     nafxcw:afxtls.obj
 0002:00008d48       ??_R2CThreadData@@8        10071d48     nafxcw:afxtls.obj
 0002:00008d58       ??_R3CThreadData@@8        10071d58     nafxcw:afxtls.obj
 0002:00008d68       ??_R4CThreadData@@6B@      10071d68     nafxcw:afxtls.obj
 0002:00008d80       ??_R1A@?0A@A@_AFX_WIN_STATE@@8 10071d80     nafxcw:appcore.obj
 0002:00008d98       ??_R2_AFX_WIN_STATE@@8     10071d98     nafxcw:appcore.obj
 0002:00008da8       ??_R3_AFX_WIN_STATE@@8     10071da8     nafxcw:appcore.obj
 0002:00008db8       ??_R4_AFX_WIN_STATE@@6B@   10071db8     nafxcw:appcore.obj
 0002:00008dd0       ??_R1A@?0A@A@CWinThread@@8 10071dd0     nafxcw:appcore.obj
 0002:00008de8       ??_R1A@?0A@A@CWinApp@@8    10071de8     nafxcw:appcore.obj
 0002:00008e00       ??_R2CWinApp@@8            10071e00     nafxcw:appcore.obj
 0002:00008e18       ??_R3CWinApp@@8            10071e18     nafxcw:appcore.obj
 0002:00008e28       ??_R4CWinApp@@6B@          10071e28     nafxcw:appcore.obj
 0002:00008e40       ??_R1A@?0A@A@CProgressCtrl@@8 10071e40     nafxcw:winctrl2.obj
 0002:00008e58       ??_R2CProgressCtrl@@8      10071e58     nafxcw:winctrl2.obj
 0002:00008e70       ??_R3CProgressCtrl@@8      10071e70     nafxcw:winctrl2.obj
 0002:00008e80       ??_R4CProgressCtrl@@6B@    10071e80     nafxcw:winctrl2.obj
 0002:00008e98       ??_R1A@?0A@A@CImageList@@8 10071e98     nafxcw:winctrl2.obj
 0002:00008eb0       ??_R2CImageList@@8         10071eb0     nafxcw:winctrl2.obj
 0002:00008ec0       ??_R3CImageList@@8         10071ec0     nafxcw:winctrl2.obj
 0002:00008ed0       ??_R4CImageList@@6B@       10071ed0     nafxcw:winctrl2.obj
 0002:00008ee8       ??_R1A@?0A@A@CTempImageList@@8 10071ee8     nafxcw:winctrl2.obj
 0002:00008f00       ??_R2CTempImageList@@8     10071f00     nafxcw:winctrl2.obj
 0002:00008f10       ??_R3CTempImageList@@8     10071f10     nafxcw:winctrl2.obj
 0002:00008f20       ??_R4CTempImageList@@6B@   10071f20     nafxcw:winctrl2.obj
 0002:00008f38       ??_R1A@?0A@A@CArchiveException@@8 10071f38     nafxcw:arcex.obj
 0002:00008f50       ??_R2CArchiveException@@8  10071f50     nafxcw:arcex.obj
 0002:00008f60       ??_R3CArchiveException@@8  10071f60     nafxcw:arcex.obj
 0002:00008f70       ??_R4CArchiveException@@6B@ 10071f70     nafxcw:arcex.obj
 0002:00008f84       ??_R2CCmdUI@@8             10071f84     nafxcw:cmdtarg.obj
 0002:00008f90       ??_R3CCmdUI@@8             10071f90     nafxcw:cmdtarg.obj
 0002:00008fa0       ??_R4CCmdUI@@6B@           10071fa0     nafxcw:cmdtarg.obj
 0002:00008fb8       ??_R2CWinThread@@8         10071fb8     nafxcw:thrdcore.obj
 0002:00008fc8       ??_R3CWinThread@@8         10071fc8     nafxcw:thrdcore.obj
 0002:00008fd8       ??_R4CWinThread@@6B@       10071fd8     nafxcw:thrdcore.obj
 0002:00008ff0       ??_R1A@?0A@A@_AFX_CTL3D_THREAD@@8 10071ff0     nafxcw:thrdcore.obj
 0002:00009008       ??_R2_AFX_CTL3D_THREAD@@8  10072008     nafxcw:thrdcore.obj
 0002:00009018       ??_R3_AFX_CTL3D_THREAD@@8  10072018     nafxcw:thrdcore.obj
 0002:00009028       ??_R4_AFX_CTL3D_THREAD@@6B@ 10072028     nafxcw:thrdcore.obj
 0002:00009040       ??_R1A@?0A@A@CDWordArray@@8 10072040     nafxcw:array_d.obj
 0002:00009058       ??_R2CDWordArray@@8        10072058     nafxcw:array_d.obj
 0002:00009068       ??_R3CDWordArray@@8        10072068     nafxcw:array_d.obj
 0002:00009078       ??_R4CDWordArray@@6B@      10072078     nafxcw:array_d.obj
 0002:00009090       ??_R1A@?0A@A@CWordArray@@8 10072090     nafxcw:array_w.obj
 0002:000090a8       ??_R2CWordArray@@8         100720a8     nafxcw:array_w.obj
 0002:000090b8       ??_R3CWordArray@@8         100720b8     nafxcw:array_w.obj
 0002:000090c8       ??_R4CWordArray@@6B@       100720c8     nafxcw:array_w.obj
 0002:000090e0       ??_R1A@?0A@A@CMenu@@8      100720e0     nafxcw:winmenu.obj
 0002:000090f8       ??_R2CMenu@@8              100720f8     nafxcw:winmenu.obj
 0002:00009108       ??_R3CMenu@@8              10072108     nafxcw:winmenu.obj
 0002:00009118       ??_R4CMenu@@6B@            10072118     nafxcw:winmenu.obj
 0002:00009130       ??_R1A@?0A@A@CTempMenu@@8  10072130     nafxcw:winmenu.obj
 0002:00009148       ??_R2CTempMenu@@8          10072148     nafxcw:winmenu.obj
 0002:00009158       ??_R3CTempMenu@@8          10072158     nafxcw:winmenu.obj
 0002:00009168       ??_R4CTempMenu@@6B@        10072168     nafxcw:winmenu.obj
 0002:00009180       ??_R1A@?0A@A@CMapPtrToPtr@@8 10072180     nafxcw:map_pp.obj
 0002:00009198       ??_R2CMapPtrToPtr@@8       10072198     nafxcw:map_pp.obj
 0002:000091a8       ??_R3CMapPtrToPtr@@8       100721a8     nafxcw:map_pp.obj
 0002:000091b8       ??_R4CMapPtrToPtr@@6B@     100721b8     nafxcw:map_pp.obj
 0002:000091d0       ??_R1A@?0A@A@CToolTipCtrl@@8 100721d0     nafxcw:tooltip.obj
 0002:000091e8       ??_R2CToolTipCtrl@@8       100721e8     nafxcw:tooltip.obj
 0002:00009200       ??_R3CToolTipCtrl@@8       10072200     nafxcw:tooltip.obj
 0002:00009210       ??_R4CToolTipCtrl@@6B@     10072210     nafxcw:tooltip.obj
 0002:00009228       ??_R1A@?0A@A@_AFX_COLOR_STATE@@8 10072228     nafxcw:dlgclr.obj
 0002:00009240       ??_R2_AFX_COLOR_STATE@@8   10072240     nafxcw:dlgclr.obj
 0002:00009250       ??_R3_AFX_COLOR_STATE@@8   10072250     nafxcw:dlgclr.obj
 0002:00009260       ??_R4_AFX_COLOR_STATE@@6B@ 10072260     nafxcw:dlgclr.obj
 0002:00009278       ??_R1A@?0A@A@CColorDialog@@8 10072278     nafxcw:dlgclr.obj
 0002:00009290       ??_R2CColorDialog@@8       10072290     nafxcw:dlgclr.obj
 0002:000092b0       ??_R3CColorDialog@@8       100722b0     nafxcw:dlgclr.obj
 0002:000092c0       ??_R4CColorDialog@@6B@     100722c0     nafxcw:dlgclr.obj
 0002:000092d8       ??_R1A@?0A@A@CHandleMap@@8 100722d8     nafxcw:winhand.obj
 0002:000092f0       ??_R2CHandleMap@@8         100722f0     nafxcw:winhand.obj
 0002:000092f8       ??_R3CHandleMap@@8         100722f8     nafxcw:winhand.obj
 0002:00009308       ??_R4CHandleMap@@6B@       10072308     nafxcw:winhand.obj
 0002:00009320       ??_R1A@?0A@A@CMapStringToPtr@@8 10072320     nafxcw:map_sp.obj
 0002:00009338       ??_R2CMapStringToPtr@@8    10072338     nafxcw:map_sp.obj
 0002:00009348       ??_R3CMapStringToPtr@@8    10072348     nafxcw:map_sp.obj
 0002:00009358       ??_R4CMapStringToPtr@@6B@  10072358     nafxcw:map_sp.obj
 0002:00009370       ??_R1A@?0A@A@type_info@@8  10072370     libcmt:typinfo.obj
 0002:00009388       ??_R2type_info@@8          10072388     libcmt:typinfo.obj
 0002:00009390       ??_R3type_info@@8          10072390     libcmt:typinfo.obj
 0002:000093a0       ??_R4type_info@@6B@        100723a0     libcmt:typinfo.obj
 0002:0000cc48       __CT??_R0PAX@84            10075c48     nafxcw:except.obj
 0002:0000cc68       __CT??_R0PAVCObject@@@84   10075c68     nafxcw:except.obj
 0002:0000cc88       __CT??_R0PAVCException@@@84 10075c88     nafxcw:except.obj
 0002:0000cca8       __CT??_R0PAVCSimpleException@@@84 10075ca8     nafxcw:except.obj
 0002:0000ccc8       __CT??_R0PAVCMemoryException@@@84 10075cc8     nafxcw:except.obj
 0002:0000cce8       __CTA5PAVCMemoryException@@ 10075ce8     nafxcw:except.obj
 0002:0000cd00       __TI5PAVCMemoryException@@ 10075d00     nafxcw:except.obj
 0002:0000cd10       __CT??_R0PAVCNotSupportedException@@@84 10075d10     nafxcw:except.obj
 0002:0000cd30       __CTA5PAVCNotSupportedException@@ 10075d30     nafxcw:except.obj
 0002:0000cd48       __TI5PAVCNotSupportedException@@ 10075d48     nafxcw:except.obj
 0002:0000cfe0       __CT??_R0PAVCResourceException@@@84 10075fe0     nafxcw:wingdi.obj
 0002:0000d000       __CTA5PAVCResourceException@@ 10076000     nafxcw:wingdi.obj
 0002:0000d018       __TI5PAVCResourceException@@ 10076018     nafxcw:wingdi.obj
 0002:0000d878       __CT??_R0PAVCArchiveException@@@84 10076878     nafxcw:arcex.obj
 0002:0000d898       __CTA4PAVCArchiveException@@ 10076898     nafxcw:arcex.obj
 0002:0000d8b0       __TI4PAVCArchiveException@@ 100768b0     nafxcw:arcex.obj
 0002:0000db10       __CT??_R0PAVCFileException@@@84 10076b10     nafxcw:filex.obj
 0002:0000db30       __CTA4PAVCFileException@@  10076b30     nafxcw:filex.obj
 0002:0000db48       __TI4PAVCFileException@@   10076b48     nafxcw:filex.obj
 0002:0000de18       __IMPORT_DESCRIPTOR_KERNEL32 10076e18     kernel32:KERNEL32.dll
 0002:0000de2c       __IMPORT_DESCRIPTOR_USER32 10076e2c     user32:USER32.dll
 0002:0000de40       __IMPORT_DESCRIPTOR_GDI32  10076e40     gdi32:GDI32.dll
 0002:0000de54       __IMPORT_DESCRIPTOR_WINMM  10076e54     winmm:WINMM.dll
 0002:0000de68       __IMPORT_DESCRIPTOR_WINSPOOL 10076e68     winspool:WINSPOOL.DRV
 0002:0000de7c       __IMPORT_DESCRIPTOR_ADVAPI32 10076e7c     advapi32:ADVAPI32.dll
 0002:0000de90       __IMPORT_DESCRIPTOR_SHELL32 10076e90     shell32:SHELL32.dll
 0002:0000dea4       __IMPORT_DESCRIPTOR_ole32  10076ea4     ole32:ole32.dll
 0002:0000deb8       __IMPORT_DESCRIPTOR_OLEAUT32 10076eb8     oleaut32:OLEAUT32.dll
 0002:0000decc       __IMPORT_DESCRIPTOR_COMCTL32 10076ecc     comctl32:COMCTL32.dll
 0002:0000dee0       __IMPORT_DESCRIPTOR_WS2_32 10076ee0     Ws2_32:WS2_32.dll
 0002:0000def4       __IMPORT_DESCRIPTOR_comdlg32 10076ef4     comdlg32:comdlg32.dll
 0002:0000df08       __NULL_IMPORT_DESCRIPTOR   10076f08     kernel32:KERNEL32.dll
 0003:00000000       ___xc_a                    1007a000     libcmt:crt0init.obj
 0003:000000a4       ___xc_z                    1007a0a4     libcmt:crt0init.obj
 0003:000000a8       ___xi_a                    1007a0a8     libcmt:crt0init.obj
 0003:000000bc       ___xi_z                    1007a0bc     libcmt:crt0init.obj
 0003:000000c0       ___xp_a                    1007a0c0     libcmt:crt0init.obj
 0003:000000cc       ___xp_z                    1007a0cc     libcmt:crt0init.obj
 0003:000000d0       ___xt_a                    1007a0d0     libcmt:crt0init.obj
 0003:000000d8       ___xt_z                    1007a0d8     libcmt:crt0init.obj
 0003:00000104       ?s_szFTHZNum@@3PADA        1007a104     krnln_static:Libfn.obj
 0003:00000108       ?s_szFTUnit@@3PADA         1007a108     krnln_static:Libfn.obj
 0003:0000010c       ?s_szJTHZNum@@3PADA        1007a10c     krnln_static:Libfn.obj
 0003:00000110       ?s_szJTUnit@@3PADA         1007a110     krnln_static:Libfn.obj
 0003:00000118       ?s_szYuan@@3PADA           1007a118     krnln_static:Libfn.obj
 0003:00000128       ??_C@_02NHBL@?T?$KK?$AA@   1007a128     krnln_static:Libfn.obj
 0003:0000012c       ??_C@_02OFKJ@?$LF?c?$AA@   1007a12c     krnln_static:Libfn.obj
 0003:00000130       ??_C@_0BJ@MDDD@?J?$KO?$LA?Y?G?$KH?M?r?J?$KO?$LA?Y?G?$KH?R?Z?J?$KO?$LA?Y?G?$KH?M?r?$AA@ 1007a130     krnln_static:Libfn.obj
 0003:0000014c       ??_C@_0BF@ICHP@?A?c?R?$LL?$LG?$PO?H?$PN?K?D?N?e?A?y?F?$NP?$LA?K?$LO?E?$AA@ 1007a14c     krnln_static:Libfn.obj
 0003:00000164       ??_C@_0BJ@MIBB@?J?$LA?$LA?$NL?G?$KK?M?r?J?$LA?$LA?$NL?G?$KK?R?Z?J?$LA?$LA?$NL?G?$KK?M?r?$AA@ 1007a164     krnln_static:Libfn.obj
 0003:00000180       ??_C@_0BF@NNMA@?A?c?R?$LM?$LH?$KB?H?$PO?K?A?N?i?B?$LN?F?b?$LA?F?$LO?A?$AA@ 1007a180     krnln_static:Libfn.obj
 0003:00000198       ??_C@_01KMAE@?0?$AA@       1007a198     krnln_static:Libfn.obj
 0003:0000019c       ??_C@_02MHMJ@?$CFu?$AA@    1007a19c     krnln_static:Libfn.obj
 0003:000001a0       ??_C@_0N@KPIP@?$CFd?D?j?$CFd?T?B?$CFd?H?U?$AA@ 1007a1a0     krnln_static:Libfn.obj
 0003:000001b0       ??_C@_0N@CNNM@?$CFd?J?$LB?$CFd?$LH?V?$CFd?C?k?$AA@ 1007a1b0     krnln_static:Libfn.obj
 0003:000001c0       ??_C@_01PCFE@?2?$AA@       1007a1c0     krnln_static:Libfn.obj
 0003:000001c8       ??_R0PAVCException@@@8     1007a1c8     krnln_static:Libfn.obj
 0003:000001e8       ??_R0PAVCNotSupportedException@@@8 1007a1e8     krnln_static:Libfn.obj
 0003:00000210       ??_R0PAVCFileException@@@8 1007a210     krnln_static:Libfn.obj
 0003:00000230       ??_C@_01FJFF@W?$AA@        1007a230     krnln_static:Libfn.obj
 0003:00000234       ??_C@_0L@JKLA@?$CFs?5?I?O?$LF?D?5?$CFs?$AA@ 1007a234     krnln_static:Libfn.obj
 0003:00000240       ??_C@_03ICPE@prn?$AA@      1007a240     krnln_static:Libfn.obj
 0003:00000244       ??_C@_0DA@LJPP@?$LE?r?S?$KB?J?d?$LD?v?N?D?$LM?$PO?5?$CI?$CK?4prn?$CJ?$HM?$CK?4prn?$HM?K?y?S?P?N@ 1007a244     krnln_static:Libfn.obj
 0003:00000274       ??_C@_01FAJB@?$DL?$AA@     1007a274     krnln_static:Libfn.obj
 0003:00000278       ??_C@_02PIMC@?$AN?6?$AA@   1007a278     krnln_static:Libfn.obj
 0003:0000027c       ??_C@_0P@MNDP@?V?$LI?$LG?$KI?W?V?$LG?N?$LC?$LL?$LE?f?T?Z?$AA@ 1007a27c     krnln_static:Libfn.obj
 0003:00000294       ?g_szErrText@@3PAPBDA      1007a294     krnln_static:krnl2.obj
 0003:000002c0       ?g_EditProperty@@3PAUUNIT_PROPERTY@@A 1007a2c0     krnln_static:krnl2.obj
 0003:00000508       ?g_TabProperty@@3PAUUNIT_PROPERTY@@A 1007a508     krnln_static:krnl2.obj
 0003:00000648       ?g_LabelProperty@@3PAUUNIT_PROPERTY@@A 1007a648     krnln_static:krnl2.obj
 0003:00000890       ?g_PicBoxProperty@@3PAUUNIT_PROPERTY@@A 1007a890     krnln_static:krnl2.obj
 0003:000009c0       ?g_ShapeBoxProperty@@3PAUUNIT_PROPERTY@@A 1007a9c0     krnln_static:krnl2.obj
 0003:00000af0       ?g_GroupBoxProperty@@3PAUUNIT_PROPERTY@@A 1007aaf0     krnln_static:krnl2.obj
 0003:00000bf8       ?g_ButtonProperty@@3PAUUNIT_PROPERTY@@A 1007abf8     krnln_static:krnl2.obj
 0003:00000d10       ?g_HScrollBarProperty@@3PAUUNIT_PROPERTY@@A 1007ad10     krnln_static:krnl2.obj
 0003:00000e28       ?g_VScrollBarProperty@@3PAUUNIT_PROPERTY@@A 1007ae28     krnln_static:krnl2.obj
 0003:00000f40       ?g_ProcessBarProperty@@3PAUUNIT_PROPERTY@@A 1007af40     krnln_static:krnl2.obj
 0003:00001058       ?g_SliderBarProperty@@3PAUUNIT_PROPERTY@@A 1007b058     krnln_static:krnl2.obj
 0003:000011e8       ?g_AnimateProperty@@3PAUUNIT_PROPERTY@@A 1007b1e8     krnln_static:krnl2.obj
 0003:000012f0       ?g_DateTimePickerProperty@@3PAUUNIT_PROPERTY@@A 1007b2f0     krnln_static:krnl2.obj
 0003:00001448       ?g_MonthCalCtrlProperty@@3PAUUNIT_PROPERTY@@A 1007b448     krnln_static:krnl2.obj
 0003:00001678       ?g_DrvBoxProperty@@3PAUUNIT_PROPERTY@@A 1007b678     krnln_static:krnl2.obj
 0003:00001780       ?g_DirTreeProperty@@3PAUUNIT_PROPERTY@@A 1007b780     krnln_static:krnl2.obj
 0003:00001870       ?g_FileBoxProperty@@3PAUUNIT_PROPERTY@@A 1007b870     krnln_static:krnl2.obj
 0003:00001a40       ?g_ColorPickerProperty@@3PAUUNIT_PROPERTY@@A 1007ba40     krnln_static:krnl2.obj
 0003:00001b08       ?g_HyperLinkerProperty@@3PAUUNIT_PROPERTY@@A 1007bb08     krnln_static:krnl2.obj
 0003:00001c70       ?g_SpinProperty@@3PAUUNIT_PROPERTY@@A 1007bc70     krnln_static:krnl2.obj
 0003:00001d38       ?g_TimerProperty@@3PAUUNIT_PROPERTY@@A 1007bd38     krnln_static:krnl2.obj
 0003:00001df0       ?g_CommonDlgProperty@@3PAUUNIT_PROPERTY@@A 1007bdf0     krnln_static:krnl2.obj
 0003:00002048       ?g_CheckBoxProperty@@3PAUUNIT_PROPERTY@@A 1007c048     krnln_static:krnl2.obj
 0003:000021f0       ?g_RadioProperty@@3PAUUNIT_PROPERTY@@A 1007c1f0     krnln_static:krnl2.obj
 0003:00002370       ?g_ComboBoxProperty@@3PAUUNIT_PROPERTY@@A 1007c370     krnln_static:krnl2.obj
 0003:00002568       ?g_ListBoxProperty@@3PAUUNIT_PROPERTY@@A 1007c568     krnln_static:krnl2.obj
 0003:00002720       ?g_ChkListBoxProperty@@3PAUUNIT_PROPERTY@@A 1007c720     krnln_static:krnl2.obj
 0003:00002874       ?s_wBrhBmpData@@3PAGA      1007c874     krnln_static:krnl2.obj
 0003:00002b74       ?s_szPenRop2Explain@@3PADA 1007cb74     krnln_static:krnl2.obj
 0003:00002b78       ?s_szBrushStylePick@@3PADA 1007cb78     krnln_static:krnl2.obj
 0003:00002b80       ?g_DrawPanelProperty@@3PAUUNIT_PROPERTY@@A 1007cb80     krnln_static:krnl2.obj
 0003:00002d78       ?g_PrinterProperty@@3PAUUNIT_PROPERTY@@A 1007cd78     krnln_static:krnl2.obj
 0003:00003038       ?g_UDPSockProperty@@3PAUUNIT_PROPERTY@@A 1007d038     krnln_static:krnl2.obj
 0003:000030f0       ?g_ClientSockProperty@@3PAUUNIT_PROPERTY@@A 1007d0f0     krnln_static:krnl2.obj
 0003:00003190       ?g_ServerSockProperty@@3PAUUNIT_PROPERTY@@A 1007d190     krnln_static:krnl2.obj
 0003:00003248       ?g_SerialPortProperty@@3PAUUNIT_PROPERTY@@A 1007d248     krnln_static:krnl2.obj
 0003:000033d8       ?g_DataSourceProperty@@3PAUUNIT_PROPERTY@@A 1007d3d8     krnln_static:krnl2.obj
 0003:000034e0       ?g_ProviderProperty@@3PAUUNIT_PROPERTY@@A 1007d4e0     krnln_static:krnl2.obj
 0003:000035a8       ?g_GridProperty@@3PAUUNIT_PROPERTY@@A 1007d5a8     krnln_static:krnl2.obj
 0003:00003710       ?g_DBProviderProperty@@3PAUUNIT_PROPERTY@@A 1007d710     krnln_static:krnl2.obj
 0003:000037f0       ?g_RgnButtonProperty@@3PAUUNIT_PROPERTY@@A 1007d7f0     krnln_static:krnl2.obj
 0003:00003920       ?g_ODBCDBProperty@@3PAUUNIT_PROPERTY@@A 1007d920     krnln_static:krnl2.obj
 0003:000039c0       ?g_ODBCProviderProperty@@3PAUUNIT_PROPERTY@@A 1007d9c0     krnln_static:krnl2.obj
 0003:00003a88       _krnl_helpfuncs            1007da88     krnln_static:krnl2.obj
 0003:00003ad8       ??_C@_0M@NLCI@Shell32?4dll?$AA@ 1007dad8     krnln_static:krnl2.obj
 0003:00003ae4       ??_C@_07MFDO@Mpr?4dll?$AA@ 1007dae4     krnln_static:krnl2.obj
 0003:00003aec       ??_C@_0N@HMLF@Advapi32?4dll?$AA@ 1007daec     krnln_static:krnl2.obj
 0003:00003afc       ??_C@_0L@PPOC@User32?4dll?$AA@ 1007dafc     krnln_static:krnl2.obj
 0003:00003b08       ??_C@_09IBFP@Gdi32?4dll?$AA@ 1007db08     krnln_static:krnl2.obj
 0003:00003b14       ??_C@_0N@DOLF@Kernel32?4dll?$AA@ 1007db14     krnln_static:krnl2.obj
 0003:00003b24       ??_C@_0BP@MOBP@?K?y?L?a?$LJ?$KJ?$LC?N?J?$PN?$LF?D?J?$PN?$LO?$NN?$MA?$OA?P?M?$LC?$LL?$LH?$PL?$LK?O?R?$KK?G?s?$AA@ 1007db24     krnln_static:krnl2.obj
 0003:00003b44       ??_C@_0EB@IOAG@?$KB?$LA?V?X?$LG?$KI?R?e?J?$PN?W?i?$KB?$LB?C?$PM?A?n?$LF?D?J?$PN?W?i?N?$KM?$LG?$KI?R?e?$LC?N@ 1007db44     krnln_static:krnl2.obj
 0003:00003b88       ??_C@_0DL@HOOC@?$KB?$LA?$LG?$OA?O?n?Q?$KB?T?q?$KB?$LB?C?$PM?A?n?$LF?D?K?w?R?$PN?V?$LF?$LC?N?J?$PN?P?$KB?S?Z@ 1007db88     krnln_static:krnl2.obj
 0003:00003bc4       ??_C@_0CH@OCBD@?$LB?$LL?$LB?H?$LN?O?J?$PN?$LO?$NN?V?$LL?D?$NM?J?$LJ?S?C?$LF?H?S?Z?$LL?r?$LC?$LL?$LF?H?S?Z?C?$PM@ 1007dbc4     krnln_static:krnl2.obj
 0003:00003bec       ??_C@_0DJ@JNJI@?W?S?S?o?$LO?d?$LC?N?J?$PN?N?$LE?$LH?$LF?$LL?X?J?$PN?$LO?$NN?$LL?r?U?$NP?$LH?$LF?$LL?X?A?K?$LH?G@ 1007dbec     krnln_static:krnl2.obj
 0003:00003c28       ??_C@_0BK@HGIK@?$LF?w?S?CDLL?C?$PM?A?n?$LK?s?$LH?$KC?O?V?$LG?Q?U?$LL?$LE?m?N?s?$AA@ 1007dc28     krnln_static:krnl2.obj
 0003:00003c44       ??_C@_0BF@FILF@?J?$PN?$LO?$NN?$LL?r?J?$PN?W?i?$MA?$OA?P?M?$LC?$LL?F?$KF?E?d?$AA@ 1007dc44     krnln_static:krnl2.obj
 0003:00003c5c       ??_C@_0BO@ONFL@?J?$PN?W?i?$LD?I?T?$LB?R?$PN?S?C?O?B?$LB?j?$LB?X?P?k?$LE?s?S?Z?$LF?H?S?Z1?$AA@ 1007dc5c     krnln_static:krnl2.obj
 0003:00003c7c       ??_C@_0DG@NFLC@?R?$PN?S?C?J?$PN?W?i?$LD?I?T?$LB?J?$LB?N?$KM?J?$PN?$LC?$LL?N?$KK1?G?R?$LC?$LL?$LF?H?S?Z?$LI@ 1007dc7c     krnln_static:krnl2.obj
 0003:00003cb4       ??_C@_0BJ@HKHC@?N?$LE?$LF?C?$LF?$LN?K?y?P?h?R?$KK?$LF?D?J?$PN?V?$LF?P?M?J?$PN?$LO?$NN?$AA@ 1007dcb4     krnln_static:krnl2.obj
 0003:00003cd0       ??_C@_0BN@HCJA@?J?$PN?W?i?$LD?I?T?$LB?R?$PN?S?C?O?B?$LB?j?$LD?$KM?$LD?v?$LG?$KI?R?e?$LH?$LG?N?$KH?$AA@ 1007dcd0     krnln_static:krnl2.obj
 0003:00003cf0       ??_C@_04IGNI@EDIT?$AA@     1007dcf0     krnln_static:krnl2.obj
 0003:00003cf8       ??_C@_02MECO@?$CFd?$AA@    1007dcf8     krnln_static:krnl2.obj
 0003:00003cfc       ??_C@_01PLJA@0?$AA@        1007dcfc     krnln_static:krnl2.obj
 0003:00003d00       ??_C@_02OOND@?4?4?$AA@     1007dd00     krnln_static:krnl2.obj
 0003:00003d04       ??_C@_01PJCK@?4?$AA@       1007dd04     krnln_static:krnl2.obj
 0003:00003d08       ??_C@_03DCMC@?$CK?4?$CK?$AA@ 1007dd08     krnln_static:krnl2.obj
 0003:00003d0c       ??_C@_04BLHP@?M?$LI?C?w?$AA@ 1007dd0c     krnln_static:krnl2.obj
 0003:00003d14       ??_C@_01FCOA@?5?$AA@       1007dd14     krnln_static:krnl2.obj
 0003:00003d18       ??_C@_02MIFF@?$CF1?$AA@    1007dd18     krnln_static:krnl2.obj
 0003:00003d1c       ??_C@_04BGOA@?$CC?$CF1?$CC?$AA@ 1007dd1c     krnln_static:krnl2.obj
 0003:00003d24       ??_C@_0BE@LHOH@?2shell?2open?2command?$AA@ 1007dd24     krnln_static:krnl2.obj
 0003:00003d38       ??_C@_04OEFD@?4htm?$AA@    1007dd38     krnln_static:krnl2.obj
 0003:00003d40       ??_C@_04KHOB@open?$AA@     1007dd40     krnln_static:krnl2.obj
 0003:00003d48       ??_C@_07MMEO@mailto?3?$AA@ 1007dd48     krnln_static:krnl2.obj
 0003:00003d50       ??_C@_03JJJD@hlp?$AA@      1007dd50     krnln_static:krnl2.obj
 0003:00003d54       ??_C@_07LGIJ@DISPLAY?$AA@  1007dd54     krnln_static:krnl2.obj
 0003:00003d5c       ??_C@_0N@ONME@?N?$LE?A?$KM?$LN?S?J?$PN?$LO?$NN?T?$LE?$AA@ 1007dd5c     krnln_static:krnl2.obj
 0003:00003d6c       ??_C@_0N@EFDL@OpenDatabase?$AA@ 1007dd6c     krnln_static:krnl2.obj
 0003:00003d7c       ??_C@_0O@HIE@CloseDatabase?$AA@ 1007dd7c     krnln_static:krnl2.obj
 0003:00003d8c       ??_C@_0BB@KPHC@GetConnectString?$AA@ 1007dd8c     krnln_static:krnl2.obj
 0003:00003da0       ??_C@_0L@CFMO@GetTabList?$AA@ 1007dda0     krnln_static:krnl2.obj
 0003:00003dac       ??_C@_0BP@MKJB@?R?r?K?y?T?Z?V?$KH?$LD?V?$LP?b?T?X?H?k?$LD?v?$LE?m?$LG?x?N?$NO?$LH?$KI?$LE?$LE?$LN?$KI?$AA@ 1007ddac     krnln_static:krnl2.obj
 0003:00003dcc       ??_C@_01POCP@?7?$AA@       1007ddcc     krnln_static:krnl2.obj
 0003:00003dd0       ??_C@_0CD@DGFM@?V?$LI?$LG?$KI?$LE?$LA?$LP?Z?$LL?r?$LE?$LA?$LP?Z?W?i?$LM?$PO?$LC?$LL?$LE?f?T?Z?$LL?r?I?P?N?$LE?T?X@ 1007ddd0     krnln_static:krnl2.obj
 0003:00003df4       ??_C@_0BB@DBMH@?T?X?H?k?F?t?$LG?$KP?$LE?$LA?$LP?Z?J?$KH?$LA?$NM?$AA@ 1007ddf4     krnln_static:krnl2.obj
 0003:00003e08       ??_C@_0CO@A@?N?$NO?$LH?$KI?U?R?$LF?$LN?V?$LI?$LG?$KIDLL?$LP?b?N?D?$LM?$PO?$KB?$LA?$CFs?$KB?$LB?V?P?$LF?D?J@ 1007de08     krnln_static:krnl2.obj
 0003:00003e38       ??_C@_0CI@MEAF@?N?$NO?$LH?$KI?U?R?$LF?$LN?V?$LI?$LG?$KIDLL?$LP?b?N?D?$LM?$PO?V?P?$LF?D?J?d?$LD?v?C?$PM?A@ 1007de38     krnln_static:krnl2.obj
 0003:00003e60       ??_C@_0BG@DPCH@?$LH?V?E?d?5?$CFd?5?W?V?$LN?Z?D?Z?$LE?f?J?$KH?$LA?$NM?$CB?$AA@ 1007de60     krnln_static:krnl2.obj
 0003:00003e78       ??_C@_0L@KFNN@?$LE?m?N?s?P?E?O?$KC?$KD?$LK?$AA@ 1007de78     krnln_static:krnl2.obj
 0003:00003e84       ??_C@_04FGNA@?$AN?6?$AN?6?$AA@ 1007de84     krnln_static:krnl2.obj
 0003:00003e8c       ??_C@_0L@JFPM@?$LE?m?N?s?$LE?z?B?k?$KD?$LK?$AA@ 1007de8c     krnln_static:krnl2.obj
 0003:00003e98       ??_C@_0BA@NMLJ@?T?K?P?P?J?$LB?$LD?v?$LE?m?$CB?$AN?6?$AN?6?$AA@ 1007de98     krnln_static:krnl2.obj
 0003:00003ea8       ??_C@_0BE@OBJH@DllUnregisterServer?$AA@ 1007dea8     krnln_static:krnl2.obj
 0003:00003ebc       ??_C@_0BC@GLC@DllRegisterServer?$AA@ 1007debc     krnln_static:krnl2.obj
 0003:00003ed0       ??_C@_0N@HCHM@DEFAULT_ICON?$AA@ 1007ded0     krnln_static:krnl2.obj
 0003:00003ee0       ??_C@_0BB@JLAN@?V?$LI?$LG?$KI?$LE?$LA?$LP?Z?I?P?N?$LE?T?X?H?k?$AA@ 1007dee0     krnln_static:krnl2.obj
 0003:00003ef4       ??_C@_0BP@MHHN@?N?$LE?T?X?H?k?S?$PL?$LH?C?N?J?$LE?$LA?$LP?Z?W?i?$LM?$PO?K?y?T?Z?$LF?D?$LE?$LA?$LP?Z?$AA@ 1007def4     krnln_static:krnl2.obj
 0003:00003f14       ??_C@_04OGKO@?K?N?L?e?$AA@ 1007df14     krnln_static:krnl2.obj
 0003:00003f1c       ??_C@_0BH@GGAN@?R?$PN?$LH?$KC?J?B?$LM?$PO?$LF?D?$LE?$LA?$LP?Z?W?i?$LM?$PO?N?$NO?P?$KH?$AA@ 1007df1c     krnln_static:krnl2.obj
 0003:00003f34       ??_C@_0BJ@HHBO@?N?$LE?U?R?$LF?$LN?R?$PN?$LH?$KC?J?B?$LM?$PO?$LF?D?$LE?$LA?$LP?Z?W?i?$LM?$PO?$AA@ 1007df34     krnln_static:krnl2.obj
 0003:00003f50       ??_C@_0BF@NLFM@?N?$LE?U?R?$LF?$LN?R?$PN?$LH?$KC?J?B?$LM?$PO?$LF?D?$LE?$LA?$LP?Z?$AA@ 1007df50     krnln_static:krnl2.obj
 0003:00003f68       ??_C@_0BH@NAGD@?S?$PL?W?$KK?$LL?$LL?J?$PN?$LO?$NN?$MA?$OA?P?M?$LC?$LL?J?G?J?$PN?V?$LF?$AA@ 1007df68     krnln_static:krnl2.obj
 0003:00003f80       ??_C@_0N@CLFF@RemovePlayer?$AA@ 1007df80     krnln_static:krnl2.obj
 0003:00003fac       ?g_nMonthDays@@3PAHA       1007dfac     krnln_static:FUNC.OBJ
 0003:00003fdc       ?s_naryCursorType@@3PAHA   1007dfdc     krnln_static:FUNC.OBJ
 0003:00004018       ?s_nCursorTypeCount@@3HA   1007e018     krnln_static:FUNC.OBJ
 0003:0000401c       ??_C@_04EOIO@?$CF?46g?$AA@ 1007e01c     krnln_static:FUNC.OBJ
 0003:00004024       ??_C@_05GMEM@?$CF?413g?$AA@ 1007e024     krnln_static:FUNC.OBJ
 0003:0000402c       ??_C@_04OIBF@?$CFd?J?$LB?$AA@ 1007e02c     krnln_static:FUNC.OBJ
 0003:00004034       ??_C@_08IMDP@?$CFd?J?$LB?$CFd?$LH?V?$AA@ 1007e034     krnln_static:FUNC.OBJ
 0003:00004040       ??_C@_02JKJF@?U?f?$AA@     1007e040     krnln_static:FUNC.OBJ
 0003:00004044       ??_C@_04FCNP@?$LE?m?N?s?$AA@ 1007e044     krnln_static:FUNC.OBJ
 0003:00004050       ?s_PYNameTab@@3PAUPY_NAME_TAB@@A 1007e050     krnln_static:PY.OBJ
 0003:00004210       ?m_btSPSMChar@@3PAEA       1007e210     krnln_static:PY.OBJ
 0003:00004228       ?m_btSPSMCode@@3PAEA       1007e228     krnln_static:PY.OBJ
 0003:00004240       ?m_btSPYMChar@@3PAEA       1007e240     krnln_static:PY.OBJ
 0003:00004264       ?m_btSPYMCode@@3PAEA       1007e264     krnln_static:PY.OBJ
 0003:00004288       ?m_btSP_First_YMChar@@3PAEA 1007e288     krnln_static:PY.OBJ
 0003:00004294       ?m_btSP_First_YMCode@@3PAEA 1007e294     krnln_static:PY.OBJ
 0003:000042a0       ?s_wPYTab@@3PAGA           1007e2a0     krnln_static:PY.OBJ
 0003:00007780       ?s_wManyPYTab@@3PAGA       10081780     krnln_static:PY.OBJ
 0003:000082bc       ??_C@_01KBCC@v?$AA@        100822bc     krnln_static:PY.OBJ
 0003:000082c0       ??_C@_01FOJL@u?$AA@        100822c0     krnln_static:PY.OBJ
 0003:000082c4       ??_C@_01JAP@i?$AA@         100822c4     krnln_static:PY.OBJ
 0003:000082c8       ??_C@_02KPCD@uo?$AA@       100822c8     krnln_static:PY.OBJ
 0003:000082cc       ??_C@_02EOJ@ua?$AA@        100822cc     krnln_static:PY.OBJ
 0003:000082d0       ??_C@_02IBLO@ia?$AA@       100822d0     krnln_static:PY.OBJ
 0003:000082d4       ??_C@_02FLE@un?$AA@        100822d4     krnln_static:PY.OBJ
 0003:000082d8       ??_C@_02IAOD@in?$AA@       100822d8     krnln_static:PY.OBJ
 0003:000082dc       ??_C@_02KOLF@ue?$AA@       100822dc     krnln_static:PY.OBJ
 0003:000082e0       ??_C@_02CLOC@ie?$AA@       100822e0     krnln_static:PY.OBJ
 0003:000082e4       ??_C@_02ICJC@iu?$AA@       100822e4     krnln_static:PY.OBJ
 0003:000082e8       ??_C@_02FAFB@ui?$AA@       100822e8     krnln_static:PY.OBJ
 0003:000082ec       ??_C@_03DAGL@ian?$AA@      100822ec     krnln_static:PY.OBJ
 0003:000082f0       ??_C@_03JKPM@iao?$AA@      100822f0     krnln_static:PY.OBJ
 0003:000082f4       ??_C@_03MJOO@uan?$AA@      100822f4     krnln_static:PY.OBJ
 0003:000082f8       ??_C@_03JMAL@uai?$AA@      100822f8     krnln_static:PY.OBJ
 0003:000082fc       ??_C@_03PGDC@ong?$AA@      100822fc     krnln_static:PY.OBJ
 0003:00008300       ??_C@_03BKEF@ing?$AA@      10082300     krnln_static:PY.OBJ
 0003:00008304       ??_C@_04HDH@iong?$AA@      10082304     krnln_static:PY.OBJ
 0003:0000830c       ??_C@_04HLPF@iang?$AA@     1008230c     krnln_static:PY.OBJ
 0003:00008314       ??_C@_04JBAM@uang?$AA@     10082314     krnln_static:PY.OBJ
 0003:0000831c       ??_C@_01PHOL@e?$AA@        1008231c     krnln_static:PY.OBJ
 0003:00008320       ??_C@_01PGHN@o?$AA@        10082320     krnln_static:PY.OBJ
 0003:00008324       ??_C@_01FNLH@a?$AA@        10082324     krnln_static:PY.OBJ
 0003:00008328       ??_C@_02DKPI@ei?$AA@       10082328     krnln_static:PY.OBJ
 0003:0000832c       ??_C@_02GPBN@en?$AA@       1008232c     krnln_static:PY.OBJ
 0003:00008330       ??_C@_02DIIJ@er?$AA@       10082330     krnln_static:PY.OBJ
 0003:00008334       ??_C@_02PFGN@ou?$AA@       10082334     krnln_static:PY.OBJ
 0003:00008338       ??_C@_02JPCA@ao?$AA@       10082338     krnln_static:PY.OBJ
 0003:0000833c       ??_C@_02GAFC@ai?$AA@       1008233c     krnln_static:PY.OBJ
 0003:00008340       ??_C@_02DFLH@an?$AA@       10082340     krnln_static:PY.OBJ
 0003:00008344       ??_C@_03MCKK@eng?$AA@      10082344     krnln_static:PY.OBJ
 0003:00008348       ??_C@_03IKPA@ang?$AA@      10082348     krnln_static:PY.OBJ
 0003:0000834c       ??_C@_01LLF@w?$AA@         1008234c     krnln_static:PY.OBJ
 0003:00008350       ??_C@_01KAHP@y?$AA@        10082350     krnln_static:PY.OBJ
 0003:00008354       ??_C@_01KBOJ@s?$AA@        10082354     krnln_static:PY.OBJ
 0003:00008358       ??_C@_01IJJ@c?$AA@         10082358     krnln_static:PY.OBJ
 0003:0000835c       ??_C@_01FPMG@z?$AA@        1008235c     krnln_static:PY.OBJ
 0003:00008360       ??_C@_01LHO@r?$AA@         10082360     krnln_static:PY.OBJ
 0003:00008364       ??_C@_01KOI@x?$AA@         10082364     krnln_static:PY.OBJ
 0003:00008368       ??_C@_01PEMH@q?$AA@        10082368     krnln_static:PY.OBJ
 0003:0000836c       ??_C@_01PGLG@j?$AA@        1008236c     krnln_static:PY.OBJ
 0003:00008370       ??_C@_01KDJI@h?$AA@        10082370     krnln_static:PY.OBJ
 0003:00008374       ??_C@_01FMCB@k?$AA@        10082374     krnln_static:PY.OBJ
 0003:00008378       ??_C@_01KCMF@g?$AA@        10082378     krnln_static:PY.OBJ
 0003:0000837c       ??_C@_01JME@l?$AA@         1008237c     krnln_static:PY.OBJ
 0003:00008380       ??_C@_01FMOK@n?$AA@        10082380     krnln_static:PY.OBJ
 0003:00008384       ??_C@_01PEAM@t?$AA@        10082384     krnln_static:PY.OBJ
 0003:00008388       ??_C@_01FNHM@d?$AA@        10082388     krnln_static:PY.OBJ
 0003:0000838c       ??_C@_01IFC@f?$AA@         1008238c     krnln_static:PY.OBJ
 0003:00008390       ??_C@_01KDFD@m?$AA@        10082390     krnln_static:PY.OBJ
 0003:00008394       ??_C@_01FOFA@p?$AA@        10082394     krnln_static:PY.OBJ
 0003:00008398       ??_C@_01KCAO@b?$AA@        10082398     krnln_static:PY.OBJ
 0003:0000839c       ??_C@_02INDJ@sh?$AA@       1008239c     krnln_static:PY.OBJ
 0003:000083a0       ??_C@_02OHJA@ch?$AA@       100823a0     krnln_static:PY.OBJ
 0003:000083a4       ??_C@_02COMH@zh?$AA@       100823a4     krnln_static:PY.OBJ
 0003:000083a8       ??_C@_05FIDG@zheng?$AA@    100823a8     krnln_static:PY.OBJ
 0003:000083b0       ??_C@_04JHI@zeng?$AA@      100823b0     krnln_static:PY.OBJ
 0003:000083b8       ??_C@_03LNJA@zen?$AA@      100823b8     krnln_static:PY.OBJ
 0003:000083bc       ??_C@_04PDAF@zhen?$AA@     100823bc     krnln_static:PY.OBJ
 0003:00008404       ??_C@_03NAME@?4?4?4?$AA@   10082404     krnln_static:DLG.OBJ
 0003:00008408       ??_C@_0BB@GDDO@?$LB?$KD?$LE?f?O?V?P?P?$LM?G?B?$LM?J?$KH?$LA?$NM?$AA@ 10082408     krnln_static:DLG.OBJ
 0003:0000841c       ??_C@_03DMDD@?5?9?5?$AA@   1008241c     krnln_static:DLG.OBJ
 0003:00008420       ??_C@_08OGBG@?$DP?$DP?5?1?5?$CFd?$FN?$AA@ 10082420     krnln_static:DLG.OBJ
 0003:0000842c       ??_C@_08POPH@?$CFd?5?1?5?$CFd?$FN?$AA@ 1008242c     krnln_static:DLG.OBJ
 0003:00008438       ??_C@_08MKDD@?$CK?$LB?$LL?I?$LO?$LD?$PN?5?$AA@ 10082438     krnln_static:DLG.OBJ
 0003:00008444       ??_C@_04BAIN@?5?9?5?$FL?$AA@ 10082444     krnln_static:DLG.OBJ
 0003:0000844c       ??_C@_04PHEN@?$LB?$OA?$LM?$KN?$AA@ 1008244c     krnln_static:DLG.OBJ
 0003:00008454       ??_C@_04DGLI@?$LC?i?$LP?$LE?$AA@ 10082454     krnln_static:DLG.OBJ
 0003:0000845c       ??_C@_08EIMK@?$LB?$LI?W?$KC?W?V?$LG?N?$AA@ 1008245c     krnln_static:DLG.OBJ
 0003:00008468       ??_C@_0L@LAHG@?W?V?$LN?Z?$LM?$KP?W?V?$LG?N?$AA@ 10082468     krnln_static:DLG.OBJ
 0003:00008474       ??_C@_0BC@FHHC@?5?9?5?$FL?J?$PN?$LO?$NN?$LD?$NP?$LE?g?3?5?$CFd?$FN?$AA@ 10082474     krnln_static:DLG.OBJ
 0003:00008488       ??_C@_0BB@EJPM@?$LE?$LE?$LN?$KI?M?$LM?F?$KM?T?$KE?$MA?$MA?J?$KH?$LA?$NM?$AA@ 10082488     krnln_static:DLG.OBJ
 0003:0000849c       ??_C@_0N@POHN@?P?$LE?$LD?v?N?D?$LM?$PO?J?$KH?$LA?$NM?$AA@ 1008249c     krnln_static:DLG.OBJ
 0003:000084ac       ??_C@_03DPCO@TXT?$AA@      100824ac     krnln_static:DLG.OBJ
 0003:000084b0       ??_C@_0BF@JCLB@?K?y?S?P?N?D?$LM?$PO?5?$CI?$CK?4?$CK?$CJ?$HM?$CK?4?$CK?$HM?$HM?$AA@ 100824b0     krnln_static:DLG.OBJ
 0003:000084c8       ??_C@_0FF@EDMD@?K?y?S?P?I?y?R?t?N?D?$LM?$PO?5?$CI?$CK?4WAV?$DL?$CK?4MID?$CJ?$HM?$CK?4WAV@ 100824c8     krnln_static:DLG.OBJ
 0003:00008520       ??_C@_0CM@EDOB@?N?D?$LB?$LO?N?D?$LM?$PO?5?$CI?$CK?4txt?$CJ?$HM?$CK?4txt?$HM?K?y?S?P?N?D?$LM?$PO?5@ 10082520     krnln_static:DLG.OBJ
 0003:0000854c       ??_C@_0N@BPOK@?$LC?$LL?J?G?I?y?R?t?J?$PN?$LO?$NN?$AA@ 1008254c     krnln_static:DLG.OBJ
 0003:00008560       ?g_WinProperty@@3PAUUNIT_PROPERTY@@A 10082560     krnln_static:Winform.obj
 0003:000087e0       ?g_WinPropertyCount@@3HA   100827e0     krnln_static:Winform.obj
 0003:00008bb0       ??_C@_0N@DNDN@CWinFormUnit?$AA@ 10082bb0     krnln_static:Winform.obj
 0003:00008bc0       ?g_szQuickKeyName@@3PAPBDA 10082bc0     krnln_static:MENU.OBJ
 0003:00008cf8       ?QuickKey@@3PAUtagQUICK_KEY@@A 10082cf8     krnln_static:MENU.OBJ
 0003:00008e30       ??_C@_03PHMD@Del?$AA@      10082e30     krnln_static:MENU.OBJ
 0003:00008e34       ??_C@_03FLLM@Ins?$AA@      10082e34     krnln_static:MENU.OBJ
 0003:00008e38       ??_C@_0P@DEIO@Ctrl?$CLShift?$CLF12?$AA@ 10082e38     krnln_static:MENU.OBJ
 0003:00008e48       ??_C@_0P@MLDH@Ctrl?$CLShift?$CLF11?$AA@ 10082e48     krnln_static:MENU.OBJ
 0003:00008e58       ??_C@_0P@GBKA@Ctrl?$CLShift?$CLF10?$AA@ 10082e58     krnln_static:MENU.OBJ
 0003:00008e68       ??_C@_0O@GEFI@Ctrl?$CLShift?$CLF9?$AA@ 10082e68     krnln_static:MENU.OBJ
 0003:00008e78       ??_C@_0O@MOMP@Ctrl?$CLShift?$CLF8?$AA@ 10082e78     krnln_static:MENU.OBJ
 0003:00008e88       ??_C@_0O@MPJC@Ctrl?$CLShift?$CLF7?$AA@ 10082e88     krnln_static:MENU.OBJ
 0003:00008e98       ??_C@_0O@GFAF@Ctrl?$CLShift?$CLF6?$AA@ 10082e98     krnln_static:MENU.OBJ
 0003:00008ea8       ??_C@_0O@JKLM@Ctrl?$CLShift?$CLF5?$AA@ 10082ea8     krnln_static:MENU.OBJ
 0003:00008eb8       ??_C@_0O@DACL@Ctrl?$CLShift?$CLF4?$AA@ 10082eb8     krnln_static:MENU.OBJ
 0003:00008ec8       ??_C@_0O@GFMO@Ctrl?$CLShift?$CLF3?$AA@ 10082ec8     krnln_static:MENU.OBJ
 0003:00008ed8       ??_C@_0O@MPFJ@Ctrl?$CLShift?$CLF2?$AA@ 10082ed8     krnln_static:MENU.OBJ
 0003:00008ee8       ??_C@_0O@DAOA@Ctrl?$CLShift?$CLF1?$AA@ 10082ee8     krnln_static:MENU.OBJ
 0003:00008ef8       ??_C@_09DNFD@Shift?$CLF12?$AA@ 10082ef8     krnln_static:MENU.OBJ
 0003:00008f04       ??_C@_09MCOK@Shift?$CLF11?$AA@ 10082f04     krnln_static:MENU.OBJ
 0003:00008f10       ??_C@_09GIHN@Shift?$CLF10?$AA@ 10082f10     krnln_static:MENU.OBJ
 0003:00008f1c       ??_C@_08LJND@Shift?$CLF9?$AA@ 10082f1c     krnln_static:MENU.OBJ
 0003:00008f28       ??_C@_08BDEE@Shift?$CLF8?$AA@ 10082f28     krnln_static:MENU.OBJ
 0003:00008f34       ??_C@_08BCBJ@Shift?$CLF7?$AA@ 10082f34     krnln_static:MENU.OBJ
 0003:00008f40       ??_C@_08LIIO@Shift?$CLF6?$AA@ 10082f40     krnln_static:MENU.OBJ
 0003:00008f4c       ??_C@_08EHDH@Shift?$CLF5?$AA@ 10082f4c     krnln_static:MENU.OBJ
 0003:00008f58       ??_C@_08ONKA@Shift?$CLF4?$AA@ 10082f58     krnln_static:MENU.OBJ
 0003:00008f64       ??_C@_08LIEF@Shift?$CLF3?$AA@ 10082f64     krnln_static:MENU.OBJ
 0003:00008f70       ??_C@_08BCNC@Shift?$CLF2?$AA@ 10082f70     krnln_static:MENU.OBJ
 0003:00008f7c       ??_C@_08ONGL@Shift?$CLF1?$AA@ 10082f7c     krnln_static:MENU.OBJ
 0003:00008f88       ??_C@_08FHBO@Ctrl?$CLF12?$AA@ 10082f88     krnln_static:MENU.OBJ
 0003:00008f94       ??_C@_08KIKH@Ctrl?$CLF11?$AA@ 10082f94     krnln_static:MENU.OBJ
 0003:00008fa0       ??_C@_08CDA@Ctrl?$CLF10?$AA@ 10082fa0     krnln_static:MENU.OBJ
 0003:00008fac       ??_C@_07PEBJ@Ctrl?$CLF9?$AA@ 10082fac     krnln_static:MENU.OBJ
 0003:00008fb4       ??_C@_07FOIO@Ctrl?$CLF8?$AA@ 10082fb4     krnln_static:MENU.OBJ
 0003:00008fbc       ??_C@_07FPND@Ctrl?$CLF7?$AA@ 10082fbc     krnln_static:MENU.OBJ
 0003:00008fc4       ??_C@_07PFEE@Ctrl?$CLF6?$AA@ 10082fc4     krnln_static:MENU.OBJ
 0003:00008fcc       ??_C@_07KPN@Ctrl?$CLF5?$AA@ 10082fcc     krnln_static:MENU.OBJ
 0003:00008fd4       ??_C@_07KAGK@Ctrl?$CLF4?$AA@ 10082fd4     krnln_static:MENU.OBJ
 0003:00008fdc       ??_C@_07PFIP@Ctrl?$CLF3?$AA@ 10082fdc     krnln_static:MENU.OBJ
 0003:00008fe4       ??_C@_07FPBI@Ctrl?$CLF2?$AA@ 10082fe4     krnln_static:MENU.OBJ
 0003:00008fec       ??_C@_07KAKB@Ctrl?$CLF1?$AA@ 10082fec     krnln_static:MENU.OBJ
 0003:00008ff4       ??_C@_03GODC@F12?$AA@      10082ff4     krnln_static:MENU.OBJ
 0003:00008ff8       ??_C@_03JBIL@F11?$AA@      10082ff8     krnln_static:MENU.OBJ
 0003:00008ffc       ??_C@_03DLBM@F10?$AA@      10082ffc     krnln_static:MENU.OBJ
 0003:00009000       ??_C@_02NIOF@F9?$AA@       10083000     krnln_static:MENU.OBJ
 0003:00009004       ??_C@_02HCHC@F8?$AA@       10083004     krnln_static:MENU.OBJ
 0003:00009008       ??_C@_02HDCP@F7?$AA@       10083008     krnln_static:MENU.OBJ
 0003:0000900c       ??_C@_02NJLI@F6?$AA@       1008300c     krnln_static:MENU.OBJ
 0003:00009010       ??_C@_02CGAB@F5?$AA@       10083010     krnln_static:MENU.OBJ
 0003:00009014       ??_C@_02IMJG@F4?$AA@       10083014     krnln_static:MENU.OBJ
 0003:00009018       ??_C@_02NJHD@F3?$AA@       10083018     krnln_static:MENU.OBJ
 0003:0000901c       ??_C@_02HDOE@F2?$AA@       1008301c     krnln_static:MENU.OBJ
 0003:00009020       ??_C@_02IMFN@F1?$AA@       10083020     krnln_static:MENU.OBJ
 0003:00009024       ??_C@_06PBNK@Ctrl?$CLZ?$AA@ 10083024     krnln_static:MENU.OBJ
 0003:0000902c       ??_C@_06OGD@Ctrl?$CLY?$AA@ 1008302c     krnln_static:MENU.OBJ
 0003:00009034       ??_C@_06KEPE@Ctrl?$CLX?$AA@ 10083034     krnln_static:MENU.OBJ
 0003:0000903c       ??_C@_06KFKJ@Ctrl?$CLW?$AA@ 1008303c     krnln_static:MENU.OBJ
 0003:00009044       ??_C@_06PDO@Ctrl?$CLV?$AA@ 10083044     krnln_static:MENU.OBJ
 0003:0000904c       ??_C@_06PAIH@Ctrl?$CLU?$AA@ 1008304c     krnln_static:MENU.OBJ
 0003:00009054       ??_C@_06FKBA@Ctrl?$CLT?$AA@ 10083054     krnln_static:MENU.OBJ
 0003:0000905c       ??_C@_06PPF@Ctrl?$CLS?$AA@ 1008305c     krnln_static:MENU.OBJ
 0003:00009064       ??_C@_06KFGC@Ctrl?$CLR?$AA@ 10083064     krnln_static:MENU.OBJ
 0003:0000906c       ??_C@_06FKNL@Ctrl?$CLQ?$AA@ 1008306c     krnln_static:MENU.OBJ
 0003:00009074       ??_C@_06PAEM@Ctrl?$CLP?$AA@ 10083074     krnln_static:MENU.OBJ
 0003:0000907c       ??_C@_06FIGB@Ctrl?$CLO?$AA@ 1008307c     krnln_static:MENU.OBJ
 0003:00009084       ??_C@_06PCPG@Ctrl?$CLN?$AA@ 10083084     krnln_static:MENU.OBJ
 0003:0000908c       ??_C@_06NEP@Ctrl?$CLM?$AA@ 1008308c     krnln_static:MENU.OBJ
 0003:00009094       ??_C@_06KHNI@Ctrl?$CLL?$AA@ 10083094     krnln_static:MENU.OBJ
 0003:0000909c       ??_C@_06PCDN@Ctrl?$CLK?$AA@ 1008309c     krnln_static:MENU.OBJ
 0003:000090a4       ??_C@_06FIKK@Ctrl?$CLJ?$AA@ 100830a4     krnln_static:MENU.OBJ
 0003:000090ac       ??_C@_06KHBD@Ctrl?$CLI?$AA@ 100830ac     krnln_static:MENU.OBJ
 0003:000090b4       ??_C@_06NIE@Ctrl?$CLH?$AA@ 100830b4     krnln_static:MENU.OBJ
 0003:000090bc       ??_C@_06MNJ@Ctrl?$CLG?$AA@ 100830bc     krnln_static:MENU.OBJ
 0003:000090c4       ??_C@_06KGEO@Ctrl?$CLF?$AA@ 100830c4     krnln_static:MENU.OBJ
 0003:000090cc       ??_C@_06FJPH@Ctrl?$CLE?$AA@ 100830cc     krnln_static:MENU.OBJ
 0003:000090d4       ??_C@_06PDGA@Ctrl?$CLD?$AA@ 100830d4     krnln_static:MENU.OBJ
 0003:000090dc       ??_C@_06KGIF@Ctrl?$CLC?$AA@ 100830dc     krnln_static:MENU.OBJ
 0003:000090e4       ??_C@_06MBC@Ctrl?$CLB?$AA@ 100830e4     krnln_static:MENU.OBJ
 0003:000090ec       ??_C@_06PDKL@Ctrl?$CLA?$AA@ 100830ec     krnln_static:MENU.OBJ
 0003:000090f4       ??_C@_06EKND@?$KD?$KI?N?$NO?$KD?$KJ?$AA@ 100830f4     krnln_static:MENU.OBJ
 0003:000090fc       ??_C@_01GJD@?9?$AA@        100830fc     krnln_static:MENU.OBJ
 0003:00009100       ??_C@_0MM@LHMO@?K?y?S?P?M?$LM?F?$KM?N?D?$LM?$PO?5?$CI?$CK?4JPG?$DL?$CK?4BMP?$DL?$CK?4GIF?$DL@ 10083100     krnln_static:Pic.obj
 0003:000091cc       ??_C@_05HDAD@?$CFs?3?$CFd?$AA@ 100831cc     krnln_static:sockwnd.obj
 0003:000091d4       ??_C@_04KIKH@none?$AA@     100831d4     krnln_static:MDataSrc.obj
 0003:000091dc       ??_C@_07EPIM@devices?$AA@  100831dc     krnln_static:MDataSrc.obj
 0003:000091e4       ??_C@_07CIAP@windows?$AA@  100831e4     krnln_static:MDataSrc.obj
 0003:000091ec       ??_C@_06GFPG@device?$AA@   100831ec     krnln_static:MDataSrc.obj
 0003:000091f4       ??_C@_03MJC@?0?0?0?$AA@    100831f4     krnln_static:MDataSrc.obj
 0003:0000921c       ??_C@_04NCCD@true?$AA@     1008321c     krnln_static:Provider.obj
 0003:00009224       ??_C@_01FBAH@1?$AA@        10083224     krnln_static:Provider.obj
 0003:00009228       ??_C@_0L@NBIE@MGridCells?$AA@ 10083228     krnln_static:MGrid.obj
 0003:00009234       ??_C@_08JJHO@?$LF?Z?5?$CFd?5?R?$LD?$AA@ 10083234     krnln_static:MGrid.obj
 0003:000094c8       ??_C@_0P@BIMM@?N?$NO?P?$KH?$LF?D?C?$NM?B?k?N?D?$LB?$LO?$AA@ 100834c8     krnln_static:DBERR.OBJ
 0003:000094d8       ??_C@_0CB@NPDF@?P?$NO?$LI?D?$LH?C?N?J?C?$NM?B?k?J?$LB?$LI?$PM?P?B?J?$PN?$LO?$NN?$LP?b?J?$PN?$LO?$NN?J?$KH?$LA?$NM@ 100834d8     krnln_static:DBERR.OBJ
 0003:000094fc       ??_C@_0CH@IHCF@?N?$LE?L?a?$LJ?$KJ?J?$PN?$LO?$NN?$LP?b?$LH?C?N?J?C?$NM?B?k?$LL?r?L?a?$LJ?$KJ?A?K?$LE?m?N?s@ 100834fc     krnln_static:DBERR.OBJ
 0003:00009524       ??_C@_0DE@JKKC@?$LH?G?F?s?R?$LF?$LA?f?K?y?$LB?$OA?R?k?$LF?D?$LD?L?P?r?$LC?$LL?D?$NM?$LE?r?$LP?$KK?$LD?$KM?$LJ?$PN@ 10083524     krnln_static:DBERR.OBJ
 0003:00009558       ??_C@_0P@MGKM@?$LB?m?$LE?o?J?$LN?$MA?$OA?P?M?$LE?m?N?s?$AA@ 10083558     krnln_static:DBERR.OBJ
 0003:00009568       ??_C@_0P@GFJJ@?$LM?F?K?c?$LB?m?$LE?o?J?$LN?$LD?v?$LE?m?$AA@ 10083568     krnln_static:DBERR.OBJ
 0003:00009578       ??_C@_0CG@MPPF@?J?$PN?$LO?$NN?$LP?b?$LF?D?$LJ?$LC?O?m?$LE?r?$LP?$KK?$LH?$LN?J?$LN?$LC?$LL?J?G?$KB?$LA?$CD?$LN?$PL?V?$LJ?$LG@ 10083578     krnln_static:DBERR.OBJ
 0003:000095a0       ??_C@_0DD@NKOC@?K?y?L?a?$LJ?$KJ?S?$PL?$LC?i?U?R?J?$PN?$LO?$NN?$LF?D?J?$PN?D?$LP?S?k?$LF?$LB?G?$LA?K?w?R?$PN@ 100835a0     krnln_static:DBERR.OBJ
 0003:000095d4       ??_C@_0CB@DDO@?K?y?L?a?$LJ?$KJ?J?$PN?$LO?$NN?$LF?D?$MA?$OA?P?M?S?k?W?V?$LG?N?$MA?$OA?P?M?$LC?$LL?F?$KF?E?d@ 100835d4     krnln_static:DBERR.OBJ
 0003:000095f8       ??_C@_0BL@EGGJ@?N?$LE?V?$LI?$LG?$KI?W?V?$LG?N?$LL?r?U?$NP?W?V?$LG?N?$MA?$OA?P?M?$LE?m?N?s?$AA@ 100835f8     krnln_static:DBERR.OBJ
 0003:00009614       ??_C@_0N@CEHP@?W?V?$LG?N?$MA?$OA?P?M?$LE?m?N?s?$AA@ 10083614     krnln_static:DBERR.OBJ
 0003:00009624       ??_C@_0P@JHKN@?N?$LE?I?h?V?C?$LF?$LB?G?$LA?K?w?R?$PN?$AA@ 10083624     krnln_static:DBERR.OBJ
 0003:00009634       ??_C@_0BB@CGGD@?U?R?$LC?$LL?$LF?$LN?V?$LI?$LG?$KI?$LF?D?K?w?R?$PN?$AA@ 10083634     krnln_static:DBERR.OBJ
 0003:00009648       ??_C@_0BB@FENL@?N?$LE?I?h?V?C?$LF?$LB?G?$LA?J?$PN?$LO?$NN?$LP?b?$AA@ 10083648     krnln_static:DBERR.OBJ
 0003:0000965c       ??_C@_0BB@MLCI@?N?$LE?$LE?r?$LP?$KK?V?$LI?$LG?$KI?J?$PN?$LO?$NN?$LP?b?$AA@ 1008365c     krnln_static:DBERR.OBJ
 0003:00009670       ??_C@_0BD@ICIJ@?H?$KB?J?$PN?$LO?$NN?$LP?b?$LM?G?B?$LM?J?$PN?J?$KH?$LA?$NM?$AA@ 10083670     krnln_static:DBERR.OBJ
 0003:00009684       ??_C@_0N@GKHB@?$LI?$PM?$LI?D?K?w?R?$PN?J?$KH?$LA?$NM?$AA@ 10083684     krnln_static:DBERR.OBJ
 0003:00009694       ??_C@_0L@EFEA@?P?$LE?$LM?G?B?$LM?J?$KH?$LA?$NM?$AA@ 10083694     krnln_static:DBERR.OBJ
 0003:000096a0       ??_C@_0L@FJPC@?$LG?A?$LM?G?B?$LM?J?$KH?$LA?$NM?$AA@ 100836a0     krnln_static:DBERR.OBJ
 0003:000096ac       ??_C@_0P@LKPM@?O?V?P?P?$LM?G?B?$LM?$LC?$LL?$LE?f?T?Z?$AA@ 100836ac     krnln_static:DBERR.OBJ
 0003:000096bc       ??_C@_0BJ@GLBN@?$LH?C?N?J?J?$PN?$LO?$NN?$LP?b?$LF?D?$LI?$KI?V?z?N?D?$LM?$PO?J?$KH?$LA?$NM?$AA@ 100836bc     krnln_static:DBERR.OBJ
 0003:000096d8       ??_C@_0BH@CMKK@?U?R?$LC?$LL?$LF?$LN?V?$LI?$LG?$KI?$LM?G?B?$LM?$LF?D?K?w?R?$PN?O?n?$AA@ 100836d8     krnln_static:DBERR.OBJ
 0003:000096f0       ??_C@_0BD@FLDO@?R?Q?$LF?$LN?W?n?$LK?s?R?$LL?$LI?v?K?w?R?$PN?O?n?$AA@ 100836f0     krnln_static:DBERR.OBJ
 0003:00009704       ??_C@_0BD@IKAO@?K?w?R?$PN?W?V?$LG?N?$LF?D?$LD?$NP?$LE?g?$LJ?$PN?$LE?s?$AA@ 10083704     krnln_static:DBERR.OBJ
 0003:00009718       ??_C@_08BIO@?D?Z?$LE?f?$LC?$LL?W?c?$AA@ 10083718     krnln_static:DBERR.OBJ
 0003:00009724       ??_C@_0CL@CBHD@?K?w?R?$PN?K?y?J?$LJ?S?C?W?V?$LG?N?$LF?D?$MA?$OA?P?M?S?k?J?$PN?$LO?$NN?$LP?b?D?Z?$LF?D@ 10083724     krnln_static:DBERR.OBJ
 0003:00009750       ??_C@_0CL@JECH@?K?w?R?$PN?K?y?J?$LJ?S?C?W?V?$LG?N?$LF?D?$LD?$NP?$LE?g?S?k?J?$PN?$LO?$NN?$LP?b?D?Z?$LF?D@ 10083750     krnln_static:DBERR.OBJ
 0003:0000977c       ??_C@_0BB@CDDI@?$LH?C?N?J?K?w?R?$PN?O?n?D?$LP?J?$KH?$LA?$NM?$AA@ 1008377c     krnln_static:DBERR.OBJ
 0003:00009790       ??_C@_0BB@NIFI@?$LM?S?H?k?K?w?R?$PN?O?n?D?$LP?J?$KH?$LA?$NM?$AA@ 10083790     krnln_static:DBERR.OBJ
 0003:000097a4       ??_C@_0BH@LMEE@?$LE?$LE?$LN?$KI?J?$PN?$LO?$NN?$LP?b?$LI?$KI?V?z?N?D?$LM?$PO?J?$KH?$LA?$NM?$AA@ 100837a4     krnln_static:DBERR.OBJ
 0003:000097bc       ??_C@_0BH@GIFL@?J?$PN?$LO?$NN?$LP?b?K?w?R?$PN?N?D?$LM?$PO?$LD?$NP?$LE?g?$LE?m?N?s?$AA@ 100837bc     krnln_static:DBERR.OBJ
 0003:000097d4       ??_C@_0BD@OKCB@?J?$PN?$LO?$NN?$LP?b?N?D?$LM?$PO?$LD?$NP?$LE?g?$LE?m?N?s?$AA@ 100837d4     krnln_static:DBERR.OBJ
 0003:000097e8       ??_C@_0P@LLFG@?P?$LE?V?$LI?$LG?$KI?W?V?$LG?N?J?$KH?$LA?$NM?$AA@ 100837e8     krnln_static:DBERR.OBJ
 0003:000097f8       ??_C@_0P@BAAE@?$LG?A?V?$LI?$LG?$KI?W?V?$LG?N?J?$KH?$LA?$NM?$AA@ 100837f8     krnln_static:DBERR.OBJ
 0003:00009808       ??_C@_0BB@GAEJ@?$LH?V?E?d?D?Z?$LE?f?$LP?U?$LM?d?J?$KH?$LA?$NM?$AA@ 10083808     krnln_static:DBERR.OBJ
 0003:0000981c       ??_C@_0P@KCPD@?V?$LI?$LG?$KI?$LM?G?B?$LM?$LC?$LL?$LE?f?T?Z?$AA@ 1008381c     krnln_static:DBERR.OBJ
 0003:0000982c       ??_C@_0BJ@EDAM@?$LC?$LL?D?$NM?U?R?$LF?$LN?K?w?R?$PN?K?y?J?$LJ?S?C?$LF?D?W?V?$LG?N?$AA@ 1008382c     krnln_static:DBERR.OBJ
 0003:00009848       ??_C@_0CJ@PCPM@?K?w?R?$PN?K?y?J?$LJ?S?C?$LF?D?W?V?$LG?N?$LC?$LL?D?$NM?N?$KK?$LB?$LI?W?$KC?$LL?r?U?$NP?W?V@ 10083848     krnln_static:DBERR.OBJ
 0003:00009874       ??_C@_0BH@KJAN@?$LE?$LE?$LN?$KI?J?$PN?$LO?$NN?$LP?b?K?w?R?$PN?N?D?$LM?$PO?J?$KH?$LA?$NM?$AA@ 10083874     krnln_static:DBERR.OBJ
 0003:0000988c       ??_C@_0P@FGNM@?N?$LE?U?R?$LF?$LN?V?$LI?$LG?$KI?W?V?$LG?N?$AA@ 1008388c     krnln_static:DBERR.OBJ
 0003:0000989c       ??_C@_0BF@CEMB@?K?w?R?$PN?K?y?J?$LJ?S?C?$LF?D?W?V?$LG?N?L?$KL?$LG?$OA?$AA@ 1008389c     krnln_static:DBERR.OBJ
 0003:000098b4       ??_C@_0BF@OKJG@?V?$LI?$LG?$KI?J?$PN?$LO?$NN?$LP?b?R?Q?$LO?$KN?$LB?$LL?$LE?r?$LP?$KK?$AA@ 100838b4     krnln_static:DBERR.OBJ
 0003:000098cc       ??_C@_0CF@FMGM@?V?$LI?$LG?$KI?N?D?$LM?$PO?$LC?$LL?J?G?J?$PN?$LO?$NN?$LP?b?$LI?$KI?V?z?N?D?$LM?$PO?$LL?r?R?Q?$LB?$LL@ 100838cc     krnln_static:DBERR.OBJ
 0003:000098f4       ??_C@_0CH@GODL@?J?$PN?$LO?$NN?$LP?b?$LI?$KI?V?z?N?D?$LM?$PO?$LF?D?$LA?f?$LB?$LO?S?k?J?$PN?$LO?$NN?$LP?b?$LB?$LO?I?m@ 100838f4     krnln_static:DBERR.OBJ
 0003:0000991c       ??_C@_0BH@LAHE@?$LG?A?H?k?J?$PN?$LO?$NN?$LP?b?$LI?$KI?V?z?N?D?$LM?$PO?J?$KH?$LA?$NM?$AA@ 1008391c     krnln_static:DBERR.OBJ
 0003:00009934       ??_C@_0BN@EBOF@?N?$KK?M?$KM?R?$LL?J?$PN?$LO?$NN?$LP?b?$LE?r?$LP?$KK?K?w?R?$PN?N?D?$LM?$PO?$LJ?$PN?$LG?$OA?$AA@ 10083934     krnln_static:DBERR.OBJ
 0003:00009954       ??_C@_0BD@PHIF@?K?w?R?$PN?N?D?$LM?$PO?R?Q?$LO?$KN?$LB?$LL?$LE?r?$LP?$KK?$AA@ 10083954     krnln_static:DBERR.OBJ
 0003:00009968       ??_C@_0CB@LCKJ@?K?w?R?$PN?N?D?$LM?$PO?$LF?D?$LA?f?$LB?$LO?S?k?J?$PN?$LO?$NN?$LP?b?$LB?$LO?I?m?$LC?$LL?R?$LL?V?B@ 10083968     krnln_static:DBERR.OBJ
 0003:0000998c       ??_C@_0CF@BDFC@?V?$LI?$LG?$KI?N?D?$LM?$PO?$LC?$LL?J?G?J?$PN?$LO?$NN?$LP?b?K?w?R?$PN?N?D?$LM?$PO?$LL?r?R?Q?$LB?$LL@ 1008398c     krnln_static:DBERR.OBJ
 0003:000099b4       ??_C@_0BF@NCNI@?$LE?r?$LP?$KK?V?$LI?$LG?$KI?K?w?R?$PN?N?D?$LM?$PO?J?$KH?$LA?$NM?$AA@ 100839b4     krnln_static:DBERR.OBJ
 0003:000099cc       ??_C@_08FHFL@?$LN?b?K?x?J?$KH?$LA?$NM?$AA@ 100839cc     krnln_static:DBERR.OBJ
 0003:000099d8       ??_C@_08KAO@?$LM?S?K?x?J?$KH?$LA?$NM?$AA@ 100839d8     krnln_static:DBERR.OBJ
 0003:000099e4       ??_C@_0BB@IJFJ@?$LF?$LB?G?$LA?N?$LE?$LE?r?$LP?$KK?J?$PN?$LO?$NN?$LP?b?$AA@ 100839e4     krnln_static:DBERR.OBJ
 0003:000099f8       ??_C@_0BH@CKFI@?R?Q?$LO?$KN?T?$LN?$LJ?$PN?J?$PN?$LO?$NN?$LP?b?$LF?D?D?$KJ?$LM?G?B?$LM?$AA@ 100839f8     krnln_static:DBERR.OBJ
 0003:00009a10       ??_C@_0BH@DEMH@?R?Q?$LO?$KN?T?$LN?$LJ?$PN?J?$PN?$LO?$NN?$LP?b?$LF?D?J?W?$LM?G?B?$LM?$AA@ 10083a10     krnln_static:DBERR.OBJ
 0003:00009a28       ??_C@_0FJ@LEOP@?N?$NO?P?$KH?$LF?D?$LB?p?C?$PL?$KB?$KD?$LB?p?C?$PL?J?W?W?V?$LH?$PL?$LB?X?P?k?N?$KK?H?$KL?$LA?k@ 10083a28     krnln_static:DBERR.OBJ
 0003:00009a84       ??_C@_0DB@CBN@?V?$LI?$LG?$KI?J?$PN?$LO?$NN?$LP?b?N?D?$LM?$PO?$LA?f?$LB?$LO?L?$KL?$LI?$NP?$KD?$KM?N?$NO?$LH?$KI?$LG?A?H?k@ 10083a84     krnln_static:DBERR.OBJ
 0003:00009ab8       ??_C@_0BH@IKEI@?V?$LI?$LG?$KI?N?D?$LM?$PO?$LC?$LL?J?G?J?$PN?$LO?$NN?$LP?b?N?D?$LM?$PO?$AA@ 10083ab8     krnln_static:DBERR.OBJ
 0003:00009ad0       ??_C@_0BD@GOAO@?$LE?r?$LP?$KK?V?$LI?$LG?$KI?J?$PN?$LO?$NN?$LP?b?J?$KH?$LA?$NM?$AA@ 10083ad0     krnln_static:DBERR.OBJ
 0003:00009ae4       ??_C@_0BD@OICD@?$LE?f?T?Z?V?X?$LI?$LE?$LF?D?W?V?$LG?N?C?$PL?$LD?F?$AA@ 10083ae4     krnln_static:DBERR.OBJ
 0003:00009af8       ??_C@_0P@KPJL@?N?$NO?P?$KH?$LF?D?W?V?$LG?N?$LD?$NP?$LE?g?$AA@ 10083af8     krnln_static:DBERR.OBJ
 0003:00009b08       ??_C@_0HH@FDIO@?N?$NO?P?$KH?$LF?D?W?V?$LG?N?C?$PL?$LD?F?$KB?$KD?C?$PL?$LD?F?J?W?W?V?$LH?$PL?$LB?X?P?k?N?$KK@ 10083b08     krnln_static:DBERR.OBJ
 0003:00009b80       ??_C@_0P@FAML@?N?$NO?P?$KH?$LF?D?W?V?$LG?N?$MA?$OA?P?M?$AA@ 10083b80     krnln_static:DBERR.OBJ
 0003:00009b90       ??_C@_0BE@MFIJ@?W?V?$LG?N?J?$PN?D?$LP?$LB?X?P?k?$LE?s?S?Z?50?5?$AA@ 10083b90     krnln_static:DBERR.OBJ
 0003:00009ba4       ??_C@_0P@OCGF@?R?Q?$LO?$KN?$LF?$LN?$LE?o?N?D?$LM?$PO?N?$LC?$AA@ 10083ba4     krnln_static:DBERR.OBJ
 0003:00009bb4       ??_C@_0N@CIPI@?$LE?E?E?L?$LP?U?$LM?d?$LC?$LL?$LJ?$LL?$AA@ 10083bb4     krnln_static:DBERR.OBJ
 0003:00009bc4       ??_C@_0N@JDMK@?$LM?S?K?x?N?D?$LM?$PO?J?$KH?$LA?$NM?$AA@ 10083bc4     krnln_static:DBERR.OBJ
 0003:00009bd4       ??_C@_0BH@LFOA@?$LH?C?N?J?N?D?$LM?$PO?J?$LB?$LC?z?I?z?$LJ?$LC?O?m?$LD?e?M?$LL?$AA@ 10083bd4     krnln_static:DBERR.OBJ
 0003:00009bec       ??_C@_0BH@NFAL@?$LH?C?N?J?N?D?$LM?$PO?J?$LB?S?$LC?$LM?$PO?$LC?z?I?z?$LJ?J?U?O?$AA@ 10083bec     krnln_static:DBERR.OBJ
 0003:00009c04       ??_C@_0BB@POKL@?N?D?$LM?$PO?V?$LI?U?k?$LG?$KI?N?$LL?J?$KH?$LA?$NM?$AA@ 10083c04     krnln_static:DBERR.OBJ
 0003:00009c18       ??_C@_0N@IIGN@?$LE?$LE?$LN?$KI?D?$LP?B?$LM?$LJ?$PN?$LG?$OA?$AA@ 10083c18     krnln_static:DBERR.OBJ
 0003:00009c28       ??_C@_0BF@EPLE@?$LC?$LL?D?$NM?I?$LO?$LD?$PN?O?V?P?P?$LJ?$KE?W?w?D?$LP?B?$LM?$AA@ 10083c28     krnln_static:DBERR.OBJ
 0003:00009c40       ??_C@_0N@JOLF@?N?$NO?P?$KH?$LF?D?N?D?$LM?$PO?$LK?E?$AA@ 10083c40     krnln_static:DBERR.OBJ
 0003:00009c50       ??_C@_0BD@KHDE@?V?$LI?$LG?$KI?N?D?$LM?$PO?$LC?$LL?D?$NM?$LB?$LL?$LH?C?N?J?$AA@ 10083c50     krnln_static:DBERR.OBJ
 0003:00009c64       ??_C@_0N@JIMF@?$LE?r?$LP?$KK?N?D?$LM?$PO?$LJ?$PN?$LG?$OA?$AA@ 10083c64     krnln_static:DBERR.OBJ
 0003:00009c74       ??_C@_0L@ONEI@?N?$NO?P?$KH?$LF?D?B?$LH?$LO?$LG?$AA@ 10083c74     krnln_static:DBERR.OBJ
 0003:00009c80       ??_C@_0P@KNKI@?V?$LI?$LG?$KI?N?D?$LM?$PO?N?$LE?U?R?$LF?$LN?$AA@ 10083c80     krnln_static:DBERR.OBJ
 0003:00009c90       ??_C@_0P@OHIP@?$LE?$LE?$LN?$KI?J?$PN?$LO?$NN?$LP?b?J?$KH?$LA?$NM?$AA@ 10083c90     krnln_static:DBERR.OBJ
 0003:00009ca0       ??_C@_08LMHB@?N?$LE?V?$KK?$LE?m?N?s?$AA@ 10083ca0     krnln_static:DBERR.OBJ
 0003:00009cac       ??_C@_0O@CJOK@CColourPicker?$AA@ 10083cac     krnln_static:Clrpkr.obj
 0003:00009cbc       ??_C@_0M@HAAP@?F?d?K?$PM?Q?U?I?$KL?4?4?4?$AA@ 10083cbc     krnln_static:Clrpkr.obj
 0003:00009cc8       ??_C@_04OMKF@data?$AA@     10083cc8     krnln_static:wave.obj
 0003:00009cd0       ??_C@_04HBLJ@fmt?5?$AA@    10083cd0     krnln_static:wave.obj
 0003:00009cd8       ??_C@_04DOFO@WAVE?$AA@     10083cd8     krnln_static:wave.obj
 0003:00009ce0       ??_C@_04ILOB@RIFF?$AA@     10083ce0     krnln_static:wave.obj
 0003:00009ce8       ??_C@_0BI@MIAD@?T?X?H?k?$LE?$LA?$LP?Z?D?$KD?$LA?e?J?$PN?$LO?$NN?$LG?N?$LD?v?$LE?m?$CB?$AA@ 10083ce8     krnln_static:static_lib.obj
 0003:00009d40       ??_C@_02JDLK@?$CFx?$AA@    10083d40     krnln_static:md5.obj
 0003:00009d44       ??_C@_03PAAF@0?$CFx?$AA@   10083d44     krnln_static:md5.obj
 0003:00009d48       ??_C@_02EEGL@00?$AA@       10083d48     krnln_static:md5.obj
 0003:00009d4c       ??_C@_0BE@OFKF@?$LC?$LL?D?$NM?$LE?r?$LP?$KK?$LE?r?S?$KB?$LL?z?I?h?$LB?$LI?4?$AA@ 10083d4c     krnln_static:PrinterSetup.obj
 0003:00009d60       ??_C@_0BG@GCEF@?G?k?Q?$KB?T?q?S?$PL?$LE?r?S?$KB?$LF?$LN?N?D?$LM?$PO?C?$PL?3?$AA@ 10083d60     krnln_static:PrinterSetup.obj
 0003:00009d78       ??_C@_07NNEC@out?4prn?$AA@ 10083d78     krnln_static:PrinterSetup.obj
 0003:00009d80       ??_C@_0CP@GKOF@?N?$NO?$AA?I?O?$LB?$NP?W?s?$AA?I?O?$LB?$NP?V?P?$AA?I?O?$LB?$NP?S?R?$AA?O?B?$LB?$NP?W?s?$AA?O@ 10083d80     krnln_static:PrinterSetup.obj
 0003:00009db0       ??_C@_0CH@KLAK@?$LE?r?S?$KB?H?$KL?$LC?$LP?R?$LD?$AA?$LN?v?$LE?r?S?$KB?F?f?J?$PN?R?$LD?$AA?$LN?v?$LE?r?S?$KB?E?$LM@ 10083db0     krnln_static:PrinterSetup.obj
 0003:00009dd8       ??_C@_09IJGO@?$LN?a?J?x?R?$LD?$LK?E?3?$AA@ 10083dd8     krnln_static:PrinterSetup.obj
 0003:00009de4       ??_C@_09FIBF@?$LN?a?J?x?P?P?$LK?E?3?$AA@ 10083de4     krnln_static:PrinterSetup.obj
 0003:00009df0       ??_C@_09NGDF@?F?p?J?$LM?R?$LD?$LK?E?3?$AA@ 10083df0     krnln_static:PrinterSetup.obj
 0003:00009dfc       ??_C@_09HEO@?F?p?J?$LM?P?P?$LK?E?3?$AA@ 10083dfc     krnln_static:PrinterSetup.obj
 0003:00009e08       ??_C@_05LFKM@?$CFd?4?$CFd?$AA@ 10083e08     krnln_static:PrinterSetup.obj
 0003:00009e60       ??_C@_04LEJI@?M?K?$LD?v?$AA@ 10083e60     krnln_static:PreviewDlg.obj
 0003:00009e68       ??_C@_04OBLB@?$LF?H?$LI?$NP?$AA@ 10083e68     krnln_static:PreviewDlg.obj
 0003:00009e70       ??_C@_04COFK@?$LF?H?$LP?m?$AA@ 10083e70     krnln_static:PreviewDlg.obj
 0003:00009e78       ??_C@_04GJFE@?K?u?P?$KB?$AA@ 10083e78     krnln_static:PreviewDlg.obj
 0003:00009e80       ??_C@_04GCBG@?$LH?E?$LE?s?$AA@ 10083e80     krnln_static:PreviewDlg.obj
 0003:00009e88       ??_C@_08EEBK@?$LF?$LN?V?$LI?$LG?$KI?R?$LD?$AA@ 10083e88     krnln_static:PreviewDlg.obj
 0003:00009e94       ??_C@_04PAMJ@?O?B?R?$LD?$AA@ 10083e94     krnln_static:PreviewDlg.obj
 0003:00009e9c       ??_C@_04KFNM@?I?O?R?$LD?$AA@ 10083e9c     krnln_static:PreviewDlg.obj
 0003:00009ea4       ??_C@_08IOPL@?$LE?r?S?$KB?I?h?V?C?$AA@ 10083ea4     krnln_static:PreviewDlg.obj
 0003:00009eb0       ??_C@_04JHAC@?$LE?r?S?$KB?$AA@ 10083eb0     krnln_static:PreviewDlg.obj
 0003:00009eb8       ??_C@_07DEMH@?$CFd?5?1?5?$CFd?$AA@ 10083eb8     krnln_static:PreviewDlg.obj
 0003:00009ec0       ??_C@_0L@HBJA@?$LE?r?S?$KB?R?$LD?J?$KH?$LA?$NM?$AA@ 10083ec0     krnln_static:PrintStatusDlg.obj
 0003:00009ecc       ??_C@_0CD@CNP@?U?$PN?T?Z?$LE?r?S?$KB?$LF?Z?5?$CFd?1?$CFd?5?$LH?$NN?5?$CFd?1?$CFd?5?R?$LD?$LF?$LN?5?$CF@ 10083ecc     krnln_static:PrintStatusDlg.obj
 0003:00009ef0       ??_C@_0BB@PGNG@?$LE?$LE?$LN?$KI?$LE?r?S?$KB?W?w?R?$LF?J?$KH?$LA?$NM?$AA@ 10083ef0     krnln_static:PrintStatusDlg.obj
 0003:00009f04       ??_C@_0BD@BLJI@?N?$NO?$LH?$KI?$LE?$LE?$LN?$KI?$LE?r?S?$KB?$LL?z?I?h?$LB?$LI?$AA@ 10083f04     krnln_static:PrintStatusDlg.obj
 0003:00009f18       ??_C@_06JJEO@?$LE?r?S?$KB?$LL?z?$AA@ 10083f18     krnln_static:PrintStatusDlg.obj
 0003:00009f20       ??_C@_06POJK@?N?D?$LM?$PO?3?5?$AA@ 10083f20     krnln_static:PrintStatusDlg.obj
 0003:00009f28       ??_C@_0BJ@INBD@?N?$LE?V?$LI?$LG?$KI?S?$PL?$LE?r?S?$KB?$LF?$LN?$LF?D?N?D?$LM?$PO?C?$PL?$LD?F?$AA@ 10083f28     krnln_static:PrintStatusDlg.obj
 0003:00009f44       ??_C@_04LOMG@?$LB?$KI?$LB?m?$AA@ 10083f44     krnln_static:PrintStatusDlg.obj
 0003:00009f50       ?m_crColours@CColourPopup@@2PAUColourTableEntry@@A 10083f50     krnln_static:Clrpopup.obj
 0003:0000a050       ??_C@_04DEKB@?I?n?$LL?R?$AA@ 10084050     krnln_static:Clrpopup.obj
 0003:0000a058       ??_C@_04MFJB@?$NM?$LN?$LK?l?$AA@ 10084058     krnln_static:Clrpopup.obj
 0003:0000a060       ??_C@_04HJBL@?L?R?$LK?l?$AA@ 10084060     krnln_static:Clrpopup.obj
 0003:0000a068       ??_C@_04FCPN@?$LD?H?$LL?F?$AA@ 10084068     krnln_static:Clrpopup.obj
 0003:0000a070       ??_C@_04HLJG@?G?$OA?$MA?$LG?$AA@ 10084070     krnln_static:Clrpopup.obj
 0003:0000a078       ??_C@_04NKKJ@?$LL?R?B?L?$AA@ 10084078     krnln_static:Clrpopup.obj
 0003:0000a080       ??_C@_04OGBP@?L?l?$MA?$LG?$AA@ 10084080     krnln_static:Clrpopup.obj
 0003:0000a088       ??_C@_04BMEL@?W?O?I?$KL?$AA@ 10084088     krnln_static:Clrpopup.obj
 0003:0000a090       ??_C@_04GHJL@?R?x?$LA?W?$AA@ 10084090     krnln_static:Clrpopup.obj
 0003:0000a098       ??_C@_04NEPE@?D?$NL?$LL?F?$AA@ 10084098     krnln_static:Clrpopup.obj
 0003:0000a0a0       ??_C@_04FFDI@?$LH?$NL?$LK?l?$AA@ 100840a0     krnln_static:Clrpopup.obj
 0003:0000a0a8       ??_C@_04LLHF@?$LL?F?$LK?V?$AA@ 100840a8     krnln_static:Clrpopup.obj
 0003:0000a0b0       ??_C@_04JAF@?G?$OA?B?L?$AA@ 100840b0     krnln_static:Clrpopup.obj
 0003:0000a0b8       ??_C@_04GDMC@?D?$NL?B?L?$AA@ 100840b8     krnln_static:Clrpopup.obj
 0003:0000a0c0       ??_C@_04JDGA@?$LC?X?$MA?$LG?$AA@ 100840c0     krnln_static:Clrpopup.obj
 0003:0000a0c8       ??_C@_04PBG@?$MA?$LG?$LL?R?$AA@ 100840c8     krnln_static:Clrpopup.obj
 0003:0000a0d0       ??_C@_04KJON@?$LA?W?I?$KL?$AA@ 100840d0     krnln_static:Clrpopup.obj
 0003:0000a0d8       ??_C@_04JPPH@?$LL?F?I?$KL?$AA@ 100840d8     krnln_static:Clrpopup.obj
 0003:0000a0e0       ??_C@_04MEBM@?F?$LH?$LK?l?$AA@ 100840e0     krnln_static:Clrpopup.obj
 0003:0000a0e8       ??_C@_04MMOI@?$LK?l?I?$KL?$AA@ 100840e8     krnln_static:Clrpopup.obj
 0003:0000a0f0       ??_C@_04HMLB@?Q?$NO?G?$OA?$AA@ 100840f0     krnln_static:Clrpopup.obj
 0003:0000a0f8       ??_C@_04PEL@?B?L?I?$KL?$AA@ 100840f8     krnln_static:Clrpopup.obj
 0003:0000a100       ??_C@_04JHGC@?$MA?$LG?I?$KL?$AA@ 10084100     krnln_static:Clrpopup.obj
 0003:0000a108       ??_C@_04PGMH@?$LL?R?I?$KL?$AA@ 10084108     krnln_static:Clrpopup.obj
 0003:0000a110       ??_C@_04OPOE@?G?$LD?$LL?R?$AA@ 10084110     krnln_static:Clrpopup.obj
 0003:0000a118       ??_C@_04LHKB@?$LK?V?B?L?$AA@ 10084118     krnln_static:Clrpopup.obj
 0003:0000a120       ??_C@_04MCMP@?W?O?$LK?l?$AA@ 10084120     krnln_static:Clrpopup.obj
 0003:0000a128       ??_C@_04OIGK@?$LK?l?$LK?V?$AA@ 10084128     krnln_static:Clrpopup.obj
 0003:0000a130       ??_C@_04GALP@?I?n?G?$OA?$AA@ 10084130     krnln_static:Clrpopup.obj
 0003:0000a138       ??_C@_04IFNH@?D?$KL?B?L?$AA@ 10084138     krnln_static:Clrpopup.obj
 0003:0000a140       ??_C@_04BPH@?$LC?X?G?$OA?$AA@ 10084140     krnln_static:Clrpopup.obj
 0003:0000a148       ??_C@_04EDCA@?$LK?Z?I?$KL?$AA@ 10084148     krnln_static:Clrpopup.obj
 0003:0000a150       ??_C@_0BG@LNGG@Bogus?5message?5code?5?$CFd?$AA@ 10084150     krnln_static:JERROR.OBJ
 0003:0000a168       ??_C@_0BL@EODA@?G?k?J?d?H?k?S?$PL?L?x?W?$KK?$LF?$LN?R?$LD?$LK?E?$CI?$CFd?9?$CFd?$CJ?3?$AA@ 10084168     krnln_static:GotoPageDlg.obj
 0003:0000a184       ??_C@_05HLOL@?$CFld?$CFc?$AA@ 10084184     krnln_static:JMEMMGR.OBJ
 0003:0000a18c       ??_C@_07CBHP@JPEGMEM?$AA@  1008418c     krnln_static:JMEMMGR.OBJ
 0003:0000a1d4       dp1_??_C@_05NLJN@1?41?43?$AA@_3 100841d4     dp1_static:compress.obj
 0003:0000a1dc       dp1_??_C@_05NLJN@1?41?43?$AA@_0 100841dc     dp1_static:uncompr.obj
 0003:0000a254       dp1_??_C@_05NLJN@1?41?43?$AA@_2 10084254     dp1_static:deflate.obj
 0003:0000a25c       dp1_??_C@_05NLJN@1?41?43?$AA@_1 1008425c     dp1_static:inflate.obj
 0003:0000a264       dp1_??_C@_0BA@FKCH@need?5dictionary?$AA@_0 10084264     dp1_static:inflate.obj
 0003:0000a274       dp1_??_C@_0BF@OBFI@incorrect?5data?5check?$AA@ 10084274     dp1_static:inflate.obj
 0003:0000a28c       dp1_??_C@_0BH@NLIB@incorrect?5header?5check?$AA@ 1008428c     dp1_static:inflate.obj
 0003:0000a2a4       dp1_??_C@_0BE@FAJE@invalid?5window?5size?$AA@ 100842a4     dp1_static:inflate.obj
 0003:0000a2b8       dp1_??_C@_0BL@KPEJ@unknown?5compression?5method?$AA@ 100842b8     dp1_static:inflate.obj
 0003:0000abd4       dp1__z_errmsg              10084bd4     dp1_static:zutil.obj
 0003:0000abfc       dp1_??_C@_0BF@HPBB@incompatible?5version?$AA@ 10084bfc     dp1_static:zutil.obj
 0003:0000ac14       dp1_??_C@_0N@EHHN@buffer?5error?$AA@ 10084c14     dp1_static:zutil.obj
 0003:0000ac24       dp1_??_C@_0BE@EMHE@insufficient?5memory?$AA@ 10084c24     dp1_static:zutil.obj
 0003:0000ac38       dp1_??_C@_0L@EBEB@data?5error?$AA@ 10084c38     dp1_static:zutil.obj
 0003:0000ac44       dp1_??_C@_0N@OPOA@stream?5error?$AA@ 10084c44     dp1_static:zutil.obj
 0003:0000ac54       dp1_??_C@_0L@DFEP@file?5error?$AA@ 10084c54     dp1_static:zutil.obj
 0003:0000ac60       dp1_??_C@_0L@JPFB@stream?5end?$AA@ 10084c60     dp1_static:zutil.obj
 0003:0000ac6c       dp1_??_C@_0BA@FKCH@need?5dictionary?$AA@ 10084c6c     dp1_static:zutil.obj
 0003:0000acc4       dp1_??_C@_0BK@BNJN@invalid?5bit?5length?5repeat?$AA@ 10084cc4     dp1_static:infblock.obj
 0003:0000ace0       dp1_??_C@_0CE@LAKP@too?5many?5length?5or?5distance?5symb@ 10084ce0     dp1_static:infblock.obj
 0003:0000ad04       dp1_??_C@_0BN@DBOJ@invalid?5stored?5block?5lengths?$AA@ 10084d04     dp1_static:infblock.obj
 0003:0000ad24       dp1_??_C@_0BD@IFBC@invalid?5block?5type?$AA@ 10084d24     dp1_static:infblock.obj
 0003:0000ad38       dp1_??_C@_0BG@EGK@invalid?5distance?5code?$AA@_0 10084d38     dp1_static:infcodes.obj
 0003:0000ad50       dp1_??_C@_0BM@CHJP@invalid?5literal?1length?5code?$AA@_0 10084d50     dp1_static:infcodes.obj
 0003:0000be78       dp1_??_C@_0CE@MFNM@incomplete?5dynamic?5bit?5lengths?5t@ 10085e78     dp1_static:inftrees.obj
 0003:0000be9c       dp1_??_C@_0CI@BBGL@oversubscribed?5dynamic?5bit?5lengt@ 10085e9c     dp1_static:inftrees.obj
 0003:0000bec4       dp1_??_C@_0BP@KPP@incomplete?5literal?1length?5tree?$AA@ 10085ec4     dp1_static:inftrees.obj
 0003:0000bee4       dp1_??_C@_0CD@ODII@oversubscribed?5literal?1length?5tr@ 10085ee4     dp1_static:inftrees.obj
 0003:0000bf08       dp1_??_C@_0CB@INA@empty?5distance?5tree?5with?5lengths@ 10085f08     dp1_static:inftrees.obj
 0003:0000bf2c       dp1_??_C@_0BJ@NKOC@incomplete?5distance?5tree?$AA@ 10085f2c     dp1_static:inftrees.obj
 0003:0000bf48       dp1_??_C@_0BN@OAAG@oversubscribed?5distance?5tree?$AA@ 10085f48     dp1_static:inftrees.obj
 0003:0000bf68       dp1__inflate_mask          10085f68     dp1_static:infutil.obj
 0003:0000bfac       dp1_??_C@_0BM@CHJP@invalid?5literal?1length?5code?$AA@ 10085fac     dp1_static:inffast.obj
 0003:0000bfc8       dp1_??_C@_0BG@EGK@invalid?5distance?5code?$AA@ 10085fc8     dp1_static:inffast.obj
 0003:0000c028       spec_??_C@_0L@GMHC@?J?$LB?$LM?d?$LF?$LN?N?D?$LB?$LO?$AA@ 10086028     spec_static:spec.obj
 0003:0000c034       spec_??_C@_04HIBP@?$LM?l?$LC?i?$AA@ 10086034     spec_static:spec.obj
 0003:0000c03c       spec_??_C@_0N@GMDM@?J?d?$LD?v?$LF?w?J?T?N?D?$LB?$LO?$AA@ 1008603c     spec_static:spec.obj
 0003:0000c04c       ?_afxNewHandler@@3P6AHI@ZA 1008604c     nafxcw:afxmem.obj
 0003:0000c050       ?_afxPchNil@@3PBDB         10086050     nafxcw:strcore.obj
 0003:0000c054       ?_afxDataNil@@3PAUCStringData@@A 10086054     nafxcw:strcore.obj
 0003:0000c058       ?_afxInitData@@3PAHA       10086058     nafxcw:strcore.obj
 0003:0000c068       ?_afxMonthDays@@3PAHA      10086068     nafxcw:olevar.obj
 0003:0000c0a0       ??_R0PAX@8                 100860a0     nafxcw:except.obj
 0003:0000c0b0       ??_R0PAVCObject@@@8        100860b0     nafxcw:except.obj
 0003:0000c0c8       ??_R0PAVCSimpleException@@@8 100860c8     nafxcw:except.obj
 0003:0000c0e8       ??_R0PAVCMemoryException@@@8 100860e8     nafxcw:except.obj
 0003:0000c108       ??_R0?AVCObject@@@8        10086108     nafxcw:except.obj
 0003:0000c120       ??_R0?AVCException@@@8     10086120     nafxcw:except.obj
 0003:0000c140       ??_R0?AVCSimpleException@@@8 10086140     nafxcw:except.obj
 0003:0000c160       ??_R0?AVCMemoryException@@@8 10086160     nafxcw:except.obj
 0003:0000c180       ??_R0?AVCNotSupportedException@@@8 10086180     nafxcw:except.obj
 0003:0000c1a8       ??_R0?AVCFile@@@8          100861a8     nafxcw:filecore.obj
 0003:0000c1c0       ??_R0?AVCFileException@@@8 100861c0     nafxcw:filecore.obj
 0003:0000c1e0       ??_R0?AVCMemFile@@@8       100861e0     nafxcw:filemem.obj
 0003:0000c1f8       ??_R0?AVCDC@@@8            100861f8     nafxcw:wingdi.obj
 0003:0000c210       ??_R0?AVCClientDC@@@8      10086210     nafxcw:wingdi.obj
 0003:0000c228       ??_R0?AVCWindowDC@@@8      10086228     nafxcw:wingdi.obj
 0003:0000c240       ??_R0?AVCPaintDC@@@8       10086240     nafxcw:wingdi.obj
 0003:0000c258       ??_R0?AVCGdiObject@@@8     10086258     nafxcw:wingdi.obj
 0003:0000c278       ??_R0?AVCPen@@@8           10086278     nafxcw:wingdi.obj
 0003:0000c290       ??_R0?AVCBrush@@@8         10086290     nafxcw:wingdi.obj
 0003:0000c2a8       ??_R0?AVCTempDC@@@8        100862a8     nafxcw:wingdi.obj
 0003:0000c2c0       ??_R0?AVCTempGdiObject@@@8 100862c0     nafxcw:wingdi.obj
 0003:0000c2e0       ??_R0PAVCResourceException@@@8 100862e0     nafxcw:wingdi.obj
 0003:0000c308       ??_R0PAVCUserException@@@8 10086308     nafxcw:wingdi.obj
 0003:0000c328       ??_R0?AVCResourceException@@@8 10086328     nafxcw:wingdi.obj
 0003:0000c350       ??_R0?AVCUserException@@@8 10086350     nafxcw:wingdi.obj
 0003:0000c370       ??_R0?AVCCmdTarget@@@8     10086370     nafxcw:dlgcore.obj
 0003:0000c390       ??_R0?AVCWnd@@@8           10086390     nafxcw:dlgcore.obj
 0003:0000c3a8       ??_R0?AVCDialog@@@8        100863a8     nafxcw:dlgcore.obj
 0003:0000c3c0       ??_R0?AVCCmdUI@@@8         100863c0     nafxcw:wincore.obj
 0003:0000c3d8       ??_R0?AVCTestCmdUI@@@8     100863d8     nafxcw:wincore.obj
 0003:0000c3f8       ??_R0?AVCTempWnd@@@8       100863f8     nafxcw:wincore.obj
 0003:0000c410       ??_R0?AVCNoTrackObject@@@8 10086410     nafxcw:wincore.obj
 0003:0000c430       ??_R0?AV_AFX_CTL3D_STATE@@@8 10086430     nafxcw:wincore.obj
 0003:0000c450       ??_R0?AVCPtrArray@@@8      10086450     nafxcw:array_p.obj
 0003:0000c468       ??_R0?AVCStatic@@@8        10086468     nafxcw:winctrl1.obj
 0003:0000c480       ??_R0?AVCButton@@@8        10086480     nafxcw:winctrl1.obj
 0003:0000c498       ??_R0?AVCComboBox@@@8      10086498     nafxcw:winctrl1.obj
 0003:0000c4b0       ??_R0?AVCEdit@@@8          100864b0     nafxcw:winctrl1.obj
 0003:0000c4c8       ??_R0?AV_AFX_CHECKLIST_STATE@@@8 100864c8     nafxcw:winctrl3.obj
 0003:0000c4f0       ??_R0?AVCBitmap@@@8        100864f0     nafxcw:winctrl3.obj
 0003:0000c508       ??_R0?AVCRgn@@@8           10086508     nafxcw:wingdix.obj
 0003:0000c520       ??_R0?AVCCommonDialog@@@8  10086520     nafxcw:dlgprnt.obj
 0003:0000c540       ??_R0?AVCFileDialog@@@8    10086540     nafxcw:dlgfile.obj
 0003:0000c560       ??_R0?AV_AFX_THREAD_STATE@@@8 10086560     nafxcw:afxstate.obj
 0003:0000c580       ??_R0?AVAFX_MODULE_STATE@@@8 10086580     nafxcw:afxstate.obj
 0003:0000c5a0       ??_R0?AVAFX_MODULE_THREAD_STATE@@@8 100865a0     nafxcw:afxstate.obj
 0003:0000c5c8       ??_R0?AV_AFX_BASE_MODULE_STATE@@@8 100865c8     nafxcw:afxstate.obj
 0003:0000c5f0       ?classCStringArray@CStringArray@@2UCRuntimeClass@@A 100865f0     nafxcw:array_s.obj
 0003:0000c608       ??_R0?AVCStringArray@@@8   10086608     nafxcw:array_s.obj
 0003:0000c628       ??_R0?AUCThreadData@@@8    10086628     nafxcw:afxtls.obj
 0003:0000c644       ?bStaticInit@CDocManager@@2HA 10086644     nafxcw:appcore.obj
 0003:0000c648       ??_R0?AV_AFX_WIN_STATE@@@8 10086648     nafxcw:appcore.obj
 0003:0000c668       ??_R0?AVCWinThread@@@8     10086668     nafxcw:appcore.obj
 0003:0000c688       ??_R0?AVCWinApp@@@8        10086688     nafxcw:appcore.obj
 0003:0000c6a0       ??_R0?AVCProgressCtrl@@@8  100866a0     nafxcw:winctrl2.obj
 0003:0000c6c0       ??_R0?AVCImageList@@@8     100866c0     nafxcw:winctrl2.obj
 0003:0000c6e0       ??_R0?AVCTempImageList@@@8 100866e0     nafxcw:winctrl2.obj
 0003:0000c700       ??_R0PAVCArchiveException@@@8 10086700     nafxcw:arccore.obj
 0003:0000c720       ??_R0?AVCArchiveException@@@8 10086720     nafxcw:arcex.obj
 0003:0000c740       ?_dispatchEntryCount@CCmdTarget@@0IA 10086740     nafxcw:cmdtarg.obj
 0003:0000c744       ?_dwStockPropMask@CCmdTarget@@0KA 10086744     nafxcw:cmdtarg.obj
 0003:0000c748       ?_eventsinkEntryCount@CCmdTarget@@0IA 10086748     nafxcw:cmdtarg.obj
 0003:0000c750       ??_R0?AV_AFX_CTL3D_THREAD@@@8 10086750     nafxcw:thrdcore.obj
 0003:0000c770       ?classCDWordArray@CDWordArray@@2UCRuntimeClass@@A 10086770     nafxcw:array_d.obj
 0003:0000c788       ??_R0?AVCDWordArray@@@8    10086788     nafxcw:array_d.obj
 0003:0000c7a8       ?classCWordArray@CWordArray@@2UCRuntimeClass@@A 100867a8     nafxcw:array_w.obj
 0003:0000c7c0       ??_R0?AVCWordArray@@@8     100867c0     nafxcw:array_w.obj
 0003:0000c7e0       ??_R0?AVCMenu@@@8          100867e0     nafxcw:winmenu.obj
 0003:0000c7f8       ??_R0?AVCTempMenu@@@8      100867f8     nafxcw:winmenu.obj
 0003:0000c810       ??_R0?AVCMapPtrToPtr@@@8   10086810     nafxcw:map_pp.obj
 0003:0000c830       ??_R0?AVCToolTipCtrl@@@8   10086830     nafxcw:tooltip.obj
 0003:0000c850       ??_R0?AV_AFX_COLOR_STATE@@@8 10086850     nafxcw:dlgclr.obj
 0003:0000c870       ??_R0?AVCColorDialog@@@8   10086870     nafxcw:dlgclr.obj
 0003:0000c890       ??_R0?AVCHandleMap@@@8     10086890     nafxcw:winhand.obj
 0003:0000c8b0       ??_R0?AVCMapStringToPtr@@@8 100868b0     nafxcw:map_sp.obj
 0003:0000c8d0       __aexit_rtn                100868d0     libcmt:dllcrt0.obj
 0003:0000c8d4       __fltused                  100868d4     libcmt:fpinit.obj
 0003:0000c8d8       __ldused                   100868d8     libcmt:fpinit.obj
 0003:0000c8dc       __FPinit                   100868dc     libcmt:fpinit.obj
 0003:0000c8e0       __FPmtinit                 100868e0     libcmt:fpinit.obj
 0003:0000c8e4       __FPmtterm                 100868e4     libcmt:fpinit.obj
 0003:0000c8f0       __half                     100868f0     libcmt:pow.obj
 0003:0000c900       __OP_FMODjmptab            10086900     libcmt:87fmod.obj
 0003:0000c954       __NLG_Destination          10086954     libcmt:exsup.obj
 0003:0000c970       ??_R0?AVtype_info@@@8      10086970     libcmt:typinfo.obj
 0003:0000c990       __iob                      10086990     libcmt:_file.obj
 0003:0000cc10       ?__pMyUnhandledExceptionFilter@@3PAXA 10086c10     libcmt:throw.obj
 0003:0000cc18       ___lc_time_curr            10086c18     libcmt:strftime.obj
 0003:0000cc20       ___lc_time_c               10086c20     libcmt:strftime.obj
 0003:0000cf30       ___tlsindex                10086f30     libcmt:tidtable.obj
 0003:0000cf38       ___badioinfo               10086f38     libcmt:ioinit.obj
 0003:0000cf5c       __amblksiz                 10086f5c     libcmt:heapinit.obj
 0003:0000cff0       __cfltcvt_tab              10086ff0     libcmt:cmiscdat.obj
 0003:0000d010       __infinity                 10087010     libcmt:87tran.obj
 0003:0000d01a       __minfinity                1008701a     libcmt:87tran.obj
 0003:0000d024       __logemax                  10087024     libcmt:87tran.obj
 0003:0000d04a       __OP_EXPjmptab             1008704a     libcmt:87tran.obj
 0003:0000d070       __indefinite               10087070     libcmt:87disp.obj
 0003:0000d07a       __piby2                    1008707a     libcmt:87disp.obj
 0003:0000d178       __d_inf                    10087178     libcmt:util.obj
 0003:0000d180       __d_ind                    10087180     libcmt:util.obj
 0003:0000d188       __d_max                    10087188     libcmt:util.obj
 0003:0000d190       __d_min                    10087190     libcmt:util.obj
 0003:0000d198       __d_mzero                  10087198     libcmt:util.obj
 0003:0000d320       __locktable                10087320     libcmt:mlock.obj
 0003:0000d3f0       ?__pInconsistency@@3P6AXXZA 100873f0     libcmt:hooks.obj
 0003:0000d3f4       __pctype                   100873f4     libcmt:ctype.obj
 0003:0000d3f8       __pwctype                  100873f8     libcmt:ctype.obj
 0003:0000d3fc       __ctype                    100873fc     libcmt:ctype.obj
 0003:0000d600       ___mb_cur_max              10087600     libcmt:nlsdata1.obj
 0003:0000d604       ___decimal_point           10087604     libcmt:nlsdata1.obj
 0003:0000d608       ___decimal_point_length    10087608     libcmt:nlsdata1.obj
 0003:0000d610       ___old_small_block_heap    10087610     libcmt:sbheap.obj
 0003:0000f634       ___old_sbh_threshold       10089634     libcmt:sbheap.obj
 0003:0000f638       ___nullstring              10089638     libcmt:output.obj
 0003:0000f63c       ___wnullstring             1008963c     libcmt:output.obj
 0003:0000f760       __timezone                 10089760     libcmt:timeset.obj
 0003:0000f764       __daylight                 10089764     libcmt:timeset.obj
 0003:0000f768       __dstbias                  10089768     libcmt:timeset.obj
 0003:0000f7ec       __tzname                   100897ec     libcmt:timeset.obj
 0003:0000f818       __XcptActTab               10089818     libcmt:winxfltr.obj
 0003:0000f890       __First_FPE_Indx           10089890     libcmt:winxfltr.obj
 0003:0000f894       __Num_FPE                  10089894     libcmt:winxfltr.obj
 0003:0000f898       __XcptActTabSize           10089898     libcmt:winxfltr.obj
 0003:0000f89c       __XcptActTabCount          1008989c     libcmt:winxfltr.obj
 0003:0000f8a0       __lpdays                   100898a0     libcmt:days.obj
 0003:0000f8d4       __days                     100898d4     libcmt:days.obj
 0003:0000f938       __matherr_flag             10089938     libcmt:matherr.obj
 0003:0000f940       ___lconv_static_decimal    10089940     libcmt:lconv.obj
 0003:0000f948       ___lconv_c                 10089948     libcmt:lconv.obj
 0003:0000f978       ___lconv                   10089978     libcmt:lconv.obj
 0003:0000f980       __pow10pos                 10089980     libcmt:constpow.obj
 0003:0000fae0       __pow10neg                 10089ae0     libcmt:constpow.obj
 0003:0000ff84       __coninpfh                 10089f84     libcmt:initcon.obj
 0003:0000ff88       __confh                    10089f88     libcmt:initcon.obj
 0003:0000ffcc       ?s_DBState@@3V?$CThreadLocal@VCMDBState@@@@A 10089fcc     krnln_static:Libfn.obj
 0003:0000ffd4       ??_C@_00A@?$AA@            10089fd4     krnln_static:Libfn.obj
 0003:00010010       ?_m_membuf@@3UMEM_BUF@@A   1008a010     krnln_static:krnl2.obj
 0003:0001c088       ?g_fnNotifySys@@3P6GHHKK@ZA 10096088     krnln_static:krnl2.obj
 0003:0001c090       ?theApp@@3VCKrnlApp@@A     10096090     krnln_static:Krnl.obj
 0003:0001c6b4       ?s_wRet@@3GA               100966b4     krnln_static:Diskid32.obj
 0003:0001c6b8       ?diskdata@@3PAKA           100966b8     krnln_static:Diskid32.obj
 0003:0001cab8       ?s_cfCellsData@@3GA        10096ab8     krnln_static:MGrid.obj
 0003:0001cae0       ?s_ComState@@3V?$CThreadLocal@VCMComState@@@@A 10096ae0     krnln_static:com.obj
 0003:0001cb18       ?m_nWaitMillisecond@CEDatabase@@2HA 10096b18     krnln_static:Database.obj
 0003:0001cb40       ?gcs@@3U_RTL_CRITICAL_SECTION@@A 10096b40     krnln_static:wave.obj
 0003:0001cb58       ?g_Waves@@3V?$vector@PAUGWAVE@@V?$allocator@PAUGWAVE@@@std@@@std@@A 10096b58     krnln_static:wave.obj
 0003:0001cb9c       dp1_static?g_nLastNotifyResult@@3HA 10096b9c     dp1_static:dp1.obj
 0003:0001cba0       dp1_static?g_fnNotifySys@@3P6GHHKK@ZA 10096ba0     dp1_static:dp1.obj
 0003:0001cec4       dp1_??_C@_00A@?$AA@        10096ec4     dp1_static:zutil.obj
 0003:0001dec8       spec_?g_FuncDatas@@3PAXA   10097ec8     spec_static:spec.obj
 0003:0001decc       spec_?g_ArgCount@@3HA      10097ecc     spec_static:spec.obj
 0003:0001ded0       spec_?g_bIsTiming@@3_NA    10097ed0     spec_static:spec.obj
 0003:0001ded4       spec_?g_TimerID@@3IA       10097ed4     spec_static:spec.obj
 0003:0001ded8       spec_static_g_fnNotifySys  10097ed8     spec_static:fnshare.obj
 0003:0001ff04       ?_afxTermDllState@@3DA     10099f04     nafxcw:dllmodul.obj
 0003:0001ff08       __afxForceUSRDLL           10099f08     nafxcw:dllmodul.obj
 0003:0001ff0c       __afxForceEXCLUDE          10099f0c     nafxcw:nolib.obj
 0003:0001ff10       ?_afxAlloc512@@3VCFixedAlloc@@A 10099f10     nafxcw:strcore.obj
 0003:0001ff38       ?_afxAlloc256@@3VCFixedAlloc@@A 10099f38     nafxcw:strcore.obj
 0003:0001ff60       ?_afxAlloc128@@3VCFixedAlloc@@A 10099f60     nafxcw:strcore.obj
 0003:0001ff88       ?_afxAlloc64@@3VCFixedAlloc@@A 10099f88     nafxcw:strcore.obj
 0003:0001ffb0       ?afxChNil@@3DA             10099fb0     nafxcw:strcore.obj
 0003:0001ffb8       ?_simpleNotSupportedException@@3VCNotSupportedException@@A 10099fb8     nafxcw:except.obj
 0003:00020050       ?_simpleMemoryException@@3VCMemoryException@@A 1009a050     nafxcw:except.obj
 0003:000200f0       ?_simpleUserException@@3VCUserException@@A 1009a0f0     nafxcw:wingdi.obj
 0003:00020188       ?_simpleResourceException@@3VCResourceException@@A 1009a188     nafxcw:wingdi.obj
 0003:00020220       ?s_alloc@CTempGdiObject@@1VCFixedAlloc@@A 1009a220     nafxcw:wingdi.obj
 0003:00020248       ?s_alloc@CTempDC@@1VCFixedAlloc@@A 1009a248     nafxcw:wingdi.obj
 0003:00020274       ?_afxGotScrollLines@@3HA   1009a274     nafxcw:wincore.obj
 0003:00020278       ?_afxMsgCache@@3PAUAFX_MSG_CACHE@@A 1009a278     nafxcw:wincore.obj
 0003:00021a78       ?s_alloc@CTempWnd@@1VCFixedAlloc@@A 1009ba78     nafxcw:wincore.obj
 0003:00021aa0       ?wndNoTopMost@CWnd@@2V1@B  1009baa0     nafxcw:wincore.obj
 0003:00021ae0       ?wndTopMost@CWnd@@2V1@B    1009bae0     nafxcw:wincore.obj
 0003:00021b20       ?wndBottom@CWnd@@2V1@B     1009bb20     nafxcw:wincore.obj
 0003:00021b60       ?wndTop@CWnd@@2V1@B        1009bb60     nafxcw:wincore.obj
 0003:00021b9c       ?m_nMsgDragList@CWnd@@1IB  1009bb9c     nafxcw:wincore.obj
 0003:00021ba0       _g_pfnGetSystemMetrics     1009bba0     nafxcw:wincore.obj
 0003:00021ba4       _g_pfnMonitorFromWindow    1009bba4     nafxcw:wincore.obj
 0003:00021ba8       _g_pfnMonitorFromRect      1009bba8     nafxcw:wincore.obj
 0003:00021bac       _g_pfnMonitorFromPoint     1009bbac     nafxcw:wincore.obj
 0003:00021bb0       _g_pfnGetMonitorInfo       1009bbb0     nafxcw:wincore.obj
 0003:00021bb4       _g_pfnEnumDisplayMonitors  1009bbb4     nafxcw:wincore.obj
 0003:00021bb8       _g_fMultiMonInitDone       1009bbb8     nafxcw:wincore.obj
 0003:00021bbc       ?_afxChecklistState@@3V?$CProcessLocal@V_AFX_CHECKLIST_STATE@@@@A 1009bbbc     nafxcw:winctrl3.obj
 0003:00021bc0       ?_afxHalftoneBrush@@3PAUHBRUSH__@@A 1009bbc0     nafxcw:wingdix.obj
 0003:00021bc4       ?_afxWingdixTerm@@3DA      1009bbc4     nafxcw:wingdix.obj
 0003:00021bc8       ?_afxBaseModuleState@@3V?$CProcessLocal@V_AFX_BASE_MODULE_STATE@@@@A 1009bbc8     nafxcw:afxstate.obj
 0003:00021bcc       ?_afxThreadState@@3V?$CThreadLocal@V_AFX_THREAD_STATE@@@@A 1009bbcc     nafxcw:afxstate.obj
 0003:00021bd0       ?_init_CStringArray@@3UAFX_CLASSINIT@@A 1009bbd0     nafxcw:array_s.obj
 0003:00021bd4       ?_afxTlsRef@@3JA           1009bbd4     nafxcw:afxtls.obj
 0003:00021bd8       ?_afxThreadData@@3PAVCThreadSlotData@@A 1009bbd8     nafxcw:afxtls.obj
 0003:00021bdc       ?__afxThreadData@@3PAEA    1009bbdc     nafxcw:afxtls.obj
 0003:00021c10       ?_afxWinState@@3V?$CProcessLocal@V_AFX_WIN_STATE@@@@A 1009bc10     nafxcw:appcore.obj
 0003:00021c14       ?pStaticDocManager@CDocManager@@2PAV1@A 1009bc14     nafxcw:appcore.obj
 0003:00021c18       ?pStaticList@CDocManager@@2PAVCPtrList@@A 1009bc18     nafxcw:appcore.obj
 0003:00021c28       ?s_alloc@CTempImageList@@1VCFixedAlloc@@A 1009bc28     nafxcw:winctrl2.obj
 0003:00021c50       ?_init_CDWordArray@@3UAFX_CLASSINIT@@A 1009bc50     nafxcw:array_d.obj
 0003:00021c54       ?_init_CWordArray@@3UAFX_CLASSINIT@@A 1009bc54     nafxcw:array_w.obj
 0003:00021c60       ?s_alloc@CTempMenu@@1VCFixedAlloc@@A 1009bc60     nafxcw:winmenu.obj
 0003:00021c88       ?_afxClrState@@3V?$CProcessLocal@V_AFX_COLOR_STATE@@@@A 1009bc88     nafxcw:dlgclr.obj
 0003:00021c8c       ?_afxLockInit@@3PAHA       1009bc8c     nafxcw:afxcrit.obj
 0003:00021cd0       ?_afxLockInitLock@@3U_RTL_CRITICAL_SECTION@@A 1009bcd0     nafxcw:afxcrit.obj
 0003:00021ce8       ?_afxResourceLock@@3PAU_RTL_CRITICAL_SECTION@@A 1009bce8     nafxcw:afxcrit.obj
 0003:00021e80       ?_afxCriticalWin32s@@3HA   1009be80     nafxcw:afxcrit.obj
 0003:00021e84       ?_afxCriticalInit@@3HA     1009be84     nafxcw:afxcrit.obj
 0003:00021e88       ?_afxCtl3dThread@@3V?$CThreadLocal@V_AFX_CTL3D_THREAD@@@@A 1009be88     nafxcw:app3d.obj
 0003:00021e8c       ?_afxCtl3dState@@3V?$CProcessLocal@V_AFX_CTL3D_STATE@@@@A 1009be8c     nafxcw:app3d.obj
 0003:00021e90       ?afxData@@3UAUX_DATA@@A    1009be90     nafxcw:auxdata.obj
 0003:00021efc       ?_afxDBCS@@3HB             1009befc     nafxcw:afxdbcs.obj
 0003:00021f00       ?_afxMsgSETRGB@@3IA        1009bf00     nafxcw:dlgcomm.obj
 0003:00021f04       ?_afxMsgHELP@@3IA          1009bf04     nafxcw:dlgcomm.obj
 0003:00021f08       ?_afxMsgCOLOROK@@3IA       1009bf08     nafxcw:dlgcomm.obj
 0003:00021f0c       ?_afxMsgFILEOK@@3IA        1009bf0c     nafxcw:dlgcomm.obj
 0003:00021f10       ?_afxMsgSHAREVI@@3IA       1009bf10     nafxcw:dlgcomm.obj
 0003:00021f14       ?_afxMsgLBSELCHANGE@@3IA   1009bf14     nafxcw:dlgcomm.obj
 0003:00021f2c       __aenvptr                  1009bf2c     libcmt:dllcrt0.obj
 0003:00021f30       __wenvptr                  1009bf30     libcmt:dllcrt0.obj
 0003:00021f34       ___error_mode              1009bf34     libcmt:dllcrt0.obj
 0003:00021f38       ___app_type                1009bf38     libcmt:dllcrt0.obj
 0003:00021f3c       ___fastflag                1009bf3c     libcmt:fpinit.obj
 0003:00021f40       __adjust_fdiv              1009bf40     libcmt:fpinit.obj
 0003:00021f44       __cflush                   1009bf44     libcmt:_file.obj
 0003:00021f60       __umaskval                 1009bf60     libcmt:crt0dat.obj
 0003:00021f64       __osver                    1009bf64     libcmt:crt0dat.obj
 0003:00021f68       __winver                   1009bf68     libcmt:crt0dat.obj
 0003:00021f6c       __winmajor                 1009bf6c     libcmt:crt0dat.obj
 0003:00021f70       __winminor                 1009bf70     libcmt:crt0dat.obj
 0003:00021f74       ___argc                    1009bf74     libcmt:crt0dat.obj
 0003:00021f78       ___argv                    1009bf78     libcmt:crt0dat.obj
 0003:00021f7c       ___wargv                   1009bf7c     libcmt:crt0dat.obj
 0003:00021f80       __environ                  1009bf80     libcmt:crt0dat.obj
 0003:00021f84       ___initenv                 1009bf84     libcmt:crt0dat.obj
 0003:00021f88       __wenviron                 1009bf88     libcmt:crt0dat.obj
 0003:00021f8c       ___winitenv                1009bf8c     libcmt:crt0dat.obj
 0003:00021f90       __pgmptr                   1009bf90     libcmt:crt0dat.obj
 0003:00021f94       __wpgmptr                  1009bf94     libcmt:crt0dat.obj
 0003:00021f98       __exitflag                 1009bf98     libcmt:crt0dat.obj
 0003:00021f9c       __C_Termination_Done       1009bf9c     libcmt:crt0dat.obj
 0003:00021fa0       __C_Exit_Done              1009bfa0     libcmt:crt0dat.obj
 0003:000220d8       __adbgmsg                  1009c0d8     libcmt:crt0msg.obj
 0003:00022148       __newmode                  1009c148     libcmt:_newmode.obj
 0003:0002214c       ?_pnhHeap@@3P6AHI@ZA       1009c14c     libcmt:handler.obj
 0003:00022150       __stdbuf                   1009c150     libcmt:_sftbuf.obj
 0003:00022164       ___lc_handle               1009c164     libcmt:nlsdata2.obj
 0003:0002217c       ___lc_codepage             1009c17c     libcmt:nlsdata2.obj
 0003:00022180       ___lc_collate_cp           1009c180     libcmt:nlsdata2.obj
 0003:0002225c       ___lc_time_intl            1009c25c     libcmt:inittime.obj
 0003:00022278       ___lc_id                   1009c278     libcmt:nlsdata3.obj
 0003:000222c0       __commode                  1009c2c0     libcmt:ncommode.obj
 0003:000222e4       ___lconv_static_null       1009c2e4     libcmt:lconv.obj
 0003:000222ec       __fmode                    1009c2ec     libcmt:txtmode.obj
 0003:000222fc       spec__g_nLastNotifyResult  1009c2fc     <common>
 0003:00022300       ___setlc_active            1009c300     <common>
 0003:00022304       ___unguarded_readlc_active 1009c304     <common>
 0003:00022308       ___sbh_sizeHeaderList      1009c308     <common>
 0003:0002230c       ___sbh_indGroupDefer       1009c30c     <common>
 0003:00022310       ___sbh_pHeaderScan         1009c310     <common>
 0003:00022314       ___sbh_pHeaderDefer        1009c314     <common>
 0003:00022318       ___sbh_cntHeaderList       1009c318     <common>
 0003:0002231c       ___sbh_pHeaderList         1009c31c     <common>
 0003:00022320       ___sbh_threshold           1009c320     <common>
 0003:00022324       __crtheap                  1009c324     <common>
 0003:00022328       ___active_heap             1009c328     <common>
 0003:00022340       ___pioinfo                 1009c340     <common>
 0003:00022440       __nhandle                  1009c440     <common>
 0003:00022444       ___mbcodepage              1009c444     <common>
 0003:00022450       ___mbulinfo                1009c450     <common>
 0003:0002245c       ___ismbcodepage            1009c45c     <common>
 0003:00022460       __mbcasemap                1009c460     <common>
 0003:00022560       __mbctype                  1009c560     <common>
 0003:00022664       ___mblcid                  1009c664     <common>
 0003:00022668       ___env_initialized         1009c668     <common>
 0003:0002266c       ___mbctype_initialized     1009c66c     <common>
 0003:00022670       ___onexitend               1009c670     <common>
 0003:00022674       ___onexitbegin             1009c674     <common>
 0003:00022678       ___piob                    1009c678     <common>
 0003:00022680       __bufin                    1009c680     <common>
 0003:00023680       __nstream                  1009d680     <common>
 0003:00023684       __acmdln                   1009d684     <common>
 0003:00023688       __pRawDllMain              1009d688     <common>

 entry point at        0001:00049481

 Static symbols

 0001:00040700       ?create_colormap@@YAXPAUjpeg_decompress_struct@@@Z 10041700 f   krnln_static:JQUANT1.OBJ
 0001:00040850       ?select_ncolors@@YAHPAUjpeg_decompress_struct@@QAH@Z 10041850 f   krnln_static:JQUANT1.OBJ
 0001:00040930       ?output_value@@YAHPAUjpeg_decompress_struct@@HHH@Z 10041930 f   krnln_static:JQUANT1.OBJ
 0001:00040950       ?create_colorindex@@YAXPAUjpeg_decompress_struct@@@Z 10041950 f   krnln_static:JQUANT1.OBJ
 0001:00040a90       ?largest_input_value@@YAHPAUjpeg_decompress_struct@@HHH@Z 10041a90 f   krnln_static:JQUANT1.OBJ
 0001:00040ab0       ?alloc_fs_workspace@@YAXPAUjpeg_decompress_struct@@@Z 10041ab0 f   krnln_static:JQUANT1.OBJ
 0001:00040af0       ?start_pass_1_quant@@YAXPAUjpeg_decompress_struct@@H@Z 10041af0 f   krnln_static:JQUANT1.OBJ
 0001:00040be0       ?create_odither_tables@@YAXPAUjpeg_decompress_struct@@@Z 10041be0 f   krnln_static:JQUANT1.OBJ
 0001:00040c40       ?make_odither_array@@YAPAY0BA@HPAUjpeg_decompress_struct@@H@Z 10041c40 f   krnln_static:JQUANT1.OBJ
 0001:00040cb0       ?color_quantize@@YAXPAUjpeg_decompress_struct@@PAPAE1H@Z 10041cb0 f   krnln_static:JQUANT1.OBJ
 0001:00040d70       ?color_quantize3@@YAXPAUjpeg_decompress_struct@@PAPAE1H@Z 10041d70 f   krnln_static:JQUANT1.OBJ
 0001:00040e30       ?quantize_ord_dither@@YAXPAUjpeg_decompress_struct@@PAPAE1H@Z 10041e30 f   krnln_static:JQUANT1.OBJ
 0001:00040f60       ?quantize3_ord_dither@@YAXPAUjpeg_decompress_struct@@PAPAE1H@Z 10041f60 f   krnln_static:JQUANT1.OBJ
 0001:00041090       ?quantize_fs_dither@@YAXPAUjpeg_decompress_struct@@PAPAE1H@Z 10042090 f   krnln_static:JQUANT1.OBJ
 0001:0003eca0       ?finish_pass_1_quant@@YAXPAUjpeg_decompress_struct@@@Z 1003fca0 f   krnln_static:Jdcolor.obj
 0001:000399a0       ?new_color_map_1_quant@@YAXPAUjpeg_decompress_struct@@@Z 1003a9a0 f   krnln_static:JMEMMGR.OBJ
 0001:0003f3b0       ?init_error_limit@@YAXPAUjpeg_decompress_struct@@@Z 100403b0 f   krnln_static:JQUANT2.OBJ
 0001:0003f450       ?start_pass_2_quant@@YAXPAUjpeg_decompress_struct@@H@Z 10040450 f   krnln_static:JQUANT2.OBJ
 0001:0003f560       ?prescan_quantize@@YAXPAUjpeg_decompress_struct@@PAPAE1H@Z 10040560 f   krnln_static:JQUANT2.OBJ
 0001:0003f5e0       ?pass2_no_dither@@YAXPAUjpeg_decompress_struct@@PAPAE1H@Z 100405e0 f   krnln_static:JQUANT2.OBJ
 0001:0003f6b0       ?fill_inverse_cmap@@YAXPAUjpeg_decompress_struct@@HHH@Z 100406b0 f   krnln_static:JQUANT2.OBJ
 0001:0003f7d0       ?find_nearby_colors@@YAHPAUjpeg_decompress_struct@@HHHQAE@Z 100407d0 f   krnln_static:JQUANT2.OBJ
 0001:0003f9d0       ?find_best_colors@@YAXPAUjpeg_decompress_struct@@HHHHQAE1@Z 100409d0 f   krnln_static:JQUANT2.OBJ
 0001:0003fb30       ?pass2_fs_dither@@YAXPAUjpeg_decompress_struct@@PAPAE1H@Z 10040b30 f   krnln_static:JQUANT2.OBJ
 0001:0003fe10       ?finish_pass1@@YAXPAUjpeg_decompress_struct@@@Z 10040e10 f   krnln_static:JQUANT2.OBJ
 0001:0003fe40       ?select_colors@@YAXPAUjpeg_decompress_struct@@H@Z 10040e40 f   krnln_static:JQUANT2.OBJ
 0001:0003fec0       ?update_box@@YAXPAUjpeg_decompress_struct@@PAUbox@@@Z 10040ec0 f   krnln_static:JQUANT2.OBJ
 0001:00040310       ?median_cut@@YAHPAUjpeg_decompress_struct@@PAUbox@@HH@Z 10041310 f   krnln_static:JQUANT2.OBJ
 0001:00040450       ?find_biggest_color_pop@@YAPAUbox@@PAU1@H@Z 10041450 f   krnln_static:JQUANT2.OBJ
 0001:00040490       ?find_biggest_volume@@YAPAUbox@@PAU1@H@Z 10041490 f   krnln_static:JQUANT2.OBJ
 0001:000404c0       ?compute_color@@YAXPAUjpeg_decompress_struct@@PAUbox@@H@Z 100414c0 f   krnln_static:JQUANT2.OBJ
 0001:0003eca0       ?finish_pass2@@YAXPAUjpeg_decompress_struct@@@Z 1003fca0 f   krnln_static:Jdcolor.obj
 0001:00040660       ?new_color_map_2_quant@@YAXPAUjpeg_decompress_struct@@@Z 10041660 f   krnln_static:JQUANT2.OBJ
 0001:0003ed40       ?build_ycc_rgb_table@@YAXPAUjpeg_decompress_struct@@@Z 1003fd40 f   krnln_static:JDMERGE.OBJ
 0001:0003ee00       ?start_pass_merged_upsample@@YAXPAUjpeg_decompress_struct@@@Z 1003fe00 f   krnln_static:JDMERGE.OBJ
 0001:0003ee20       ?merged_2v_upsample@@YAXPAUjpeg_decompress_struct@@PAPAPAEPAIIPAPAE2I@Z 1003fe20 f   krnln_static:JDMERGE.OBJ
 0001:0003eef0       ?merged_1v_upsample@@YAXPAUjpeg_decompress_struct@@PAPAPAEPAIIPAPAE2I@Z 1003fef0 f   krnln_static:JDMERGE.OBJ
 0001:0003ef30       ?h2v1_merged_upsample@@YAXPAUjpeg_decompress_struct@@PAPAPAEIPAPAE@Z 1003ff30 f   krnln_static:JDMERGE.OBJ
 0001:0003f090       ?h2v2_merged_upsample@@YAXPAUjpeg_decompress_struct@@PAPAPAEIPAPAE@Z 10040090 f   krnln_static:JDMERGE.OBJ
 0001:0003e880       ?build_ycc_rgb_table@@YAXPAUjpeg_decompress_struct@@@Z 1003f880 f   krnln_static:Jdcolor.obj
 0001:0003e940       ?ycc_rgb_convert@@YAXPAUjpeg_decompress_struct@@PAPAPAEIPAPAEH@Z 1003f940 f   krnln_static:Jdcolor.obj
 0001:0003ea70       ?null_convert@@YAXPAUjpeg_decompress_struct@@PAPAPAEIPAPAEH@Z 1003fa70 f   krnln_static:Jdcolor.obj
 0001:0003eb00       ?grayscale_convert@@YAXPAUjpeg_decompress_struct@@PAPAPAEIPAPAEH@Z 1003fb00 f   krnln_static:Jdcolor.obj
 0001:0003eb30       ?ycck_cmyk_convert@@YAXPAUjpeg_decompress_struct@@PAPAPAEIPAPAEH@Z 1003fb30 f   krnln_static:Jdcolor.obj
 0001:0003eca0       ?start_pass_dcolor@@YAXPAUjpeg_decompress_struct@@@Z 1003fca0 f   krnln_static:Jdcolor.obj
 0001:0003e170       ?start_pass_upsample@@YAXPAUjpeg_decompress_struct@@@Z 1003f170 f   krnln_static:JDSAMPLE.OBJ
 0001:0003e190       ?sep_upsample@@YAXPAUjpeg_decompress_struct@@PAPAPAEPAIIPAPAE2I@Z 1003f190 f   krnln_static:JDSAMPLE.OBJ
 0001:0003e290       ?fullsize_upsample@@YAXPAUjpeg_decompress_struct@@PAUjpeg_component_info@@PAPAEPAPAPAE@Z 1003f290 f   krnln_static:JDSAMPLE.OBJ
 0001:0003e2a0       ?noop_upsample@@YAXPAUjpeg_decompress_struct@@PAUjpeg_component_info@@PAPAEPAPAPAE@Z 1003f2a0 f   krnln_static:JDSAMPLE.OBJ
 0001:0003e2b0       ?int_upsample@@YAXPAUjpeg_decompress_struct@@PAUjpeg_component_info@@PAPAEPAPAPAE@Z 1003f2b0 f   krnln_static:JDSAMPLE.OBJ
 0001:0003e3d0       ?h2v1_upsample@@YAXPAUjpeg_decompress_struct@@PAUjpeg_component_info@@PAPAEPAPAPAE@Z 1003f3d0 f   krnln_static:JDSAMPLE.OBJ
 0001:0003e430       ?h2v2_upsample@@YAXPAUjpeg_decompress_struct@@PAUjpeg_component_info@@PAPAEPAPAPAE@Z 1003f430 f   krnln_static:JDSAMPLE.OBJ
 0001:0003e4c0       ?h2v1_fancy_upsample@@YAXPAUjpeg_decompress_struct@@PAUjpeg_component_info@@PAPAEPAPAPAE@Z 1003f4c0 f   krnln_static:JDSAMPLE.OBJ
 0001:0003e590       ?h2v2_fancy_upsample@@YAXPAUjpeg_decompress_struct@@PAUjpeg_component_info@@PAPAEPAPAPAE@Z 1003f590 f   krnln_static:JDSAMPLE.OBJ
 0001:0003dcc0       ?start_pass_dpost@@YAXPAUjpeg_decompress_struct@@W4J_BUF_MODE@@@Z 1003ecc0 f   krnln_static:JDPOSTCT.OBJ
 0001:0003dda0       ?post_process_1pass@@YAXPAUjpeg_decompress_struct@@PAPAPAEPAIIPAPAE2I@Z 1003eda0 f   krnln_static:JDPOSTCT.OBJ
 0001:0003de20       ?post_process_prepass@@YAXPAUjpeg_decompress_struct@@PAPAPAEPAIIPAPAE2I@Z 1003ee20 f   krnln_static:JDPOSTCT.OBJ
 0001:0003ded0       ?post_process_2pass@@YAXPAUjpeg_decompress_struct@@PAPAPAEPAIIPAPAE2I@Z 1003eed0 f   krnln_static:JDPOSTCT.OBJ
 0001:0003da20       ?start_pass@@YAXPAUjpeg_decompress_struct@@@Z 1003ea20 f   krnln_static:JDDCTMGR.OBJ
 0001:0003cc70       ?start_pass_phuff_decoder@@YAXPAUjpeg_decompress_struct@@@Z 1003dc70 f   krnln_static:JDPHUFF.OBJ
 0001:0003cee0       ?decode_mcu_DC_first@@YAHPAUjpeg_decompress_struct@@PAPAY0EA@F@Z 1003dee0 f   krnln_static:JDPHUFF.OBJ
 0001:0003d120       ?process_restart@@YAHPAUjpeg_decompress_struct@@@Z 1003e120 f   krnln_static:JDPHUFF.OBJ
 0001:0003d1b0       ?decode_mcu_AC_first@@YAHPAUjpeg_decompress_struct@@PAPAY0EA@F@Z 1003e1b0 f   krnln_static:JDPHUFF.OBJ
 0001:0003d420       ?decode_mcu_DC_refine@@YAHPAUjpeg_decompress_struct@@PAPAY0EA@F@Z 1003e420 f   krnln_static:JDPHUFF.OBJ
 0001:0003d540       ?decode_mcu_AC_refine@@YAHPAUjpeg_decompress_struct@@PAPAY0EA@F@Z 1003e540 f   krnln_static:JDPHUFF.OBJ
 0001:0003c610       ?start_pass_huff_decoder@@YAXPAUjpeg_decompress_struct@@@Z 1003d610 f   krnln_static:JDHUFF.OBJ
 0001:0003c730       ?decode_mcu@@YAHPAUjpeg_decompress_struct@@PAPAY0EA@F@Z 1003d730 f   krnln_static:JDHUFF.OBJ
 0001:0003cb80       ?process_restart@@YAHPAUjpeg_decompress_struct@@@Z 1003db80 f   krnln_static:JDHUFF.OBJ
 0001:0003b350       ?start_input_pass@@YAXPAUjpeg_decompress_struct@@@Z 1003c350 f   krnln_static:Jdcoefct.obj
 0001:0003b370       ?start_iMCU_row@@YAXPAUjpeg_decompress_struct@@@Z 1003c370 f   krnln_static:Jdcoefct.obj
 0001:0003b3d0       ?start_output_pass@@YAXPAUjpeg_decompress_struct@@@Z 1003c3d0 f   krnln_static:Jdcoefct.obj
 0001:0003b420       ?decompress_onepass@@YAHPAUjpeg_decompress_struct@@PAPAPAE@Z 1003c420 f   krnln_static:Jdcoefct.obj
 0001:0003b680       ?dummy_consume_data@@YAHPAUjpeg_decompress_struct@@@Z 1003c680 f   krnln_static:Jdcoefct.obj
 0001:0003b690       ?consume_data@@YAHPAUjpeg_decompress_struct@@@Z 1003c690 f   krnln_static:Jdcoefct.obj
 0001:0003b8b0       ?decompress_data@@YAHPAUjpeg_decompress_struct@@PAPAPAE@Z 1003c8b0 f   krnln_static:Jdcoefct.obj
 0001:0003ba70       ?smoothing_ok@@YAHPAUjpeg_decompress_struct@@@Z 1003ca70 f   krnln_static:Jdcoefct.obj
 0001:0003bb90       ?decompress_smooth_data@@YAHPAUjpeg_decompress_struct@@PAPAPAE@Z 1003cb90 f   krnln_static:Jdcoefct.obj
 0001:0003ac20       ?alloc_funny_pointers@@YAXPAUjpeg_decompress_struct@@@Z 1003bc20 f   krnln_static:JDMAINCT.OBJ
 0001:0003acd0       ?start_pass_main@@YAXPAUjpeg_decompress_struct@@W4J_BUF_MODE@@@Z 1003bcd0 f   krnln_static:JDMAINCT.OBJ
 0001:0003ad40       ?make_funny_pointers@@YAXPAUjpeg_decompress_struct@@@Z 1003bd40 f   krnln_static:JDMAINCT.OBJ
 0001:0003ae90       ?process_data_simple_main@@YAXPAUjpeg_decompress_struct@@PAPAEPAII@Z 1003be90 f   krnln_static:JDMAINCT.OBJ
 0001:0003af10       ?process_data_context_main@@YAXPAUjpeg_decompress_struct@@PAPAEPAII@Z 1003bf10 f   krnln_static:JDMAINCT.OBJ
 0001:0003b060       ?set_wraparound_pointers@@YAXPAUjpeg_decompress_struct@@@Z 1003c060 f   krnln_static:JDMAINCT.OBJ
 0001:0003b170       ?set_bottom_pointers@@YAXPAUjpeg_decompress_struct@@@Z 1003c170 f   krnln_static:JDMAINCT.OBJ
 0001:0003b210       ?process_data_crank_post@@YAXPAUjpeg_decompress_struct@@PAPAEPAII@Z 1003c210 f   krnln_static:JDMAINCT.OBJ
 0001:0003a570       ?use_merged_upsample@@YAHPAUjpeg_decompress_struct@@@Z 1003b570 f   krnln_static:JDMASTER.OBJ
 0001:0003a640       ?master_selection@@YAXPAUjpeg_decompress_struct@@@Z 1003b640 f   krnln_static:JDMASTER.OBJ
 0001:0003a810       ?prepare_range_limit_table@@YAXPAUjpeg_decompress_struct@@@Z 1003b810 f   krnln_static:JDMASTER.OBJ
 0001:0003a890       ?prepare_for_output_pass@@YAXPAUjpeg_decompress_struct@@@Z 1003b890 f   krnln_static:JDMASTER.OBJ
 0001:0003a9f0       ?finish_output_pass@@YAXPAUjpeg_decompress_struct@@@Z 1003b9f0 f   krnln_static:JDMASTER.OBJ
 0001:00039870       ?alloc_small@@YAPAXPAUjpeg_common_struct@@HI@Z 1003a870 f   krnln_static:JMEMMGR.OBJ
 0001:000399a0       ?out_of_memory@@YAXPAUjpeg_common_struct@@H@Z 1003a9a0 f   krnln_static:JMEMMGR.OBJ
 0001:000399b0       ?alloc_large@@YAPAXPAUjpeg_common_struct@@HI@Z 1003a9b0 f   krnln_static:JMEMMGR.OBJ
 0001:00039a40       ?alloc_sarray@@YAPAPAEPAUjpeg_common_struct@@HII@Z 1003aa40 f   krnln_static:JMEMMGR.OBJ
 0001:00039ae0       ?alloc_barray@@YAPAPAY0EA@FPAUjpeg_common_struct@@HII@Z 1003aae0 f   krnln_static:JMEMMGR.OBJ
 0001:00039b90       ?request_virt_sarray@@YAPAUjvirt_sarray_control@@PAUjpeg_common_struct@@HHIII@Z 1003ab90 f   krnln_static:JMEMMGR.OBJ
 0001:00039bf0       ?request_virt_barray@@YAPAUjvirt_barray_control@@PAUjpeg_common_struct@@HHIII@Z 1003abf0 f   krnln_static:JMEMMGR.OBJ
 0001:00039c50       ?realize_virt_arrays@@YAXPAUjpeg_common_struct@@@Z 1003ac50 f   krnln_static:JMEMMGR.OBJ
 0001:00039de0       ?access_virt_sarray@@YAPAPAEPAUjpeg_common_struct@@PAUjvirt_sarray_control@@IIH@Z 1003ade0 f   krnln_static:JMEMMGR.OBJ
 0001:00039f10       ?do_sarray_io@@YAXPAUjpeg_common_struct@@PAUjvirt_sarray_control@@H@Z 1003af10 f   krnln_static:JMEMMGR.OBJ
 0001:00039fb0       ?access_virt_barray@@YAPAPAY0EA@FPAUjpeg_common_struct@@PAUjvirt_barray_control@@IIH@Z 1003afb0 f   krnln_static:JMEMMGR.OBJ
 0001:0003a0f0       ?do_barray_io@@YAXPAUjpeg_common_struct@@PAUjvirt_barray_control@@H@Z 1003b0f0 f   krnln_static:JMEMMGR.OBJ
 0001:0003a190       ?free_pool@@YAXPAUjpeg_common_struct@@H@Z 1003b190 f   krnln_static:JMEMMGR.OBJ
 0001:0003a280       ?self_destruct@@YAXPAUjpeg_common_struct@@@Z 1003b280 f   krnln_static:JMEMMGR.OBJ
 0001:00038160       ?next_marker@@YAHPAUjpeg_decompress_struct@@@Z 10039160 f   krnln_static:JDMARKER.OBJ
 0001:00038300       ?get_app0@@YAHPAUjpeg_decompress_struct@@@Z 10039300 f   krnln_static:JDMARKER.OBJ
 0001:000384e0       ?get_app14@@YAHPAUjpeg_decompress_struct@@@Z 100394e0 f   krnln_static:JDMARKER.OBJ
 0001:00038620       ?skip_variable@@YAHPAUjpeg_decompress_struct@@@Z 10039620 f   krnln_static:JDMARKER.OBJ
 0001:000386b0       ?read_markers@@YAHPAUjpeg_decompress_struct@@@Z 100396b0 f   krnln_static:JDMARKER.OBJ
 0001:000389d0       ?get_soi@@YAHPAUjpeg_decompress_struct@@@Z 100399d0 f   krnln_static:JDMARKER.OBJ
 0001:00038a70       ?get_sof@@YAHPAUjpeg_decompress_struct@@HH@Z 10039a70 f   krnln_static:JDMARKER.OBJ
 0001:00038d40       ?get_sos@@YAHPAUjpeg_decompress_struct@@@Z 10039d40 f   krnln_static:JDMARKER.OBJ
 0001:00038fa0       ?get_dac@@YAHPAUjpeg_decompress_struct@@@Z 10039fa0 f   krnln_static:JDMARKER.OBJ
 0001:000390f0       ?get_dht@@YAHPAUjpeg_decompress_struct@@@Z 1003a0f0 f   krnln_static:JDMARKER.OBJ
 0001:00039320       ?get_dqt@@YAHPAUjpeg_decompress_struct@@@Z 1003a320 f   krnln_static:JDMARKER.OBJ
 0001:00039510       ?get_dri@@YAHPAUjpeg_decompress_struct@@@Z 1003a510 f   krnln_static:JDMARKER.OBJ
 0001:000395f0       ?first_marker@@YAHPAUjpeg_decompress_struct@@@Z 1003a5f0 f   krnln_static:JDMARKER.OBJ
 0001:00039680       ?read_restart_marker@@YAHPAUjpeg_decompress_struct@@@Z 1003a680 f   krnln_static:JDMARKER.OBJ
 0001:00039700       ?reset_marker_reader@@YAXPAUjpeg_decompress_struct@@@Z 1003a700 f   krnln_static:JDMARKER.OBJ
 0001:00037b40       ?start_input_pass@@YAXPAUjpeg_decompress_struct@@@Z 10038b40 f   krnln_static:JDINPUT.OBJ
 0001:00037b80       ?per_scan_setup@@YAXPAUjpeg_decompress_struct@@@Z 10038b80 f   krnln_static:JDINPUT.OBJ
 0001:00037d00       ?latch_quant_tables@@YAXPAUjpeg_decompress_struct@@@Z 10038d00 f   krnln_static:JDINPUT.OBJ
 0001:00037da0       ?finish_input_pass@@YAXPAUjpeg_decompress_struct@@@Z 10038da0 f   krnln_static:JDINPUT.OBJ
 0001:00037dc0       ?consume_markers@@YAHPAUjpeg_decompress_struct@@@Z 10038dc0 f   krnln_static:JDINPUT.OBJ
 0001:00037e80       ?initial_setup@@YAXPAUjpeg_decompress_struct@@@Z 10038e80 f   krnln_static:JDINPUT.OBJ
 0001:00038030       ?reset_input_controller@@YAXPAUjpeg_decompress_struct@@@Z 10039030 f   krnln_static:JDINPUT.OBJ
 0001:000378c0       ?error_exit@@YAXPAUjpeg_common_struct@@@Z 100388c0 f   krnln_static:JERROR.OBJ
 0001:0003eca0       ?output_message@@YAXPAUjpeg_common_struct@@@Z 1003fca0 f   krnln_static:Jdcolor.obj
 0001:0003eca0       ?emit_message@@YAXPAUjpeg_common_struct@@H@Z 1003fca0 f   krnln_static:Jdcolor.obj
 0001:0003eca0       ?format_message@@YAXPAUjpeg_common_struct@@PAD@Z 1003fca0 f   krnln_static:Jdcolor.obj
 0001:000378d0       ?reset_error_mgr@@YAXPAUjpeg_common_struct@@@Z 100388d0 f   krnln_static:JERROR.OBJ
 0001:000377b0       ?init_source@@YAXPAUjpeg_decompress_struct@@@Z 100387b0 f   krnln_static:Jdatasrc.obj
 0001:000377c0       ?fill_input_buffer@@YAHPAUjpeg_decompress_struct@@@Z 100387c0 f   krnln_static:Jdatasrc.obj
 0001:00037830       ?skip_input_data@@YAXPAUjpeg_decompress_struct@@J@Z 10038830 f   krnln_static:Jdatasrc.obj
 0001:0003eca0       ?term_source@@YAXPAUjpeg_decompress_struct@@@Z 1003fca0 f   krnln_static:Jdcolor.obj
 0001:000375e0       ?output_pass_setup@@YAHPAUjpeg_decompress_struct@@@Z 100385e0 f   krnln_static:JDAPISTD.OBJ
 0001:000372e0       ?default_decompress_parms@@YAXPAUjpeg_decompress_struct@@@Z 100382e0 f   krnln_static:JDAPIMIN.OBJ
 0001:00031920       ?my_error_exit@@YAXPAUjpeg_common_struct@@@Z 10032920 f   krnln_static:Jpegfile.obj
 0001:0002fb30       _$E254                     10030b30 f   krnln_static:wave.obj
 0001:0002fb40       _$E251                     10030b40 f   krnln_static:wave.obj
 0001:0002fb60       _$E253                     10030b60 f   krnln_static:wave.obj
 0001:0002fb70       _$E252                     10030b70 f   krnln_static:wave.obj
 0001:0002fd60       ?GlobalStopPlay@@YAHXZ     10030d60 f   krnln_static:wave.obj
 0001:00030190       ?GlobalPlayThread@@YGIPAX@Z 10031190 f   krnln_static:wave.obj
 0001:000303e0       ?globalWaveOutProc@@YGXPAUHWAVEOUT__@@IKKK@Z 100313e0 f   krnln_static:wave.obj
 0001:0002d940       _$E263                     1002e940 f   krnln_static:container.obj
 0001:00028b80       _$E286                     10029b80 f   krnln_static:com.obj
 0001:00028b90       _$E283                     10029b90 f   krnln_static:com.obj
 0001:00028ba0       _$E285                     10029ba0 f   krnln_static:com.obj
 0001:00028bb0       _$E284                     10029bb0 f   krnln_static:com.obj
 0001:00022320       _$E298                     10023320 f   krnln_static:MGrid.obj
 0001:00022330       _$E297                     10023330 f   krnln_static:MGrid.obj
 0001:000113a0       _$E288                     100123a0 f   krnln_static:FUNC.OBJ
 0001:000113b0       _$E287                     100123b0 f   krnln_static:FUNC.OBJ
 0001:000108e0       _$E411                     100118e0 f   krnln_static:Krnl.obj
 0001:000108f0       _$E408                     100118f0 f   krnln_static:Krnl.obj
 0001:00010900       _$E410                     10011900 f   krnln_static:Krnl.obj
 0001:00010920       _$E409                     10011920 f   krnln_static:Krnl.obj
 0001:00007340       _$E409                     10008340 f   krnln_static:krnl2.obj
 0001:00007350       _$E408                     10008350 f   krnln_static:krnl2.obj
 0001:00008040       _$E412                     10009040 f   krnln_static:krnl2.obj
 0001:00008050       _$E411                     10009050 f   krnln_static:krnl2.obj
 0001:00009ba0       ?GetUnitDataPtr@@YAPAEPAVCWinUnitIDManger@@PAE@Z 1000aba0 f   krnln_static:krnl2.obj
 0001:0000d030       _$E415                     1000e030 f   krnln_static:krnl2.obj
 0001:00000f90       _$E413                     10001f90 f   krnln_static:Libfn.obj
 0001:00000fa0       _$E410                     10001fa0 f   krnln_static:Libfn.obj
 0001:00000fb0       _$E412                     10001fb0 f   krnln_static:Libfn.obj
 0001:00000fc0       _$E411                     10001fc0 f   krnln_static:Libfn.obj
 0001:000478c0       _huft_build                100488c0 f   dp1_static:inftrees.obj
 0001:0003eca0       _tr_static_init            1003fca0 f   krnln_static:Jdcolor.obj
 0001:00044690       _init_block                10045690 f   dp1_static:trees.obj
 0001:00044bf0       _build_tree                10045bf0 f   dp1_static:trees.obj
 0001:00044e30       _pqdownheap                10045e30 f   dp1_static:trees.obj
 0001:00044f10       _gen_bitlen                10045f10 f   dp1_static:trees.obj
 0001:00045140       _gen_codes                 10046140 f   dp1_static:trees.obj
 0001:000451c0       _build_bl_tree             100461c0 f   dp1_static:trees.obj
 0001:00045230       _scan_tree                 10046230 f   dp1_static:trees.obj
 0001:00045320       _send_all_trees            10046320 f   dp1_static:trees.obj
 0001:00045590       _send_tree                 10046590 f   dp1_static:trees.obj
 0001:00045b10       _compress_block            10046b10 f   dp1_static:trees.obj
 0001:00045f50       _set_data_type             10046f50 f   dp1_static:trees.obj
 0001:00045fd0       _bi_reverse                10046fd0 f   dp1_static:trees.obj
 0001:00045ff0       _bi_flush                  10046ff0 f   dp1_static:trees.obj
 0001:00046080       _bi_windup                 10047080 f   dp1_static:trees.obj
 0001:00046100       _copy_block                10047100 f   dp1_static:trees.obj
 0001:000430f0       _putShortMSB               100440f0 f   dp1_static:deflate.obj
 0001:00043120       _flush_pending             10044120 f   dp1_static:deflate.obj
 0001:00043250       _lm_init                   10044250 f   dp1_static:deflate.obj
 0001:000432f0       _deflate_stored            100442f0 f   dp1_static:deflate.obj
 0001:00043450       _fill_window               10044450 f   dp1_static:deflate.obj
 0001:00043580       _read_buf                  10044580 f   dp1_static:deflate.obj
 0001:00043600       _deflate_fast              10044600 f   dp1_static:deflate.obj
 0001:00043930       _longest_match             10044930 f   dp1_static:deflate.obj
 0001:00043aa0       _deflate_slow              10044aa0 f   dp1_static:deflate.obj
 0001:00063cf6       _$E366                     10064cf6 f   nafxcw:afxdbcs.obj
 0001:00063cfb       _$E365                     10064cfb f   nafxcw:afxdbcs.obj
 0001:00063bbc       _$E368                     10064bbc f   nafxcw:auxdata.obj
 0001:00063bc6       _$E365                     10064bc6 f   nafxcw:auxdata.obj
 0001:00063bd0       _$E367                     10064bd0 f   nafxcw:auxdata.obj
 0001:00063bdc       _$E366                     10064bdc f   nafxcw:auxdata.obj
 0001:00063b75       _$E368                     10064b75 f   nafxcw:app3d.obj
 0001:00063b7f       _$E365                     10064b7f f   nafxcw:app3d.obj
 0001:00063b80       _$E367                     10064b80 f   nafxcw:app3d.obj
 0001:00063b8c       _$E366                     10064b8c f   nafxcw:app3d.obj
 0001:00063b9b       _$E373                     10064b9b f   nafxcw:app3d.obj
 0001:00063ba5       _$E370                     10064ba5 f   nafxcw:app3d.obj
 0001:00063ba6       _$E372                     10064ba6 f   nafxcw:app3d.obj
 0001:00063bb2       _$E371                     10064bb2 f   nafxcw:app3d.obj
 0001:000637bd       _$E368                     100647bd f   nafxcw:dlgclr.obj
 0001:000637c7       _$E365                     100647c7 f   nafxcw:dlgclr.obj
 0001:000637c8       _$E367                     100647c8 f   nafxcw:dlgclr.obj
 0001:000637d4       _$E366                     100647d4 f   nafxcw:dlgclr.obj
 0001:00063765       _$E371                     10064765 f   nafxcw:winmenu.obj
 0001:0006376f       _$E367                     1006476f f   nafxcw:winmenu.obj
 0001:0006377e       _$E370                     1006477e f   nafxcw:winmenu.obj
 0001:0006378a       _$E368                     1006478a f   nafxcw:winmenu.obj
 0001:000636ca       _$E366                     100646ca f   nafxcw:array_w.obj
 0001:000636cf       _$E365                     100646cf f   nafxcw:array_w.obj
 0001:0006369d       _$E366                     1006469d f   nafxcw:array_d.obj
 0001:000636a2       _$E365                     100646a2 f   nafxcw:array_d.obj
 0001:00063499       _$E371                     10064499 f   nafxcw:winctrl2.obj
 0001:000634a3       _$E367                     100644a3 f   nafxcw:winctrl2.obj
 0001:000634b2       _$E370                     100644b2 f   nafxcw:winctrl2.obj
 0001:000634be       _$E368                     100644be f   nafxcw:winctrl2.obj
 0001:000633ff       _$E368                     100643ff f   nafxcw:appcore.obj
 0001:00063409       _$E365                     10064409 f   nafxcw:appcore.obj
 0001:0006340a       _$E367                     1006440a f   nafxcw:appcore.obj
 0001:00063416       _$E366                     10064416 f   nafxcw:appcore.obj
 0001:000587df       ?DestructElements@@YAXPAVCString@@H@Z 100597df f   nafxcw:array_s.obj
 0001:0005891e       ?ConstructElements@@YAXPAVCString@@H@Z 1005991e f   nafxcw:array_s.obj
 0001:00062a72       _$E366                     10063a72 f   nafxcw:array_s.obj
 0001:00062a77       _$E365                     10063a77 f   nafxcw:array_s.obj
 0001:00062768       _$E368                     10063768 f   nafxcw:afxstate.obj
 0001:00062772       _$E365                     10063772 f   nafxcw:afxstate.obj
 0001:00062773       _$E367                     10063773 f   nafxcw:afxstate.obj
 0001:0006277f       _$E366                     1006377f f   nafxcw:afxstate.obj
 0001:00062964       _$E373                     10063964 f   nafxcw:afxstate.obj
 0001:0006296e       _$E370                     1006396e f   nafxcw:afxstate.obj
 0001:0006296f       _$E372                     1006396f f   nafxcw:afxstate.obj
 0001:0006297b       _$E371                     1006397b f   nafxcw:afxstate.obj
 0001:0006217e       _$E366                     1006317e f   nafxcw:wingdix.obj
 0001:00062183       _$E365                     10063183 f   nafxcw:wingdix.obj
 0001:0006265a       _$E368                     1006365a f   nafxcw:winctrl3.obj
 0001:00062664       _$E365                     10063664 f   nafxcw:winctrl3.obj
 0001:00062665       _$E367                     10063665 f   nafxcw:winctrl3.obj
 0001:00062671       _$E366                     10063671 f   nafxcw:winctrl3.obj
 0001:0005aa14       _$E374                     1005ba14 f   nafxcw:wincore.obj
 0001:0005aa19       _$E373                     1005ba19 f   nafxcw:wincore.obj
 0001:0005aa2a       _$E380                     1005ba2a f   nafxcw:wincore.obj
 0001:0005aa34       _$E376                     1005ba34 f   nafxcw:wincore.obj
 0001:0005aa41       _$E379                     1005ba41 f   nafxcw:wincore.obj
 0001:0005aa4d       _$E377                     1005ba4d f   nafxcw:wincore.obj
 0001:0005aa68       _$E385                     1005ba68 f   nafxcw:wincore.obj
 0001:0005aa72       _$E382                     1005ba72 f   nafxcw:wincore.obj
 0001:0005aa7f       _$E384                     1005ba7f f   nafxcw:wincore.obj
 0001:0005aa8b       _$E383                     1005ba8b f   nafxcw:wincore.obj
 0001:0005aaa6       _$E390                     1005baa6 f   nafxcw:wincore.obj
 0001:0005aab0       _$E387                     1005bab0 f   nafxcw:wincore.obj
 0001:0005aabd       _$E389                     1005babd f   nafxcw:wincore.obj
 0001:0005aac9       _$E388                     1005bac9 f   nafxcw:wincore.obj
 0001:0005aae4       _$E395                     1005bae4 f   nafxcw:wincore.obj
 0001:0005aaee       _$E392                     1005baee f   nafxcw:wincore.obj
 0001:0005aafb       _$E394                     1005bafb f   nafxcw:wincore.obj
 0001:0005ab07       _$E393                     1005bb07 f   nafxcw:wincore.obj
 0001:0006259b       _$E403                     1006359b f   nafxcw:wincore.obj
 0001:000625a5       _$E399                     100635a5 f   nafxcw:wincore.obj
 0001:000625b4       _$E402                     100635b4 f   nafxcw:wincore.obj
 0001:000625c0       _$E400                     100635c0 f   nafxcw:wincore.obj
 0001:000622d9       _$E372                     100632d9 f   nafxcw:wingdi.obj
 0001:000622e3       _$E369                     100632e3 f   nafxcw:wingdi.obj
 0001:000622f5       _$E371                     100632f5 f   nafxcw:wingdi.obj
 0001:00062301       _$E370                     10063301 f   nafxcw:wingdi.obj
 0001:00062311       _$E377                     10063311 f   nafxcw:wingdi.obj
 0001:0006231b       _$E374                     1006331b f   nafxcw:wingdi.obj
 0001:0006232d       _$E376                     1006332d f   nafxcw:wingdi.obj
 0001:00062339       _$E375                     10063339 f   nafxcw:wingdi.obj
 0001:00062472       _$E383                     10063472 f   nafxcw:wingdi.obj
 0001:0006247c       _$E379                     1006347c f   nafxcw:wingdi.obj
 0001:0006248b       _$E382                     1006348b f   nafxcw:wingdi.obj
 0001:00062497       _$E380                     10063497 f   nafxcw:wingdi.obj
 0001:000624b2       _$E388                     100634b2 f   nafxcw:wingdi.obj
 0001:000624bc       _$E385                     100634bc f   nafxcw:wingdi.obj
 0001:000624cb       _$E387                     100634cb f   nafxcw:wingdi.obj
 0001:000624d7       _$E386                     100634d7 f   nafxcw:wingdi.obj
 0001:00062229       _$E368                     10063229 f   nafxcw:except.obj
 0001:00062233       _$E365                     10063233 f   nafxcw:except.obj
 0001:00062245       _$E367                     10063245 f   nafxcw:except.obj
 0001:00062251       _$E366                     10063251 f   nafxcw:except.obj
 0001:00062261       _$E373                     10063261 f   nafxcw:except.obj
 0001:0006226b       _$E370                     1006326b f   nafxcw:except.obj
 0001:0006227d       _$E372                     1006327d f   nafxcw:except.obj
 0001:00062289       _$E371                     10063289 f   nafxcw:except.obj
 0001:0005931b       _$E368                     1005a31b f   nafxcw:strcore.obj
 0001:00059325       _$E365                     1005a325 f   nafxcw:strcore.obj
 0001:00059334       _$E367                     1005a334 f   nafxcw:strcore.obj
 0001:00059340       _$E366                     1005a340 f   nafxcw:strcore.obj
 0001:0005934a       _$E373                     1005a34a f   nafxcw:strcore.obj
 0001:00059354       _$E370                     1005a354 f   nafxcw:strcore.obj
 0001:00059366       _$E372                     1005a366 f   nafxcw:strcore.obj
 0001:00059372       _$E371                     1005a372 f   nafxcw:strcore.obj
 0001:0005937c       _$E378                     1005a37c f   nafxcw:strcore.obj
 0001:00059386       _$E375                     1005a386 f   nafxcw:strcore.obj
 0001:00059398       _$E377                     1005a398 f   nafxcw:strcore.obj
 0001:000593a4       _$E376                     1005a3a4 f   nafxcw:strcore.obj
 0001:000593ae       _$E383                     1005a3ae f   nafxcw:strcore.obj
 0001:000593b8       _$E380                     1005a3b8 f   nafxcw:strcore.obj
 0001:000593ca       _$E382                     1005a3ca f   nafxcw:strcore.obj
 0001:000593d6       _$E381                     1005a3d6 f   nafxcw:strcore.obj
 0001:0004861e       _$E366                     1004961e f   nafxcw:dllmodul.obj
 0001:00048623       _$E365                     10049623 f   nafxcw:dllmodul.obj
 0001:000569a1       _siglookup                 100579a1 f   libcmt:winsig.obj
 0001:00051708       _strncnt                   10052708 f   libcmt:a_map.obj
 0001:00055443       __abstract_cw              10056443 f   libcmt:ieee87.obj
 0001:000554d5       __hw_cw                    100564d5 f   libcmt:ieee87.obj
 0001:00054ddb       __tzset_lk                 10055ddb f   libcmt:tzset.obj
 0001:00055083       __isindst_lk               10056083 f   libcmt:tzset.obj
 0001:0005522f       _cvtdate                   1005622f f   libcmt:tzset.obj
 0001:0005429b       __hextodec                 1005529b f   libcmt:input.obj
 0001:000542d2       __inc                      100552d2 f   libcmt:input.obj
 0001:000542ec       __un_inc                   100552ec f   libcmt:input.obj
 0001:00054303       __whiteout                 10055303 f   libcmt:input.obj
 0001:00053582       _flsall                    10054582 f   libcmt:fflush.obj
 0001:000533a5       _write_char                100543a5 f   libcmt:output.obj
 0001:000533da       _write_multi_char          100543da f   libcmt:output.obj
 0001:0005340b       _write_string              1005440b f   libcmt:output.obj
 0001:00053443       _get_int_arg               10054443 f   libcmt:output.obj
 0001:00053450       _get_int64_arg             10054450 f   libcmt:output.obj
 0001:00053460       _get_short_arg             10054460 f   libcmt:output.obj
 0001:00051708       _strncnt                   10052708 f   libcmt:a_map.obj
 0001:00050adb       ?FindHandler@@YAXPAUEHExceptionRecord@@PAUEHRegistrationNode@@PAU_CONTEXT@@PAXPBU_s_FuncInfo@@EH1@Z 10051adb f   libcmt:frame.obj
 0001:00050c8e       ?FindHandlerForForeignException@@YAXPAUEHExceptionRecord@@PAUEHRegistrationNode@@PAU_CONTEXT@@PAXPBU_s_FuncInfo@@HH1@Z 10051c8e f   libcmt:frame.obj
 0001:00050d38       ?TypeMatch@@YAHPBU_s_HandlerType@@PBU_s_CatchableType@@PBU_s_ThrowInfo@@@Z 10051d38 f   libcmt:frame.obj
 0001:00050e33       ?FrameUnwindFilter@@YAHPAU_EXCEPTION_POINTERS@@@Z 10051e33 f   libcmt:frame.obj
 0001:00050e49       ?CatchIt@@YAXPAUEHExceptionRecord@@PAUEHRegistrationNode@@PAU_CONTEXT@@PAXPBU_s_FuncInfo@@PBU_s_HandlerType@@PBU_s_CatchableType@@PBU_s_TryBlockMapEntry@@H1E@Z 10051e49 f   libcmt:frame.obj
 0001:00050ec4       ?CallCatchBlock@@YAPAXPAUEHExceptionRecord@@PAUEHRegistrationNode@@PAU_CONTEXT@@PBU_s_FuncInfo@@PAXHK@Z 10051ec4 f   libcmt:frame.obj
 0001:00050fdf       ?ExFilterRethrow@@YAHPAU_EXCEPTION_POINTERS@@@Z 10051fdf f   libcmt:frame.obj
 0001:00051009       ?BuildCatchObject@@YAXPAUEHExceptionRecord@@PAUEHRegistrationNode@@PBU_s_HandlerType@@PBU_s_CatchableType@@@Z 10052009 f   libcmt:frame.obj
 0001:00051234       ?AdjustPointer@@YAPAXPAXABUPMD@@@Z 10052234 f   libcmt:frame.obj
 0001:0005088a       _findenv                   1005188a f   libcmt:setenv.obj
 0001:000508e2       _copy_environ              100518e2 f   libcmt:setenv.obj
 0001:0004f8e4       label0                     100508e4 f   libcmt:adj_fdiv.obj
 0001:0004f8ea       label1                     100508ea f   libcmt:adj_fdiv.obj
 0001:0004f8ef       label2                     100508ef f   libcmt:adj_fdiv.obj
 0001:0004f8f5       label3                     100508f5 f   libcmt:adj_fdiv.obj
 0001:0004f8fa       label4                     100508fa f   libcmt:adj_fdiv.obj
 0001:0004f900       label5                     10050900 f   libcmt:adj_fdiv.obj
 0001:0004f906       label6                     10050906 f   libcmt:adj_fdiv.obj
 0001:0004f90c       label7                     1005090c f   libcmt:adj_fdiv.obj
 0001:0004f912       label8                     10050912 f   libcmt:adj_fdiv.obj
 0001:0004f92e       label9                     1005092e f   libcmt:adj_fdiv.obj
 0001:0004f933       label10                    10050933 f   libcmt:adj_fdiv.obj
 0001:0004f949       label11                    10050949 f   libcmt:adj_fdiv.obj
 0001:0004f94e       label12                    1005094e f   libcmt:adj_fdiv.obj
 0001:0004f96a       label13                    1005096a f   libcmt:adj_fdiv.obj
 0001:0004f97a       label14                    1005097a f   libcmt:adj_fdiv.obj
 0001:0004f98e       label15                    1005098e f   libcmt:adj_fdiv.obj
 0001:0004f99e       label16                    1005099e f   libcmt:adj_fdiv.obj
 0001:0004f9be       label17                    100509be f   libcmt:adj_fdiv.obj
 0001:0004f9c3       label18                    100509c3 f   libcmt:adj_fdiv.obj
 0001:0004f9dd       label19                    100509dd f   libcmt:adj_fdiv.obj
 0001:0004f9e2       label20                    100509e2 f   libcmt:adj_fdiv.obj
 0001:0004fa02       label21                    10050a02 f   libcmt:adj_fdiv.obj
 0001:0004fa16       label22                    10050a16 f   libcmt:adj_fdiv.obj
 0001:0004fa2e       label23                    10050a2e f   libcmt:adj_fdiv.obj
 0001:0004fa42       label24                    10050a42 f   libcmt:adj_fdiv.obj
 0001:0004fa62       label25                    10050a62 f   libcmt:adj_fdiv.obj
 0001:0004fa67       label26                    10050a67 f   libcmt:adj_fdiv.obj
 0001:0004fa81       label27                    10050a81 f   libcmt:adj_fdiv.obj
 0001:0004fa86       label28                    10050a86 f   libcmt:adj_fdiv.obj
 0001:0004faa6       label29                    10050aa6 f   libcmt:adj_fdiv.obj
 0001:0004faba       label30                    10050aba f   libcmt:adj_fdiv.obj
 0001:0004fad2       label31                    10050ad2 f   libcmt:adj_fdiv.obj
 0001:0004fae6       label32                    10050ae6 f   libcmt:adj_fdiv.obj
 0001:0004fb06       label33                    10050b06 f   libcmt:adj_fdiv.obj
 0001:0004fb0b       label34                    10050b0b f   libcmt:adj_fdiv.obj
 0001:0004fb25       label35                    10050b25 f   libcmt:adj_fdiv.obj
 0001:0004fb2a       label36                    10050b2a f   libcmt:adj_fdiv.obj
 0001:0004fb4a       label37                    10050b4a f   libcmt:adj_fdiv.obj
 0001:0004fb5e       label38                    10050b5e f   libcmt:adj_fdiv.obj
 0001:0004fb76       label39                    10050b76 f   libcmt:adj_fdiv.obj
 0001:0004fb8a       label40                    10050b8a f   libcmt:adj_fdiv.obj
 0001:0004fbaa       label41                    10050baa f   libcmt:adj_fdiv.obj
 0001:0004fbaf       label42                    10050baf f   libcmt:adj_fdiv.obj
 0001:0004fbc9       label43                    10050bc9 f   libcmt:adj_fdiv.obj
 0001:0004fbce       label44                    10050bce f   libcmt:adj_fdiv.obj
 0001:0004fbee       label45                    10050bee f   libcmt:adj_fdiv.obj
 0001:0004fc02       label46                    10050c02 f   libcmt:adj_fdiv.obj
 0001:0004fc1a       label47                    10050c1a f   libcmt:adj_fdiv.obj
 0001:0004fc2e       label48                    10050c2e f   libcmt:adj_fdiv.obj
 0001:0004fc4e       label49                    10050c4e f   libcmt:adj_fdiv.obj
 0001:0004fc53       label50                    10050c53 f   libcmt:adj_fdiv.obj
 0001:0004fc6d       label51                    10050c6d f   libcmt:adj_fdiv.obj
 0001:0004fc72       label52                    10050c72 f   libcmt:adj_fdiv.obj
 0001:0004fc92       label53                    10050c92 f   libcmt:adj_fdiv.obj
 0001:0004fca6       label54                    10050ca6 f   libcmt:adj_fdiv.obj
 0001:0004fcbe       label55                    10050cbe f   libcmt:adj_fdiv.obj
 0001:0004fcd2       label56                    10050cd2 f   libcmt:adj_fdiv.obj
 0001:0004fcf2       label57                    10050cf2 f   libcmt:adj_fdiv.obj
 0001:0004fcf7       label58                    10050cf7 f   libcmt:adj_fdiv.obj
 0001:0004fd11       label59                    10050d11 f   libcmt:adj_fdiv.obj
 0001:0004fd16       label60                    10050d16 f   libcmt:adj_fdiv.obj
 0001:0004fd36       label61                    10050d36 f   libcmt:adj_fdiv.obj
 0001:0004fd4a       label62                    10050d4a f   libcmt:adj_fdiv.obj
 0001:0004fd62       label63                    10050d62 f   libcmt:adj_fdiv.obj
 0001:0004f319       __get_fname                10050319 f   libcmt:fpexcept.obj
 0001:0004e551       fFEXP                      1004f551 f   libcmt:87tran.obj
 0001:0004e691       _rtforexpinf               1004f691 f   libcmt:87tran.obj
 0001:0004e26f       __cftoe2                   1004f26f f   libcmt:cvt.obj
 0001:0004e386       __cftof2                   1004f386 f   libcmt:cvt.obj
 0001:0004e511       __shift                    1004f511 f   libcmt:cvt.obj
 0001:0004d9ab       _parse_cmdline             1004e9ab f   libcmt:stdargv.obj
 0001:0004d276       _getSystemCP               1004e276 f   libcmt:mbctype.obj
 0001:0004d2c0       _CPtoLCID                  1004e2c0 f   libcmt:mbctype.obj
 0001:0004d2f3       _setSBCS                   1004e2f3 f   libcmt:mbctype.obj
 0001:0004d31c       _setSBUpLow                1004e31c f   libcmt:mbctype.obj
 0001:0004cddb       __make_time_t              1004dddb f   libcmt:mktime.obj
 0001:0004c8f1       _strtoxl                   1004d8f1 f   libcmt:strtol.obj
 0001:0004c809       _doexit                    1004d809 f   libcmt:crt0dat.obj
 0001:0004c8c0       __initterm                 1004d8c0 f   libcmt:crt0dat.obj
 0001:0004bda0       LeadUp1                    1004cda0 f   libcmt:memcpy.obj
 0001:0004bdcc       LeadUp2                    1004cdcc f   libcmt:memcpy.obj
 0001:0004bdf0       LeadUp3                    1004cdf0 f   libcmt:memcpy.obj
 0001:0004be6f       UnwindUp0                  1004ce6f f   libcmt:memcpy.obj
 0001:0004be5c       UnwindUp1                  1004ce5c f   libcmt:memcpy.obj
 0001:0004be54       UnwindUp2                  1004ce54 f   libcmt:memcpy.obj
 0001:0004be4c       UnwindUp3                  1004ce4c f   libcmt:memcpy.obj
 0001:0004be44       UnwindUp4                  1004ce44 f   libcmt:memcpy.obj
 0001:0004be3c       UnwindUp5                  1004ce3c f   libcmt:memcpy.obj
 0001:0004be34       UnwindUp6                  1004ce34 f   libcmt:memcpy.obj
 0001:0004be2c       UnwindUp7                  1004ce2c f   libcmt:memcpy.obj
 0001:0004be88       TrailUp0                   1004ce88 f   libcmt:memcpy.obj
 0001:0004be90       TrailUp1                   1004ce90 f   libcmt:memcpy.obj
 0001:0004be9c       TrailUp2                   1004ce9c f   libcmt:memcpy.obj
 0001:0004beb0       TrailUp3                   1004ceb0 f   libcmt:memcpy.obj
 0001:0004bf28       LeadDown1                  1004cf28 f   libcmt:memcpy.obj
 0001:0004bf48       LeadDown2                  1004cf48 f   libcmt:memcpy.obj
 0001:0004bf70       LeadDown3                  1004cf70 f   libcmt:memcpy.obj
 0001:0004bfc4       UnwindDown7                1004cfc4 f   libcmt:memcpy.obj
 0001:0004bfcc       UnwindDown6                1004cfcc f   libcmt:memcpy.obj
 0001:0004bfd4       UnwindDown5                1004cfd4 f   libcmt:memcpy.obj
 0001:0004bfdc       UnwindDown4                1004cfdc f   libcmt:memcpy.obj
 0001:0004bfe4       UnwindDown3                1004cfe4 f   libcmt:memcpy.obj
 0001:0004bfec       UnwindDown2                1004cfec f   libcmt:memcpy.obj
 0001:0004bff4       UnwindDown1                1004cff4 f   libcmt:memcpy.obj
 0001:0004c007       UnwindDown0                1004d007 f   libcmt:memcpy.obj
 0001:0004c020       TrailDown0                 1004d020 f   libcmt:memcpy.obj
 0001:0004c028       TrailDown1                 1004d028 f   libcmt:memcpy.obj
 0001:0004c038       TrailDown2                 1004d038 f   libcmt:memcpy.obj
 0001:0004c04c       TrailDown3                 1004d04c f   libcmt:memcpy.obj
 0001:0004a8b6       _x64toa@20                 1004b8b6 f   libcmt:xtoa.obj
 0001:0004a5c0       LeadUp1                    1004b5c0 f   libcmt:memmove.obj
 0001:0004a5ec       LeadUp2                    1004b5ec f   libcmt:memmove.obj
 0001:0004a610       LeadUp3                    1004b610 f   libcmt:memmove.obj
 0001:0004a68f       UnwindUp0                  1004b68f f   libcmt:memmove.obj
 0001:0004a67c       UnwindUp1                  1004b67c f   libcmt:memmove.obj
 0001:0004a674       UnwindUp2                  1004b674 f   libcmt:memmove.obj
 0001:0004a66c       UnwindUp3                  1004b66c f   libcmt:memmove.obj
 0001:0004a664       UnwindUp4                  1004b664 f   libcmt:memmove.obj
 0001:0004a65c       UnwindUp5                  1004b65c f   libcmt:memmove.obj
 0001:0004a654       UnwindUp6                  1004b654 f   libcmt:memmove.obj
 0001:0004a64c       UnwindUp7                  1004b64c f   libcmt:memmove.obj
 0001:0004a6a8       TrailUp0                   1004b6a8 f   libcmt:memmove.obj
 0001:0004a6b0       TrailUp1                   1004b6b0 f   libcmt:memmove.obj
 0001:0004a6bc       TrailUp2                   1004b6bc f   libcmt:memmove.obj
 0001:0004a6d0       TrailUp3                   1004b6d0 f   libcmt:memmove.obj
 0001:0004a748       LeadDown1                  1004b748 f   libcmt:memmove.obj
 0001:0004a768       LeadDown2                  1004b768 f   libcmt:memmove.obj
 0001:0004a790       LeadDown3                  1004b790 f   libcmt:memmove.obj
 0001:0004a7e4       UnwindDown7                1004b7e4 f   libcmt:memmove.obj
 0001:0004a7ec       UnwindDown6                1004b7ec f   libcmt:memmove.obj
 0001:0004a7f4       UnwindDown5                1004b7f4 f   libcmt:memmove.obj
 0001:0004a7fc       UnwindDown4                1004b7fc f   libcmt:memmove.obj
 0001:0004a804       UnwindDown3                1004b804 f   libcmt:memmove.obj
 0001:0004a80c       UnwindDown2                1004b80c f   libcmt:memmove.obj
 0001:0004a814       UnwindDown1                1004b814 f   libcmt:memmove.obj
 0001:0004a827       UnwindDown0                1004b827 f   libcmt:memmove.obj
 0001:0004a840       TrailDown0                 1004b840 f   libcmt:memmove.obj
 0001:0004a848       TrailDown1                 1004b848 f   libcmt:memmove.obj
 0001:0004a858       TrailDown2                 1004b858 f   libcmt:memmove.obj
 0001:0004a86c       TrailDown3                 1004b86c f   libcmt:memmove.obj
 0001:00049eb0       _gu_return                 1004aeb0 f   libcmt:exsup.obj
 0001:00049eb8       __unwind_handler           1004aeb8 f   libcmt:exsup.obj
 0001:00049ccb       ?CatchGuardHandler@@YA?AW4_EXCEPTION_DISPOSITION@@PAUEHExceptionRecord@@PAUCatchGuardRN@@PAX2@Z 1004accb f   libcmt:trnsctrl.obj
 0001:00049da6       ?TranslatorGuardHandler@@YA?AW4_EXCEPTION_DISPOSITION@@PAUEHExceptionRecord@@PAUTranslatorGuardRN@@PAX2@Z 1004ada6 f   libcmt:trnsctrl.obj
 0001:00049904       fFMOD                      1004a904 f   libcmt:87fmod.obj

 4872 bytes saved through ICF

